mads 2.1.8
main.asm -o:test.xex -l:listing.lst 
Source: main.asm
     1 				; Reconstructed from: behind_jaggi_lines.xex
     2 				; Generated by pyA8 reverse engineering toolkit
     3 				; Assemble with: mads main.asm -o:behind_jaggi_lines.xex
     4
     5 				    opt h-      ; raw binary — XEX headers via ORG brackets
     6
     7 				    icl 'equates.asm'
Source: equates.asm
     1 				; OS equates — referenced by this program
     2 				; Generated by pyA8 reverse engineering toolkit
     3
     4 				; Zero page
     5 = 0000			LNFLG        = $0000
     6 = 0001			NGFLAG       = $0001
     7 = 0002			CASINI       = $0002
     8 = 0004			VCOUNT_START = $0004
     9 = 0005			PM_DMA_CYCLES = $0005
    10 = 0006			TRAMSZ       = $0006
    11 = 0007			CMCMD        = $0007
    12 = 0008			WARMST       = $0008
    13 = 0009			MEMORY_REFRESH_CYCLES = $0009
    14 = 000A			DOSVEC       = $000A
    15 = 000C			DOSINI       = $000C
    16 = 000E			APPMHI       = $000E
    17 = 0010			POKMSK       = $0010
    18 = 0011			BRKKEY       = $0011
    19 = 0012			RTCLOK       = $0012
    20 = 0015			BUFADR       = $0015
    21 = 0018			DSKFMS       = $0018
    22 = 001C			ABUFPT       = $001C
    23 = 0020			ICHIDZ       = $0020
    24 = 0021			ICDNOZ       = $0021
    25 = 0022			ICCOMZ       = $0022
    26 = 0023			ICSTAZ       = $0023
    27 = 0024			ICBALZ       = $0024
    28 = 0025			ICBAHZ       = $0025
    29 = 0026			ICPTLZ       = $0026
    30 = 0027			ICPTHZ       = $0027
    31 = 0028			ICBLLZ       = $0028
    32 = 0029			ICBLHZ       = $0029
    33 = 002A			ICAX1Z       = $002A
    34 = 002B			ICAX2Z       = $002B
    35 = 002C			ENTVEC       = $002C
    36 = 002E			ICIDNO       = $002E
    37 = 002F			CIOCHR       = $002F
    38 = 0030			STATUS       = $0030
    39 = 0031			CHKSUM       = $0031
    40 = 0032			BUFRLO       = $0032
    41 = 0033			BUFRHI       = $0033
    42 = 0034			BFENLO       = $0034
    43 = 0035			BFENHI       = $0035
    44 = 0036			LTEMP        = $0036
    45 = 0038			BUFRFL       = $0038
    46 = 0039			RECVDN       = $0039
    47 = 003A			XMTDON       = $003A
    48 = 003B			CHKSNT       = $003B
    49 = 003C			NOCKSM       = $003C
    50 = 003D			BPTR         = $003D
    51 = 003E			FTYPE        = $003E
    52 = 003F			FEOF         = $003F
    53 = 0040			FREQ         = $0040
    54 = 0041			SOUNDR       = $0041
    55 = 0043			FMSZPG       = $0043
    56 = 004D			ATRACT       = $004D
    57 = 004F			COLRSH       = $004F
    58 = 0050			TMPCHR       = $0050
    59 = 0052			LMARGN       = $0052
    60 = 0053			RMARGN       = $0053
    61 = 0054			ROWCRS       = $0054
    62 = 0055			COLCRS       = $0055
    63 = 0057			DINDEX       = $0057
    64 = 0058			SAVMSC       = $0058
    65 = 005A			OLDROW       = $005A
    66 = 005B			OLDCOL       = $005B
    67 = 005D			OLDCHR       = $005D
    68 = 0060			FKDEF        = $0060
    69 = 0062			PALNTS       = $0062
    70 = 0066			TOADR        = $0066
    71 = 0068			FRMADR       = $0068
    72 = 006A			RAMTOP       = $006A
    73 = 006B			BUFCNT       = $006B
    74 = 006C			BUFSTR       = $006C
    75 = 006E			BITMSK       = $006E
    76 = 006F			SHFAMT       = $006F
    77 = 0070			ROWAC        = $0070
    78 = 0072			CYCLES_PER_SCANLINE = $0072
    79 = 0076			DELTAR       = $0076
    80 = 0077			DELTAC       = $0077
    81 = 007B			SWPFLG       = $007B
    82 = 007C			HOLDCH       = $007C
    83 = 007D			INSDAT       = $007D
    84 = 00D4			FR0          = $00D4
    85 = 00D5			FR0M         = $00D5
    86 = 00D9			QTEMP        = $00D9
    87 = 00DA			FRE          = $00DA
    88 = 00E0			FR1          = $00E0
    89 = 00E1			FR1M         = $00E1
    90 = 00EC			FRX          = $00EC
    91 = 00ED			EEXP         = $00ED
    92 = 00EE			NSIGN        = $00EE
    93 = 00EF			ESIGN        = $00EF
    94 = 00F0			FCHFLG       = $00F0
    95 = 00F1			DIGRT        = $00F1
    96 = 00F5			ZTEMP1       = $00F5
    97 = 00F7			ZTEMP4       = $00F7
    98 = 00F8			VBI_SCANLINE = $00F8
    99 = 00F9			ZTEMP3       = $00F9
   100 = 00FC			FLPTR        = $00FC
   101 = 00FE			FPTR2        = $00FE
   102
   103 				; Page 2 — vectors and shadows
   104 = 0200			VDSLST       = $0200
   105 = 0208			VKEYBD       = $0208
   106 = 0216			VIMIRQ       = $0216
   107 = 0220			CDTMV5       = $0220
   108 = 0222			VVBLKI       = $0222
   109 = 022F			SDMCTL       = $022F
   110 = 0244			COLDST       = $0244
   111 = 026F			GPRIOR       = $026F
   112 = 02C0			PCOLR0       = $02C0
   113 = 02C1			PCOLR1       = $02C1
   114 = 02C2			PCOLR2       = $02C2
   115 = 02C3			PCOLR3       = $02C3
   116 = 02C4			COLOR0       = $02C4
   117 = 02C5			COLOR1       = $02C5
   118 = 02C6			COLOR2       = $02C6
   119 = 02C7			COLOR3       = $02C7
   120 = 02C8			COLOR4       = $02C8
   121 = 0300			DDEVIC       = $0300
   122 = D1FF			PDVS         = $D1FF
   123
   124 				; GTIA (read: collision, write: position/color/control)
   125 = D000			M0PF         = $D000
   126 = D000			HPOSP0       = $D000
   127 = D001			M1PF         = $D001
   128 = D001			HPOSP1       = $D001
   129 = D002			M2PF         = $D002
   130 = D002			HPOSP2       = $D002
   131 = D003			M3PF         = $D003
   132 = D003			HPOSP3       = $D003
   133 = D004			P0PF         = $D004
   134 = D004			HPOSM0       = $D004
   135 = D005			P1PF         = $D005
   136 = D005			HPOSM1       = $D005
   137 = D006			P2PF         = $D006
   138 = D006			HPOSM2       = $D006
   139 = D007			P3PF         = $D007
   140 = D007			HPOSM3       = $D007
   141 = D008			M0PL         = $D008
   142 = D008			SIZEP0       = $D008
   143 = D009			M1PL         = $D009
   144 = D009			SIZEP1       = $D009
   145 = D00A			M2PL         = $D00A
   146 = D00A			SIZEP2       = $D00A
   147 = D00B			M3PL         = $D00B
   148 = D00B			SIZEP3       = $D00B
   149 = D00C			P0PL         = $D00C
   150 = D00C			SIZEM        = $D00C
   151 = D010			TRIG0        = $D010
   152 = D010			GRAFP3       = $D010
   153 = D012			TRIG2        = $D012
   154 = D012			COLPM0       = $D012
   155 = D013			TRIG3        = $D013
   156 = D013			COLPM1       = $D013
   157 = D014			PAL          = $D014
   158 = D014			COLPM2       = $D014
   159 = D015			COLPM3       = $D015
   160 = D016			COLPF0       = $D016
   161 = D017			COLPF1       = $D017
   162 = D018			COLPF2       = $D018
   163 = D019			COLPF3       = $D019
   164 = D01A			COLBK        = $D01A
   165 = D01B			PRIOR        = $D01B
   166 = D01D			GRACTL       = $D01D
   167 = D01F			CONSOL       = $D01F
   168
   169 				; POKEY (write: audio, read: random/keyboard)
   170 = D200			POT0         = $D200
   171 = D200			AUDF1        = $D200
   172 = D201			POT1         = $D201
   173 = D201			AUDC1        = $D201
   174 = D202			POT2         = $D202
   175 = D202			AUDF2        = $D202
   176 = D203			POT3         = $D203
   177 = D203			AUDC2        = $D203
   178 = D204			POT4         = $D204
   179 = D204			AUDF3        = $D204
   180 = D205			POT5         = $D205
   181 = D205			AUDC3        = $D205
   182 = D206			POT6         = $D206
   183 = D206			AUDF4        = $D206
   184 = D207			POT7         = $D207
   185 = D207			AUDC4        = $D207
   186 = D208			ALLPOT       = $D208
   187 = D208			AUDCTL       = $D208
   188 = D209			KBCODE       = $D209
   189 = D209			STIMER       = $D209
   190 = D20A			RANDOM       = $D20A
   191 = D20A			SKRES        = $D20A
   192 = D20E			IRQST        = $D20E
   193 = D20E			IRQEN        = $D20E
   194 = D20F			SKSTAT       = $D20F
   195 = D20F			SKCTL        = $D20F
   196
   197 				; PIA
   198 = D300			PORTA        = $D300
   199
   200 				; ANTIC (write: DMA/scroll, read: counters)
   201 = D400			DMACTL       = $D400
   202 = D402			DLISTL       = $D402
   203 = D403			DLISTH       = $D403
   204 = D407			PMBASE       = $D407
   205 = D409			CHBASE       = $D409
   206 = D40A			WSYNC        = $D40A
   207 = D40B			VCOUNT       = $D40B
   208 = D40E			NMIEN        = $D40E
   209
   210 				; Game variables
   211 = 0900			terrain_height_buf = $0900     ; Terrain heightmap ring buffer (16x16 toroidal)
   212 = 0A00			pilot_map    = $0A00     ; Downed pilot/object location map
   213 = 24BE			terrain_stack = $24BE     ; Fractal recursion stack (seed positions)
   214 = C28A			loc_C28A     = $C28A
   215 = E462			loc_E462     = $E462
     8
     9 				; === Segment 0: $3C00-$3C00 Placeholder byte at start addr ===
    10  FF FF 00 3C 00 3C	    org [a($FFFF),a($3C00),a($3C00)],$3C00
    11 				    icl 'seg_00_3C00.asm'
Source: seg_00_3C00.asm
     1 				; =============================================================
     2 				; Segment 0: $3C00-$3C00 — Placeholder byte at start addr
     3 				; =============================================================
     4 				; XEX load range: $3C00-$3C00 (1 bytes)
     5 				; WARNING: This segment is overwritten by segment 2
     6
     7 				    org $3C00
     8
     9 3C00 00			    brk
    12
    13 				; === Segment 1: $3800-$3BFF Custom character set (128 chars) ===
    14 3C01 00 38 FF 3B		    org [a($3800),a($3BFF)],$3800
    15 3800			    icl 'seg_01_3800.asm'
Source: seg_01_3800.asm
     1 				; =============================================================
     2 				; Segment 1: $3800-$3BFF — Custom character set (128 chars)
     3 				; =============================================================
     4 				; XEX load range: $3800-$3BFF (1024 bytes)
     5
     6 3800			    org $3800
     7
     8 3800			charset:
     9 3800 00 00 00 00 00 00 +     .byte $00,$00,$00,$00,$00,$00,$00,$00                  ; $3800
    10 3808 55 55 55 55 55 55 +     .byte $55,$55,$55,$55,$55,$55,$55,$55                  ; $3808
    11 3810 5D 5F 5D 75 75 7D +     .byte $5D,$5F,$5D,$75,$75,$7D,$7F,$DD                  ; $3810
    12 3818 6A 6B AB AB 6B 5A +     .byte $6A,$6B,$AB,$AB,$6B,$5A,$56,$55                  ; $3818
    13 3820 E9 A9 A9 A5 A5 A5 +     .byte $E9,$A9,$A9,$A5,$A5,$A5,$A5,$95                  ; $3820
    14 3828 6B 6E AE AE 6B 5A +     .byte $6B,$6E,$AE,$AE,$6B,$5A,$56,$55                  ; $3828
    15 3830 E9 A9 A9 A5 A5 E5 +     .byte $E9,$A9,$A9,$A5,$A5,$E5,$A5,$95                  ; $3830
    16 3838 6A 6E AE AE 6B 5A +     .byte $6A,$6E,$AE,$AE,$6B,$5A,$56,$55                  ; $3838
    17 3840 E9 E9 E9 E5 A5 A5 +     .byte $E9,$E9,$E9,$E5,$A5,$A5,$A5,$95                  ; $3840
    18 3848 6F 6E AE AE 6B 5A +     .byte $6F,$6E,$AE,$AE,$6B,$5A,$56,$55                  ; $3848
    19 3850 F9 B9 E9 E5 A5 A5 +     .byte $F9,$B9,$E9,$E5,$A5,$A5,$A5,$95                  ; $3850
    20 3858 B9 B9 E9 E5 A5 A5 +     .byte $B9,$B9,$E9,$E5,$A5,$A5,$A5,$95                  ; $3858
    21 3860 F9 B9 E9 E5 A5 A5 +     .byte $F9,$B9,$E9,$E5,$A5,$A5,$A5,$95                  ; $3860
    22 3868 6A 6B AE AE 6A 5A +     .byte $6A,$6B,$AE,$AE,$6A,$5A,$56,$55                  ; $3868
    23 3870 E9 A9 A9 A5 A5 A5 +     .byte $E9,$A9,$A9,$A5,$A5,$A5,$A5,$95                  ; $3870
    24 3878 6A 6A AA AA 6B 5A +     .byte $6A,$6A,$AA,$AA,$6B,$5A,$56,$55                  ; $3878
    25 3880 E9 F9 E9 E5 A5 A5 +     .byte $E9,$F9,$E9,$E5,$A5,$A5,$A5,$95                  ; $3880
    26 3888 D5 D5 75 5D 57 55 +     .byte $D5,$D5,$75,$5D,$57,$55,$55,$55                  ; $3888
    27 3890 5D 5F 5D 75 75 7D +     .byte $5D,$5F,$5D,$75,$75,$7D,$77,$D5                  ; $3890
    28 3898 D5 D5 55 55 55 55 +     .byte $D5,$D5,$55,$55,$55,$55,$55,$55                  ; $3898
    29 38A0 02 02 00 00 00 00 +     .byte $02,$02,$00,$00,$00,$00,$00,$00                  ; $38A0
    30 38A8 80 80 00 00 00 00 +     .byte $80,$80,$00,$00,$00,$00,$00,$00                  ; $38A8
    31 38B0 AA AA AA AA A8 A0 +     .byte $AA,$AA,$AA,$AA,$A8,$A0,$A0,$80                  ; $38B0
    32 38B8 03 00 00 03 00 00 +     .byte $03,$00,$00,$03,$00,$00,$C3,$FF                  ; $38B8
    33 38C0 C0 00 00 C0 00 00 +     .byte $C0,$00,$00,$C0,$00,$00,$C3,$FF                  ; $38C0
    34 38C8 CF 03 00 00 03 00 +     .byte $CF,$03,$00,$00,$03,$00,$00,$03                  ; $38C8
    35 38D0 F3 C0 00 00 C0 00 +     .byte $F3,$C0,$00,$00,$C0,$00,$00,$C0                  ; $38D0
    36 38D8 AA AA A0 00 0C 00 +     .byte $AA,$AA,$A0,$00,$0C,$00,$00,$00                  ; $38D8
    37 38E0 AA AA 0A 00 30 00 +     .byte $AA,$AA,$0A,$00,$30,$00,$00,$00                  ; $38E0
    38 38E8 33 00 0C 00 30 0A +     .byte $33,$00,$0C,$00,$30,$0A,$AA,$AA                  ; $38E8
    39 38F0 CC 00 30 00 0C A0 +     .byte $CC,$00,$30,$00,$0C,$A0,$AA,$AA                  ; $38F0
    40 38F8 03 00 0C 00 30 02 +     .byte $03,$00,$0C,$00,$30,$02,$C2,$02                  ; $38F8
    41 3900 C0 00 30 00 0C 80 +     .byte $C0,$00,$30,$00,$0C,$80,$83,$80                  ; $3900
    42 3908 AA AA A9 A9 A9 A9 +     .byte $AA,$AA,$A9,$A9,$A9,$A9,$A5,$A5                  ; $3908
    43 3910 A5 A5 95 95 95 95 +     .byte $A5,$A5,$95,$95,$95,$95,$55,$55                  ; $3910
    44 3918 AA AA 6A 6A 6A 6A +     .byte $AA,$AA,$6A,$6A,$6A,$6A,$5A,$5A                  ; $3918
    45 3920 5A 5A 56 56 56 56 +     .byte $5A,$5A,$56,$56,$56,$56,$55,$55                  ; $3920
    46 3928 80 00 00 00 00 00 +     .byte $80,$00,$00,$00,$00,$00,$00,$00                  ; $3928
    47 3930 00 00 00 00 00 00 +     .byte $00,$00,$00,$00,$00,$00,$80,$A8                  ; $3930
    48 3938 AA AA AA AA AA AA +     .byte $AA,$AA,$AA,$AA,$AA,$AA,$AA,$A8                  ; $3938
    49 3940 AA AA AA AA AA AA +     .byte $AA,$AA,$AA,$AA,$AA,$AA,$AA,$00                  ; $3940
    50 3948 AA 96 7D 7D 7D 7D +     .byte $AA,$96,$7D,$7D,$7D,$7D,$96,$AA                  ; $3948
    51 3950 2A 2A 2A 2A 2A 2A +     .byte $2A,$2A,$2A,$2A,$2A,$2A,$2A,$2A                  ; $3950
    52 3958 2A 2A 2A 2A 2A 2A +     .byte $2A,$2A,$2A,$2A,$2A,$2A,$AA,$AA                  ; $3958
    53 3960 AA 2A 2A 2A 2A 2A +     .byte $AA,$2A,$2A,$2A,$2A,$2A,$2A,$2A                  ; $3960
    54 3968 00 00 00 00 00 00 +     .byte $00,$00,$00,$00,$00,$00,$00,$0A                  ; $3968
    55 3970 00 00 C0 C0 C0 C0 +     .byte $00,$00,$C0,$C0,$C0,$C0,$00,$00                  ; $3970
    56 3978 00 C0 C0 C0 C0 00 +     .byte $00,$C0,$C0,$C0,$C0,$00,$00,$0F                  ; $3978
    57 3980 00 00 00 00 00 00 +     .byte $00,$00,$00,$00,$00,$00,$00,$FC                  ; $3980
    58 3988 00 00 00 00 00 00 +     .byte $00,$00,$00,$00,$00,$00,$00,$C0                  ; $3988
    59 3990 55 54 54 50 50 40 +     .byte $55,$54,$54,$50,$50,$40,$40,$00                  ; $3990
    60 3998 55 15 15 05 05 01 +     .byte $55,$15,$15,$05,$05,$01,$01,$00                  ; $3998
    61 39A0 75 FD FD 75 55 55 +     .byte $75,$FD,$FD,$75,$55,$55,$55,$55                  ; $39A0
    62 39A8 55 55 55 55 57 5F +     .byte $55,$55,$55,$55,$57,$5F,$5F,$57                  ; $39A8
    63 39B0 55 55 55 55 55 D5 +     .byte $55,$55,$55,$55,$55,$D5,$D5,$55                  ; $39B0
    64 39B8 57 5F 5F 57 55 55 +     .byte $57,$5F,$5F,$57,$55,$55,$55,$55                  ; $39B8
    65 39C0 55 D5 D5 55 55 55 +     .byte $55,$D5,$D5,$55,$55,$55,$55,$55                  ; $39C0
    66 39C8 D7 F7 F7 FF DF DF +     .byte $D7,$F7,$F7,$FF,$DF,$DF,$D7,$55                  ; $39C8
    67 39D0 57 57 57 57 57 57 +     .byte $57,$57,$57,$57,$57,$57,$D7,$D5                  ; $39D0
    68 39D8 5D DD DD FD 7D 7D +     .byte $5D,$DD,$DD,$FD,$7D,$7D,$5D,$55                  ; $39D8
    69 39E0 5D 5F 5F 5F 5D 5D +     .byte $5D,$5F,$5F,$5F,$5D,$5D,$5D,$55                  ; $39E0
    70 39E8 75 75 75 F5 F5 F5 +     .byte $75,$75,$75,$F5,$F5,$F5,$75,$55                  ; $39E8
    71 39F0 75 7D 7D 7F 77 77 +     .byte $75,$7D,$7D,$7F,$77,$77,$75,$55                  ; $39F0
    72 39F8 D5 D5 D5 D5 D5 D5 +     .byte $D5,$D5,$D5,$D5,$D5,$D5,$D7,$57                  ; $39F8
    73 3A00 A0 A0 A0 A0 A0 A0 +     .byte $A0,$A0,$A0,$A0,$A0,$A0,$A0,$A0                  ; $3A00
    74 3A08 0F 0A 0A 0A 0E 0A +     .byte $0F,$0A,$0A,$0A,$0E,$0A,$0A,$0A                  ; $3A08
    75 3A10 6E 6E AE AE 6B 5A +     .byte $6E,$6E,$AE,$AE,$6B,$5A,$56,$55                  ; $3A10
    76 3A18 56 56 5A 5A 5A 5A +     .byte $56,$56,$5A,$5A,$5A,$5A,$6A,$6A                  ; $3A18
    77 3A20 55 95 A5 B9 BA EA +     .byte $55,$95,$A5,$B9,$BA,$EA,$EA,$E9                  ; $3A20
    78 3A28 56 56 5A 5A 5B 5A +     .byte $56,$56,$5A,$5A,$5B,$5A,$6A,$6A                  ; $3A28
    79 3A30 55 95 A5 E9 BA BA +     .byte $55,$95,$A5,$E9,$BA,$BA,$BA,$B9                  ; $3A30
    80 3A38 56 56 5A 5B 5B 5B +     .byte $56,$56,$5A,$5B,$5B,$5B,$6E,$6B                  ; $3A38
    81 3A40 55 95 A5 E9 BA AE +     .byte $55,$95,$A5,$E9,$BA,$AE,$AA,$A9                  ; $3A40
    82 3A48 56 56 5A 5A 5B 5A +     .byte $56,$56,$5A,$5A,$5B,$5A,$6A,$6B                  ; $3A48
    83 3A50 55 95 A5 A9 FA AE +     .byte $55,$95,$A5,$A9,$FA,$AE,$AA,$A9                  ; $3A50
    84 3A58 56 56 5A 5A 5A 5B +     .byte $56,$56,$5A,$5A,$5A,$5B,$6B,$6E                  ; $3A58
    85 3A60 56 56 5A 5A 5B 5B +     .byte $56,$56,$5A,$5A,$5B,$5B,$6B,$6B                  ; $3A60
    86 3A68 56 56 5A 5A 5A 5A +     .byte $56,$56,$5A,$5A,$5A,$5A,$6A,$6A                  ; $3A68
    87 3A70 55 95 A5 E9 BA AE +     .byte $55,$95,$A5,$E9,$BA,$AE,$AE,$B9                  ; $3A70
    88 3A78 56 56 5B 5B 5B 5B +     .byte $56,$56,$5B,$5B,$5B,$5B,$6E,$6B                  ; $3A78
    89 3A80 55 95 A5 A9 BA BA +     .byte $55,$95,$A5,$A9,$BA,$BA,$BA,$B9                  ; $3A80
    90 3A88 56 56 5A 5A 5B 5B +     .byte $56,$56,$5A,$5A,$5B,$5B,$6B,$6E                  ; $3A88
    91 3A90 DD DD 5D 5D 55 55 +     .byte $DD,$DD,$5D,$5D,$55,$55,$55,$55                  ; $3A90
    92 3A98 55 55 D5 75 55 55 +     .byte $55,$55,$D5,$75,$55,$55,$55,$55                  ; $3A98
    93 3AA0 55 55 D5 D5 D5 D5 +     .byte $55,$55,$D5,$D5,$D5,$D5,$55,$55                  ; $3AA0
    94 3AA8 AA AA A0 00 00 03 +     .byte $AA,$AA,$A0,$00,$00,$03,$00,$00                  ; $3AA8
    95 3AB0 AA AA 0A 00 00 C0 +     .byte $AA,$AA,$0A,$00,$00,$C0,$00,$00                  ; $3AB0
    96 3AB8 AA AA AA AA 2A 0A +     .byte $AA,$AA,$AA,$AA,$2A,$0A,$0A,$02                  ; $3AB8
    97 3AC0 AA AE BB BF BB BB +     .byte $AA,$AE,$BB,$BF,$BB,$BB,$AA,$AA                  ; $3AC0
    98 3AC8 AA BF BA BE BA BF +     .byte $AA,$BF,$BA,$BE,$BA,$BF,$AA,$AA                  ; $3AC8
    99 3AD0 0A 0A 2A AA AA AA +     .byte $0A,$0A,$2A,$AA,$AA,$AA,$AA,$AA                  ; $3AD0
   100 3AD8 00 00 C0 00 00 0A +     .byte $00,$00,$C0,$00,$00,$0A,$AA,$AA                  ; $3AD8
   101 3AE0 00 00 03 00 00 A0 +     .byte $00,$00,$03,$00,$00,$A0,$AA,$AA                  ; $3AE0
   102 3AE8 A0 A0 A8 AA AA AA +     .byte $A0,$A0,$A8,$AA,$AA,$AA,$AA,$AA                  ; $3AE8
   103 3AF0 00 00 00 00 00 02 +     .byte $00,$00,$00,$00,$00,$02,$02,$02                  ; $3AF0
   104 3AF8 00 00 00 00 00 80 +     .byte $00,$00,$00,$00,$00,$80,$80,$80                  ; $3AF8
   105 3B00 D7 D7 D7 D7 FF FF +     .byte $D7,$D7,$D7,$D7,$FF,$FF,$D7,$55                  ; $3B00
   106 3B08 5D 5D 5D 5D FD FD +     .byte $5D,$5D,$5D,$5D,$FD,$FD,$5D,$55                  ; $3B08
   107 3B10 5D 5D 5D 5D 5F 5F +     .byte $5D,$5D,$5D,$5D,$5F,$5F,$5D,$55                  ; $3B10
   108 3B18 75 75 75 75 F5 F5 +     .byte $75,$75,$75,$75,$F5,$F5,$75,$55                  ; $3B18
   109 3B20 75 75 75 75 7F 7F +     .byte $75,$75,$75,$75,$7F,$7F,$75,$55                  ; $3B20
   110 3B28 AA BB BB BF BB BB +     .byte $AA,$BB,$BB,$BF,$BB,$BB,$AA,$AA                  ; $3B28
   111 3B30 7D D7 D5 7D 57 D7 +     .byte $7D,$D7,$D5,$7D,$57,$D7,$7D,$55                  ; $3B30
   112 3B38 55 57 57 55 55 57 +     .byte $55,$57,$57,$55,$55,$57,$D5,$D5                  ; $3B38
   113 3B40 F5 5D 55 F5 5D 5D +     .byte $F5,$5D,$55,$F5,$5D,$5D,$F5,$55                  ; $3B40
   114 3B48 57 5D 5D 57 55 5D +     .byte $57,$5D,$5D,$57,$55,$5D,$57,$55                  ; $3B48
   115 3B50 D5 75 55 D5 75 75 +     .byte $D5,$75,$55,$D5,$75,$75,$D5,$55                  ; $3B50
   116 3B58 5F 75 75 5F 55 75 +     .byte $5F,$75,$75,$5F,$55,$75,$5F,$55                  ; $3B58
   117 3B60 55 D5 55 55 D5 D5 +     .byte $55,$D5,$55,$55,$D5,$D5,$57,$57                  ; $3B60
   118 3B68 FF D5 D5 FD D5 D5 +     .byte $FF,$D5,$D5,$FD,$D5,$D5,$FF,$55                  ; $3B68
   119 3B70 FD 55 55 F5 55 55 +     .byte $FD,$55,$55,$F5,$55,$55,$FD,$55                  ; $3B70
   120 3B78 5F 5D 5D 5F 5D 5D +     .byte $5F,$5D,$5D,$5F,$5D,$5D,$5F,$55                  ; $3B78
   121 3B80 F5 55 55 D5 55 55 +     .byte $F5,$55,$55,$D5,$55,$55,$F5,$55                  ; $3B80
   122 3B88 7F 75 75 7F 75 75 +     .byte $7F,$75,$75,$7F,$75,$75,$7F,$55                  ; $3B88
   123 3B90 D5 55 55 55 55 55 +     .byte $D5,$55,$55,$55,$55,$55,$D7,$57                  ; $3B90
   124 3B98 55 55 55 55 55 55 +     .byte $55,$55,$55,$55,$55,$55,$5D,$5D                  ; $3B98
   125 3BA0 55 55 55 55 55 7D +     .byte $55,$55,$55,$55,$55,$7D,$7D,$7D                  ; $3BA0
   126 3BA8 AA AA AA AA AA AA +     .byte $AA,$AA,$AA,$AA,$AA,$AA,$AA,$AA                  ; $3BA8
   127 3BB0 55 55 55 55 55 55 +     .byte $55,$55,$55,$55,$55,$55,$75,$75                  ; $3BB0
   128 3BB8 55 55 55 55 55 F5 +     .byte $55,$55,$55,$55,$55,$F5,$F5,$F5                  ; $3BB8
   129 3BC0 55 55 55 55 55 57 +     .byte $55,$55,$55,$55,$55,$57,$D7,$D7                  ; $3BC0
   130 3BC8 55 55 55 55 55 D5 +     .byte $55,$55,$55,$55,$55,$D5,$D7,$D7                  ; $3BC8
   131 3BD0 AA AA AA AA AA AA +     .byte $AA,$AA,$AA,$AA,$AA,$AA,$AA,$0A                  ; $3BD0
   132 3BD8 55 55 55 55 55 5F +     .byte $55,$55,$55,$55,$55,$5F,$5F,$5F                  ; $3BD8
   133 3BE0 AA BA BA BA BA BF +     .byte $AA,$BA,$BA,$BA,$BA,$BF,$AA,$AA                  ; $3BE0
   134 3BE8 AA BE BB BE BE BB +     .byte $AA,$BE,$BB,$BE,$BE,$BB,$AA,$AA                  ; $3BE8
   135 3BF0 33 00 00 00 30 00 +     .byte $33,$00,$00,$00,$30,$00,$00,$00                  ; $3BF0
   136 3BF8 CC 00 00 00 0C 00 +     .byte $CC,$00,$00,$00,$0C,$00,$00,$00                  ; $3BF8
    16
    17 				; === Segment 2: $3C00-$52E6 Game code + data: init, title screen, input, display lists ===
    18 3C00 00 3C E6 52		    org [a($3C00),a($52E6)],$3C00
    19 3C00			    icl 'seg_02_3C00.asm'
Source: seg_02_3C00.asm
     1 				; =============================================================
     2 				; Segment 2: $3C00-$52E6 — Game code + data: init, title screen, input, display lists
     3 				; =============================================================
     4 				; XEX load range: $3C00-$52E6 (5863 bytes)
     5
     6 3C00			    org $3C00
     7
     8 3C00			game_start:
     9 3C00 A9 00		    lda #$00
    10 3C02 A0 07		    ldy #$07
    11 3C04			loc_3C04:
    12 3C04 99 00 06		    sta $0600,y
    13 3C07 88			    dey
    14 3C08 10 FA		    bpl loc_3C04
    15 3C0A 20 BD 52		    jsr clear_mem
    16 3C0D A9 00		    lda #$00
    17 3C0F 8D 54 06		    sta $0654
    18 3C12 8D 1B 06		    sta $061B
    19 3C15 8D 40 07		    sta $0740
    20 3C18 8D 1C 06		    sta $061C
    21 3C1B 8D 1E 06		    sta $061E
    22 				    ; Disable IRQ for vector setup
    23 3C1E 78			    sei
    24 				    ; Set VIMIRQ = 940 (custom IRQ handler)
    25 3C1F A9 40		    lda #$40
    26 3C21 8D 16 02		    sta VIMIRQ
    27 3C24 A9 49		    lda #$49
    28 3C26 8D 17 02		    sta $0217
    29 3C29 20 BD 90		    jsr init_sound
    30 3C2C A9 0D		    lda #$0D
    31 3C2E 85 0C		    sta DOSINI
    32 3C30 A9 3C		    lda #$3C
    33 3C32 85 0D		    sta $0D
    34 3C34			loc_3C34:
    35 3C34 A9 00		    lda #$00
    36 3C36 8D 2F 02		    sta SDMCTL
    37 3C39 8D 1D D0		    sta GRACTL
    38 3C3C 8D C8 02		    sta COLOR4
    39 3C3F 20 42 7B		    jsr setup_display
    40 				    ; Set VVBLKI = 40A (title screen VBI)
    41 3C42 A9 0A		    lda #$0A
    42 3C44 8D 22 02		    sta VVBLKI
    43 3C47 A9 84		    lda #$84
    44 3C49 8D 23 02		    sta $0223
    45 3C4C 20 4A 7B		    jsr enable_display
    46 				    ; Set DLIST = 1D5 (title screen display list)
    47 3C4F A9 D5		    lda #$D5
    48 3C51 8D 02 D4		    sta DLISTL
    49 3C54 A9 41		    lda #$41
    50 3C56 8D 03 D4		    sta DLISTH
    51 3C59 A9 00		    lda #$00
    52 3C5B 85 4D		    sta ATRACT
    53 3C5D 85 DD		    sta $DD
    54 3C5F 8D 44 02		    sta COLDST
    55 3C62 85 A7		    sta $A7
    56 3C64 85 C8		    sta $C8
    57 3C66 A0 24		    ldy #$24
    58 3C68			loc_3C68:
    59 3C68 88			    dey
    60 3C69 99 1F 06		    sta $061F,y
    61 3C6C D0 FA		    bne loc_3C68
    62 				    ; PMBASE = /bin/bash8 (player-missile data at /bin/bash800)
    63 3C6E A9 08		    lda #$08
    64 3C70 8D 07 D4		    sta PMBASE
    65 				    ; CHBASE =  (ROM charset)
    66 3C73 A9 E0		    lda #$E0
    67 3C75 8D 09 D4		    sta CHBASE
    68 				    ; SKCTL = /bin/bash3 (enable keyboard scan)
    69 3C78 A9 03		    lda #$03
    70 3C7A 8D 0F D2		    sta SKCTL
    71 3C7D 20 80 7C		    jsr init_game
    72 3C80 A9 00		    lda #$00
    73 3C82 85 C2		    sta $C2
    74 3C84 A9 10		    lda #$10
    75 3C86 85 C3		    sta $C3
    76 3C88 A9 FF		    lda #$FF
    77 3C8A 85 C4		    sta $C4
    78 3C8C A9 1F		    lda #$1F
    79 3C8E 85 C5		    sta $C5
    80 3C90 20 D7 7C		    jsr sub_7CD7
    81 3C93 20 42 80		    jsr sub_8042
    82 3C96 20 0E 80		    jsr sub_800E
    83 3C99 20 27 7D		    jsr sub_7D27
    84 3C9C A9 E7		    lda #$E7
    85 3C9E 85 BC		    sta $BC
    86 3CA0 A9 50		    lda #$50
    87 3CA2 85 BD		    sta $BD
    88 3CA4 A9 0D		    lda #$0D
    89 3CA6 85 BE		    sta $BE
    90 3CA8 A9 35		    lda #$35
    91 3CAA 85 BF		    sta $BF
    92 3CAC 20 18 7D		    jsr sub_7D18
    93 3CAF 20 F9 7E		    jsr sub_7EF9
    94 3CB2 A9 C0		    lda #$C0
    95 3CB4 8D 0E D2		    sta IRQEN
    96 3CB7 20 66 40		    jsr sub_4066
    97 3CBA			loc_3CBA:
    98 3CBA AD 1F D0		    lda CONSOL
    99 3CBD 29 01		    and #$01
   100 3CBF F0 F9		    beq loc_3CBA
   101 3CC1 20 7C 45		    jsr sub_457F
   102 3CC4 A0 09		    ldy #$09
   103 3CC6 20 EA 46		    jsr sub_46ED
   104 3CC9 20 20 49		    jsr sub_4923
   105 3CCC A9 08		    lda #$08
   106 3CCE 20 69 47		    jsr sub_476C
   107 3CD1 A9 2C		    lda #$2C
   108 3CD3 8D C6 02		    sta COLOR2
   109 3CD6 A9 26		    lda #$26
   110 3CD8 8D C7 02		    sta COLOR3
   111 3CDB A0 08		    ldy #$08
   112 3CDD			loc_3CDD:
   113 3CDD B9 05 52		    lda $5205,y
   114 3CE0 99 D0 00		    sta $00D0,y
   115 3CE3 88			    dey
   116 3CE4 10 F7		    bpl loc_3CDD
   117 3CE6 A9 80		    lda #$80
   118 3CE8 A0 04		    ldy #$04
   119 3CEA			loc_3CEA:
   120 3CEA 88			    dey
   121 3CEB 99 43 06		    sta $0643,y
   122 3CEE D0 FA		    bne loc_3CEA
   123 3CF0 8D 6A 06		    sta $066A
   124 3CF3 8D 6B 06		    sta $066B
   125 3CF6 20 27 43		    jsr sub_432A
   126 3CF9 A9 A0		    lda #$A0
   127 3CFB 8D 65 06		    sta $0665
   128 3CFE 8D 6C 06		    sta $066C
   129 3D01 8D 6D 06		    sta $066D
   130 3D04 A2 1F		    ldx #$1F
   131 3D06 20 B1 94		    jsr sub_94B1
   132 3D09 E8			    inx
   133 3D0A 20 B1 94		    jsr sub_94B1
   134 3D0D A9 02		    lda #$02
   135 3D0F 8D 42 06		    sta $0642
   136 3D12 A9 C0		    lda #$C0
   137 3D14 8D 0E D4		    sta NMIEN
   138 3D17 8D 12 06		    sta $0612
   139 3D1A A9 0D		    lda #$0D
   140 3D1C 8D 57 31		    sta $3157
   141 3D1F A9 35		    lda #$35
   142 3D21 8D 58 31		    sta $3158
   143 3D24			loc_3D24:
   144 3D24 20 E7 52		    jsr level_setup
   145 3D27 A9 2A		    lda #$2A
   146 3D29 20 58 40		    jsr sub_4058
   147 3D2C 20 AF 7D		    jsr wait_1_frame
   148 3D2F A9 0D		    lda #$0D
   149 3D31 8D 57 31		    sta $3157
   150 3D34 A9 35		    lda #$35
   151 3D36 8D 58 31		    sta $3158
   152 3D39 A9 00		    lda #$00
   153 3D3B 85 B8		    sta $B8
   154 3D3D 85 A7		    sta $A7
   155 3D3F 8D AC 28		    sta $28AC
   156 3D42 20 AA 7C		    jsr clear_screen
   157 3D45 20 BB 48		    jsr sub_48BE
   158 3D48 20 91 5F		    jsr sub_5F91
   159 3D4B 20 F5 7C		    jsr sub_7CF5
   160 3D4E A9 37		    lda #$37
   161 3D50 85 C2		    sta $C2
   162 3D52 A9 28		    lda #$28
   163 3D54 85 C3		    sta $C3
   164 3D56 A9 B8		    lda #$B8
   165 3D58 85 C4		    sta $C4
   166 3D5A A9 00		    lda #$00
   167 3D5C 85 C5		    sta $C5
   168 3D5E 20 D7 7C		    jsr sub_7CD7
   169 3D61 A9 31		    lda #$31
   170 3D63 85 C2		    sta $C2
   171 3D65 A9 0B		    lda #$0B
   172 3D67 85 C3		    sta $C3
   173 3D69 A9 56		    lda #$56
   174 3D6B 85 C4		    sta $C4
   175 3D6D A9 00		    lda #$00
   176 3D6F 85 C5		    sta $C5
   177 3D71 20 42 7B		    jsr setup_display
   178 3D74 A9 59		    lda #$59
   179 3D76 8D 22 02		    sta VVBLKI
   180 3D79 A9 80		    lda #$80
   181 3D7B 8D 23 02		    sta $0223
   182 3D7E 20 D7 7C		    jsr sub_7CD7
   183 3D81 A9 11		    lda #$11
   184 3D83 8D 6F 02		    sta GPRIOR
   185 3D86 20 08 49		    jsr sub_490B
   186 3D89 20 4A 7B		    jsr enable_display
   187 3D8C A9 F1		    lda #$F1
   188 3D8E 8D 00 02		    sta VDSLST
   189 3D91 A9 4C		    lda #$4C
   190 3D93 8D 01 02		    sta $0201
   191 3D96 A9 6B		    lda #$6B
   192 3D98 8D 02 D4		    sta DLISTL
   193 3D9B A9 31		    lda #$31
   194 3D9D 8D 03 D4		    sta DLISTH
   195 3DA0 A9 40		    lda #$40
   196 3DA2 8D 04 D0		    sta HPOSM0
   197 3DA5 20 75 42		    jsr sub_4278
   198 3DA8 AD 21 06		    lda $0621
   199 3DAB D0 06		    bne loc_3DB3
   200 3DAD 20 3C 84		    jsr init_terrain
   201 3DB0 20 52 7B		    jsr sub_7B52
   202 3DB3			loc_3DB3:
   203 3DB3 A9 60		    lda #$60
   204 3DB5 85 C2		    sta $C2
   205 3DB7 A9 10		    lda #$10
   206 3DB9 85 C4		    sta $C4
   207 3DBB A9 10		    lda #$10
   208 3DBD 85 C5		    sta $C5
   209 3DBF 20 0A 7B		    jsr build_line_table
   210 3DC2 20 2D 7B		    jsr sub_7B2D
   211 3DC5 AD 1C 06		    lda $061C
   212 3DC8 D0 05		    bne loc_3DCF
   213 3DCA A9 02		    lda #$02
   214 3DCC 4C D1 3D		    jmp loc_3DD1
   215 3DCF			loc_3DCF:
   216 3DCF A9 01		    lda #$01
   217 3DD1			loc_3DD1:
   218 3DD1 8D 26 06		    sta $0626
   219 3DD4			loc_3DD4:
   220 3DD4 20 8C 9E		    jsr transform_vertices
   221 3DD7 A2 33		    ldx #$33
   222 3DD9 20 3E AE		    jsr sub_AE3E
   223 3DDC A2 30		    ldx #$30
   224 3DDE 20 56 A3		    jsr render_terrain
   225 3DE1 A2 33		    ldx #$33
   226 3DE3 20 32 AF		    jsr fill_column_fast
   227 3DE6 AD AC 28		    lda $28AC
   228 3DE9 8D A8 28		    sta $28A8
   229 3DEC 20 2F AA		    jsr sub_AA2F
   230 3DEF A9 02		    lda #$02
   231 3DF1 85 A7		    sta $A7
   232 3DF3 AD 34 06		    lda $0634
   233 3DF6 F0 03		    beq loc_3DFB
   234 3DF8 4C 1A 3F		    jmp loc_3F1A
   235 3DFB			loc_3DFB:
   236 3DFB AD 25 06		    lda $0625
   237 3DFE C9 0E		    cmp #$0E
   238 3E00 B0 15		    bcs loc_3E17
   239 3E02 AD 1C 06		    lda $061C
   240 3E05 F0 06		    beq loc_3E0D
   241 3E07 20 39 65		    jsr sub_6539
   242 3E0A 4C 17 3E		    jmp loc_3E17
   243 3E0D			loc_3E0D:
   244 3E0D AD 82 28		    lda $2882
   245 3E10 C9 01		    cmp #$01
   246 3E12 D0 03		    bne loc_3E17
   247 3E14 20 A9 65		    jsr sub_65A9
   248 3E17			loc_3E17:
   249 3E17 AD 29 06		    lda $0629
   250 3E1A F0 03		    beq loc_3E1F
   251 3E1C 20 A9 64		    jsr sub_64A9
   252 3E1F			loc_3E1F:
   253 3E1F 20 8C 9E		    jsr transform_vertices
   254 3E22 A2 03		    ldx #$03
   255 3E24 20 3E AE		    jsr sub_AE3E
   256 3E27 A2 00		    ldx #$00
   257 3E29 20 56 A3		    jsr render_terrain
   258 3E2C A2 03		    ldx #$03
   259 3E2E 20 32 AF		    jsr fill_column_fast
   260 3E31 AD AC 28		    lda $28AC
   261 3E34 F0 03		    beq loc_3E39
   262 3E36 8D A8 28		    sta $28A8
   263 3E39			loc_3E39:
   264 3E39 20 2F AA		    jsr sub_AA2F
   265 3E3C AD 34 06		    lda $0634
   266 3E3F F0 03		    beq loc_3E44
   267 3E41 4C 1A 3F		    jmp loc_3F1A
   268 3E44			loc_3E44:
   269 3E44 AD A7 28		    lda $28A7
   270 3E47 F0 08		    beq loc_3E51
   271 3E49 AD A6 28		    lda $28A6
   272 3E4C F0 03		    beq loc_3E51
   273 3E4E 20 AB 62		    jsr sub_62AB
   274 3E51			loc_3E51:
   275 3E51 AD A6 28		    lda $28A6
   276 3E54 8D A7 28		    sta $28A7
   277 3E57 AD A8 28		    lda $28A8
   278 3E5A D0 06		    bne loc_3E62
   279 3E5C AD A5 28		    lda $28A5
   280 3E5F 4C 64 3E		    jmp loc_3E64
   281 3E62			loc_3E62:
   282 3E62 A9 00		    lda #$00
   283 3E64			loc_3E64:
   284 3E64 8D A6 28		    sta $28A6
   285 3E67 A9 01		    lda #$01
   286 3E69 85 A7		    sta $A7
   287 3E6B CD A5 28		    cmp $28A5
   288 3E6E F0 3B		    beq loc_3EAB
   289 3E70 AE 5F 06		    ldx $065F
   290 3E73 E0 02		    cpx #$02
   291 3E75 F0 34		    beq loc_3EAB
   292 3E77 AD A4 28		    lda $28A4
   293 3E7A F0 27		    beq loc_3EA3
   294 3E7C A2 3A		    ldx #$3A
   295 3E7E A9 02		    lda #$02
   296 3E80 8D A4 28		    sta $28A4
   297 3E83 AD A9 28		    lda $28A9
   298 3E86 10 05		    bpl loc_3E8D
   299 3E88 A0 A8		    ldy #$A8
   300 3E8A 4C 9D 3E		    jmp loc_3E9D
   301 3E8D			loc_3E8D:
   302 3E8D C9 08		    cmp #$08
   303 3E8F 90 07		    bcc loc_3E98
   304 3E91 A2 1A		    ldx #$1A
   305 3E93 A0 A7		    ldy #$A7
   306 3E95 4C 9D 3E		    jmp loc_3E9D
   307 3E98			loc_3E98:
   308 3E98 A0 86		    ldy #$86
   309 3E9A EE A4 28		    inc $28A4
   310 3E9D			loc_3E9D:
   311 3E9D 8E 37 06		    stx $0637
   312 3EA0 8C 35 06		    sty $0635
   313 3EA3			loc_3EA3:
   314 3EA3 AD 29 06		    lda $0629
   315 3EA6 F0 03		    beq loc_3EAB
   316 3EA8 20 A9 64		    jsr sub_64A9
   317 3EAB			loc_3EAB:
   318 3EAB AE 5F 06		    ldx $065F
   319 3EAE E0 02		    cpx #$02
   320 3EB0 F0 03		    beq loc_3EB5
   321 3EB2 4C D4 3D		    jmp loc_3DD4
   322 3EB5			loc_3EB5:
   323 3EB5 A9 03		    lda #$03
   324 3EB7 8D 26 06		    sta $0626
   325 3EBA A0 80		    ldy #$80
   326 3EBC 8C F4 28		    sty $28F4
   327 3EBF 8C F5 28		    sty $28F5
   328 3EC2 AD A0 28		    lda $28A0
   329 3EC5 C9 40		    cmp #$40
   330 3EC7 B0 03		    bcs loc_3ECC
   331 3EC9 4C D4 3D		    jmp loc_3DD4
   332 3ECC			loc_3ECC:
   333 3ECC AD 3F 28		    lda $283F
   334 3ECF 10 FB		    bpl loc_3ECC
   335 3ED1 8C 43 06		    sty $0643
   336 3ED4 A9 00		    lda #$00
   337 3ED6 8D 3C 06		    sta $063C
   338 3ED9 8D 41 06		    sta $0641
   339 3EDC 20 C1 7D		    jsr wait_10_frames
   340 3EDF 8D 26 06		    sta $0626
   341 3EE2 20 9C 7D		    jsr wait_frames
   342 3EE5 A0 A2		    ldy #$A2
   343 3EE7			loc_3EE7:
   344 3EE7 99 1E 0F		    sta $0F1E,y
   345 3EEA 88			    dey
   346 3EEB 10 FA		    bpl loc_3EE7
   347 3EED A0 1E		    ldy #$1E
   348 3EEF			loc_3EEF:
   349 3EEF 99 8F 0E		    sta $0E8F,y
   350 3EF2 88			    dey
   351 3EF3 10 FA		    bpl loc_3EEF
   352 3EF5 A5 DF		    lda $DF
   353 3EF7 C9 4E		    cmp #$4E
   354 3EF9 D0 04		    bne loc_3EFF
   355 3EFB A9 46		    lda #$46
   356 3EFD 85 DF		    sta $DF
   357 3EFF			loc_3EFF:
   358 3EFF 20 20 49		    jsr sub_4923
   359 3F02 A5 DE		    lda $DE
   360 3F04 8D AC 28		    sta $28AC
   361 3F07 8D 12 06		    sta $0612
   362 3F0A 20 58 40		    jsr sub_4058
   363 3F0D A9 00		    lda #$00
   364 3F0F A0 03		    ldy #$03
   365 3F11 99 6D 06		    sta $066D,y
   366 3F14 20 90 92		    jsr sub_9290
   367 3F17 4C 24 3D		    jmp loc_3D24
   368 3F1A			loc_3F1A:
   369 3F1A A9 80		    lda #$80
   370 3F1C 8D 43 06		    sta $0643
   371 3F1F 20 BD 90		    jsr init_sound
   372 3F22 A9 00		    lda #$00
   373 3F24 8D 26 06		    sta $0626
   374 3F27 8D 77 28		    sta $2877
   375 3F2A 85 CD		    sta $CD
   376 3F2C 85 C2		    sta $C2
   377 3F2E A9 3C		    lda #$3C
   378 3F30 85 C4		    sta $C4
   379 3F32 A9 20		    lda #$20
   380 3F34 85 C3		    sta $C3
   381 3F36			loc_3F36:
   382 3F36 20 97 3F		    jsr sub_3F97
   383 3F39 D0 03		    bne loc_3F3E
   384 3F3B 20 31 40		    jsr sub_4031
   385 3F3E			loc_3F3E:
   386 3F3E 10 03		    bpl loc_3F43
   387 3F40 20 43 40		    jsr sub_4043
   388 3F43			loc_3F43:
   389 3F43 A6 C3		    ldx $C3
   390 3F45 E0 2B		    cpx #$2B
   391 3F47 D0 ED		    bne loc_3F36
   392 3F49			loc_3F49:
   393 3F49 A0 00		    ldy #$00
   394 3F4B 8C 00 D4		    sty DMACTL
   395 3F4E 20 AA 7D		    jsr wait_60_frames
   396 3F51			loc_3F51:
   397 3F51 CE 7A 06		    dec $067A
   398 3F54 A0 0D		    ldy #$0D
   399 3F56 8A			    txa
   400 3F57 48			    pha
   401 3F58 20 90 92		    jsr sub_9290
   402 3F5B 68			    pla
   403 3F5C AA			    tax
   404 3F5D 86 D5		    stx FR0M
   405 3F5F 20 B7 7D		    jsr wait_2_frames
   406 3F62 CA			    dex
   407 3F63 E0 1F		    cpx #$1F
   408 3F65 D0 EA		    bne loc_3F51
   409 3F67 A9 00		    lda #$00
   410 3F69 85 D5		    sta FR0M
   411 3F6B 8D 1E 06		    sta $061E
   412 3F6E 20 61 96		    jsr sub_9661
   413 3F71 20 AA 7D		    jsr wait_60_frames
   414 3F74 4C 34 3C		    jmp loc_3C34
   415 3F77			loc_3F77:
   416 3F77 A9 00		    lda #$00
   417 3F79 85 C2		    sta $C2
   418 3F7B A9 34		    lda #$34
   419 3F7D 8D 55 33		    sta $3355
   420 3F80 A9 1E		    lda #$1E
   421 3F82 85 C4		    sta $C4
   422 3F84			loc_3F84:
   423 3F84 20 97 3F		    jsr sub_3F97
   424 3F87 D0 FB		    bne loc_3F84
   425 3F89 A9 00		    lda #$00
   426 3F8B 8D AC 28		    sta $28AC
   427 3F8E AD 34 06		    lda $0634
   428 3F91 F0 03		    beq loc_3F96
   429 3F93 4C 1A 3F		    jmp loc_3F1A
   430 3F96			loc_3F96:
   431 3F96 60			    rts
   432 3F97			sub_3F97:
   433 3F97 C6 C2		    dec $C2
   434 3F99 10 12		    bpl loc_3FAD
   435 3F9B AD 0A D2		    lda RANDOM
   436 3F9E 29 07		    and #$07
   437 3FA0 09 01		    ora #$01
   438 3FA2 85 C2		    sta $C2
   439 3FA4 A2 0E		    ldx #$0E
   440 3FA6 20 AA 94		    jsr sub_94AA
   441 3FA9 E8			    inx
   442 3FAA 20 AA 94		    jsr sub_94AA
   443 3FAD			loc_3FAD:
   444 3FAD AD 0A D2		    lda RANDOM
   445 3FB0 09 04		    ora #$04
   446 3FB2 8D AC 28		    sta $28AC
   447 3FB5 85 DB		    sta $DB
   448 3FB7 85 DD		    sta $DD
   449 3FB9 85 DC		    sta $DC
   450 3FBB 85 DE		    sta $DE
   451 3FBD 20 B7 7D		    jsr wait_2_frames
   452 3FC0 C6 C4		    dec $C4
   453 3FC2 60			    rts
   454 3FC3			loc_3FC3:
   455 3FC3 20 E2 3F		    jsr sub_3FE2
   456 3FC6 20 31 40		    jsr sub_4031
   457 3FC9 20 C6 7D		    jsr wait_20_frames
   458 3FCC A9 20		    lda #$20
   459 3FCE 85 C3		    sta $C3
   460 3FD0 8D AC 28		    sta $28AC
   461 3FD3			loc_3FD3:
   462 3FD3 20 43 40		    jsr sub_4043
   463 3FD6 20 B7 7D		    jsr wait_2_frames
   464 3FD9 A6 C3		    ldx $C3
   465 3FDB E0 2B		    cpx #$2B
   466 3FDD D0 F4		    bne loc_3FD3
   467 3FDF 4C 49 3F		    jmp loc_3F49
   468 3FE2			sub_3FE2:
   469 3FE2 A9 15		    lda #$15
   470 3FE4 85 C2		    sta $C2
   471 3FE6 A9 00		    lda #$00
   472 3FE8 8D 08 D2		    sta AUDCTL
   473 3FEB			loc_3FEB:
   474 3FEB AD 0A D2		    lda RANDOM
   475 3FEE 10 05		    bpl loc_3FF5
   476 3FF0 29 0F		    and #$0F
   477 3FF2 8D 00 D2		    sta AUDF1
   478 3FF5			loc_3FF5:
   479 3FF5 A6 C2		    ldx $C2
   480 3FF7 BD 1B 40		    lda $401B,x
   481 3FFA A8			    tay
   482 3FFB 4A			    lsr
   483 3FFC 09 A0		    ora #$A0
   484 3FFE 8D 01 D2		    sta AUDC1
   485 4001 98			    tya
   486 4002 09 80		    ora #$80
   487 4004 8D 03 D2		    sta AUDC2
   488 4007 98			    tya
   489 4008 0A			    asl
   490 4009 49 1F		    eor #$1F
   491 400B 8D 02 D2		    sta AUDF2
   492 400E 20 AF 7D		    jsr wait_1_frame
   493 4011 C6 C2		    dec $C2
   494 4013 10 D6		    bpl loc_3FEB
   495 4015 A9 60		    lda #$60
   496 4017 8D 08 D2		    sta AUDCTL
   497 401A 60			    rts
   498 401B 00 01 01 02 02 03 +     .byte $00,$01,$01,$02,$02,$03,$03,$04,$04,$05,$05,$06,$06,$07,$08,$09 ; $401B
   499 402B 0A 0B 0C 0D 0E 0F	    .byte $0A,$0B,$0C,$0D,$0E,$0F                          ; $402B
   500 4031			sub_4031:
   501 4031 A9 00		    lda #$00
   502 4033 8D 6C 06		    sta $066C
   503 4036 8D 88 06		    sta $0688
   504 4039 A9 0C		    lda #$0C
   505 403B 8D 7A 06		    sta $067A
   506 403E A0 0D		    ldy #$0D
   507 4040 4C 90 92		    jmp sub_9290
   508 4043			sub_4043:
   509 4043 A0 07		    ldy #$07
   510 4045			loc_4045:
   511 4045 B9 05 52		    lda $5205,y
   512 4048 29 0F		    and #$0F
   513 404A 05 C3		    ora $C3
   514 404C 99 D0 00		    sta $00D0,y
   515 404F 88			    dey
   516 4050 10 F3		    bpl loc_4045
   517 4052 8D 19 D0		    sta COLPF3
   518 4055 E6 C3		    inc $C3
   519 4057 60			    rts
   520 4058			sub_4058:
   521 4058 A0 03		    ldy #$03
   522 405A			loc_405A:
   523 405A 99 DB 00		    sta $00DB,y
   524 405D 99 C0 02		    sta PCOLR0,y
   525 4060 88			    dey
   526 4061 10 F7		    bpl loc_405A
   527 4063 85 DA		    sta FRE
   528 4065 60			    rts
   529 4066			sub_4066:
   530 4066 A0 84		    ldy #$84
   531 4068			loc_4068:
   532 4068 B9 F3 41		    lda $41F3,y
   533 406B 99 8B 08		    sta $088B,y
   534 406E 88			    dey
   535 406F D0 F7		    bne loc_4068
   536 4071 A9 00		    lda #$00
   537 4073 A0 07		    ldy #$07
   538 4075			loc_4075:
   539 4075 99 00 D0		    sta HPOSP0,y
   540 4078 99 10 09		    sta $0910,y
   541 407B 88			    dey
   542 407C 10 F7		    bpl loc_4075
   543 407E AD 54 06		    lda $0654
   544 4081 0D 40 07		    ora $0740
   545 4084 D0 03		    bne loc_4089
   546 4086 20 10 95		    jsr sub_9510
   547 4089			loc_4089:
   548 4089 AD 1F D0		    lda CONSOL
   549 408C 29 01		    and #$01
   550 408E F0 F9		    beq loc_4089
   551 4090 AD 1C 06		    lda $061C
   552 4093 D0 4C		    bne loc_40E1
   553 4095 AD 03 06		    lda $0603
   554 4098 AC 04 06		    ldy $0604
   555 409B AE 05 06		    ldx $0605
   556 409E CD 00 06		    cmp $0600
   557 40A1 D0 08		    bne loc_40AB
   558 40A3 CC 01 06		    cpy $0601
   559 40A6 D0 03		    bne loc_40AB
   560 40A8 EC 02 06		    cpx $0602
   561 40AB			loc_40AB:
   562 40AB 90 09		    bcc loc_40B6
   563 40AD 8D 00 06		    sta $0600
   564 40B0 8C 01 06		    sty $0601
   565 40B3 8E 02 06		    stx $0602
   566 40B6			loc_40B6:
   567 40B6 A9 ED		    lda #$ED
   568 40B8 85 C6		    sta $C6
   569 40BA A9 08		    lda #$08
   570 40BC 85 C7		    sta $C7
   571 40BE AD 06 06		    lda $0606
   572 40C1 20 CB 7D		    jsr sub_7DCB
   573 40C4 20 C5 4C		    jsr sub_4CC8
   574 40C7 A9 11		    lda #$11
   575 40C9 85 C6		    sta $C6
   576 40CB A9 09		    lda #$09
   577 40CD 85 C7		    sta $C7
   578 40CF AD 00 06		    lda $0600
   579 40D2 20 C5 4C		    jsr sub_4CC8
   580 40D5 AD 01 06		    lda $0601
   581 40D8 20 CF 4C		    jsr sub_4CD2
   582 40DB AD 02 06		    lda $0602
   583 40DE 20 CF 4C		    jsr sub_4CD2
   584 40E1			loc_40E1:
   585 40E1 A9 FD		    lda #$FD
   586 40E3 85 C6		    sta $C6
   587 40E5 A9 08		    lda #$08
   588 40E7 85 C7		    sta $C7
   589 40E9 20 B3 4C		    jsr sub_4CB6
   590 40EC A9 00		    lda #$00
   591 40EE 8D 03 06		    sta $0603
   592 40F1 8D 04 06		    sta $0604
   593 40F4 8D 05 06		    sta $0605
   594 40F7 A9 2A		    lda #$2A
   595 40F9 8D C5 02		    sta COLOR1
   596 40FC A9 38		    lda #$38
   597 40FE 8D C4 02		    sta COLOR0
   598 4101 A9 46		    lda #$46
   599 4103 8D C6 02		    sta COLOR2
   600 4106 A9 56		    lda #$56
   601 4108 8D C7 02		    sta COLOR3
   602 410B A9 04		    lda #$04
   603 410D 85 C4		    sta $C4
   604 410F 20 4A 7B		    jsr enable_display
   605 4112 A9 22		    lda #$22
   606 4114 8D 2F 02		    sta SDMCTL
   607 4117 AD 1C 06		    lda $061C
   608 411A F0 03		    beq loc_411F
   609 411C 4C B7 41		    jmp loc_41B7
   610 411F			loc_411F:
   611 411F A9 D9		    lda #$D9
   612 4121 85 C6		    sta $C6
   613 4123 A9 08		    lda #$08
   614 4125 85 C7		    sta $C7
   615 4127 AD 1B 06		    lda $061B
   616 412A F0 44		    beq loc_4170
   617 412C D0 51		    bne loc_417F
   618 412E			loc_412E:
   619 412E AD 1F D0		    lda CONSOL
   620 4131 0A			    asl
   621 4132 2D 0F D2		    and SKSTAT
   622 4135 29 04		    and #$04
   623 4137 D0 0A		    bne loc_4143
   624 4139 85 4D		    sta ATRACT
   625 413B AC 1E 06		    ldy $061E
   626 413E F0 03		    beq loc_4143
   627 4140 4C A3 41		    jmp loc_41A3
   628 4143			loc_4143:
   629 4143 AC 1E 06		    ldy $061E
   630 4146 F0 03		    beq loc_414B
   631 4148 4C 8A 41		    jmp loc_418A
   632 414B			loc_414B:
   633 414B C6 C4		    dec $C4
   634 414D D0 3B		    bne loc_418A
   635 414F E6 C4		    inc $C4
   636 4151 AD 1F D0		    lda CONSOL
   637 4154 29 02		    and #$02
   638 4156 D0 32		    bne loc_418A
   639 4158 A0 04		    ldy #$04
   640 415A 84 C4		    sty $C4
   641 415C AD 0F D2		    lda SKSTAT
   642 415F 29 08		    and #$08
   643 4161 D0 0D		    bne loc_4170
   644 4163 CE 1B 06		    dec $061B
   645 4166 AD 1B 06		    lda $061B
   646 4169 D0 02		    bne loc_416D
   647 416B A9 63		    lda #$63
   648 416D			loc_416D:
   649 416D 4C 7C 41		    jmp loc_417C
   650 4170			loc_4170:
   651 4170 EE 1B 06		    inc $061B
   652 4173 AD 1B 06		    lda $061B
   653 4176 C9 64		    cmp #$64
   654 4178 D0 02		    bne loc_417C
   655 417A A9 01		    lda #$01
   656 417C			loc_417C:
   657 417C 8D 1B 06		    sta $061B
   658 417F			loc_417F:
   659 417F 20 CB 7D		    jsr sub_7DCB
   660 4182 A0 00		    ldy #$00
   661 4184 8C D9 08		    sty $08D9
   662 4187 20 C5 4C		    jsr sub_4CC8
   663 418A			loc_418A:
   664 418A AD 54 06		    lda $0654
   665 418D F0 06		    beq loc_4195
   666 418F 20 B7 7D		    jsr wait_2_frames
   667 4192 4C AD 41		    jmp loc_41AD
   668 4195			loc_4195:
   669 4195 20 21 95		    jsr sub_9521
   670 4198 AD 1F D0		    lda CONSOL
   671 419B 29 01		    and #$01
   672 419D 38			    sec
   673 419E ED 10 D0		    sbc TRIG0
   674 41A1 F0 0A		    beq loc_41AD
   675 41A3			loc_41A3:
   676 41A3 20 51 95		    jsr sub_9551
   677 41A6 8D 2F 02		    sta SDMCTL
   678 41A9 8D 1E 06		    sta $061E
   679 41AC 60			    rts
   680 41AD			loc_41AD:
   681 41AD AD 1F D0		    lda CONSOL
   682 41B0 29 04		    and #$04
   683 41B2 F0 03		    beq loc_41B7
   684 41B4 4C 2E 41		    jmp loc_412E
   685 41B7			loc_41B7:
   686 41B7 EE 07 06		    inc $0607
   687 41BA AD 07 06		    lda $0607
   688 41BD C9 64		    cmp #$64
   689 41BF D0 05		    bne loc_41C6
   690 41C1 A9 01		    lda #$01
   691 41C3 8D 07 06		    sta $0607
   692 41C6			loc_41C6:
   693 41C6 AD 54 06		    lda $0654
   694 41C9 D0 FB		    bne loc_41C6
   695 41CB A9 10		    lda #$10
   696 41CD 8D 1B 06		    sta $061B
   697 41D0 8D 1C 06		    sta $061C
   698 41D3 D0 CE		    bne loc_41A3
   699 41D5 70 6E		    bvs loc_4247
   700 41D7 70 6E		    bvs loc_4249
   701 41D9 70 6E		    bvs loc_424B
   702 41DB 70 47		    bvs loc_4224
   703 41DD 8C 08 70		    sty $7008
   704 41E0 70 6D		    bvs loc_4252
   705 41E2 06 10		    asl POKMSK
   706 41E4 06 70		    asl ROWAC
   707 41E6 70 6D		    bvs loc_4258
   708 41E8 70 06		    bvs loc_41F0
   709 41EA 10 06		    bpl loc_41F2
   710 41EC 70 6D		    bvs loc_425E
   711 41EE 06 10		    asl POKMSK
   712 41F0			loc_41F0:
   713 41F0 06 41		    asl SOUNDR
   714 41F2			loc_41F2:
   715 41F2 D5 41		    cmp SOUNDR,x
   716 41F4 00			    brk
   717 41F5 62 65 68 69 6E 64 +     .byte $62,$65,$68,$69,$6E,$64,$00,$6A,$61,$67,$67,$69,$00,$6C,$69,$6E ; $41F5
   718 4205 65 73 41 00 23 2F +     .byte $65,$73,$41,$00,$23,$2F,$30,$39,$32,$29,$27,$28,$34,$00,$08,$23 ; $4205
   719 4215 09 00 11 19 18 14 +     .byte $09,$00,$11,$19,$18,$14,$00,$00,$00,$00,$2C,$35,$23,$21,$33 ; $4215
   720 4224			loc_4224:
   721 4224 26 29		    rol ICBLHZ
   722 4226 24 2D		    bit $002D
   723 4228 2C 34 24		    bit $2434
   724 422B 06 00		    asl LNFLG
   725 422D 00			    brk
   726 422E 00 B3 B4 A1 B2 B4 +     .byte $00,$B3,$B4,$A1,$B2,$B4,$A9,$AE,$A7,$00,$AC,$A5,$B6,$A5,$AC,$9A ; $4230
   727 423E 00 00 00 00 00 00 +     .byte $00,$00,$00,$00,$00,$00,$B2                      ; $4240
   728 4245			loc_4247:
   729 4245 A1 AE		    lda ($AE,x)
   730 4247			loc_4249:
   731 4247 AB A9		    .byte $AB,$A9                                          ; $4249
   732 4249			loc_424B:
   733 4249 A6 A7		    ldx $00A7
   734 424B AC A5 B6		    ldy $B6A5
   735 424E A5			    .byte $A5                     ; $4251
   736 424F			loc_4252:
   737 424F AC			    .byte $AC                     ; $4252
   738 4250 9A			    txs
   739 4251 00			    brk
   740 4252 00			    brk
   741 4253 00 00		    .byte $00,$00                                          ; $4256
   742 4255			loc_4258:
   743 4255 00			    brk
   744 4256 EC E1 F3 F4 00	    .byte $EC,$E1,$F3,$F4,$00                              ; $4259
   745 425B			loc_425E:
   746 425B F3 E3 EF F2 E5 DA +     .byte $F3,$E3,$EF,$F2,$E5,$DA,$00,$00,$00,$00,$00,$00,$00,$00,$00,$E8 ; $425E
   747 426B E9 E7 E8 00 F3 E3 +     .byte $E9,$E7,$E8,$00,$F3,$E3,$EF,$F2,$E5,$DA          ; $426E
   748 4275			sub_4278:
   749 4275 A0 0E		    ldy #$0E
   750 4277 A9 20		    lda #$20
   751 4279			loc_427C:
   752 4279 99 4C 0B		    sta $0B4C,y
   753 427C 99 63 0B		    sta $0B63,y
   754 427F 88			    dey
   755 4280 D0 F7		    bne loc_427C
   756 4282 A9 CC		    lda #$CC
   757 4284 8D 5F 0B		    sta $0B5F
   758 4287 8D 23 28		    sta $2823
   759 428A A9 4D		    lda #$4D
   760 428C 8D 98 28		    sta $2898
   761 428F A9 4F		    lda #$4F
   762 4291 8D A0 28		    sta $28A0
   763 4294 A9 1E		    lda #$1E
   764 4296 8D 5E 06		    sta $065E
   765 4299 8D 09 06		    sta $0609
   766 429C 20 9C 7D		    jsr wait_frames
   767 429F A8			    tay
   768 42A0 A9 FF		    lda #$FF
   769 42A2			loc_42A5:
   770 42A2 99 94 0E		    sta $0E94,y
   771 42A5 88			    dey
   772 42A6 10 FA		    bpl loc_42A5
   773 42A8 8D 0C 06		    sta $060C
   774 42AB A0 5F		    ldy #$5F
   775 42AD			loc_42B0:
   776 42AD 99 10 22		    sta $2210,y
   777 42B0 88			    dey
   778 42B1 10 FA		    bpl loc_42B0
   779 42B3 8D 2A 28		    sta $282A
   780 42B6 8D 29 28		    sta $2829
   781 42B9 8D 5F 06		    sta $065F
   782 42BC A0 37		    ldy #$37
   783 42BE A9 C0		    lda #$C0
   784 42C0			loc_42C3:
   785 42C0 99 98 0B		    sta $0B98,y
   786 42C3 88			    dey
   787 42C4 10 FA		    bpl loc_42C3
   788 42C6 20 9C 7D		    jsr wait_frames
   789 42C9 A9 0E		    lda #$0E
   790 42CB 8D 1E 28		    sta $281E
   791 42CE A9 02		    lda #$02
   792 42D0 8D 9A 28		    sta $289A
   793 42D3 20 0B 43		    jsr sub_430E
   794 42D6 20 1C 7C		    jsr mirror_font
   795 42D9 20 9C 7D		    jsr wait_frames
   796 42DC 20 DF 48		    jsr sub_48E2
   797 42DF 20 9C 7D		    jsr wait_frames
   798 42E2 A9 38		    lda #$38
   799 42E4 20 43 99		    jsr sub_9943
   800 42E7 A9 38		    lda #$38
   801 42E9 20 A9 99		    jsr sub_99A9
   802 42EC 20 9C 7D		    jsr wait_frames
   803 42EF A9 F4		    lda #$F4
   804 42F1 8D 8E 28		    sta $288E
   805 42F4 A9 91		    lda #$91
   806 42F6 85 BA		    sta $BA
   807 42F8 A9 0B		    lda #$0B
   808 42FA 85 BB		    sta $BB
   809 42FC AD 0A D2		    lda RANDOM
   810 42FF C9 1F		    cmp #$1F
   811 4301 B0 03		    bcs loc_4309
   812 4303 EE 82 28		    inc $2882
   813 4306			loc_4309:
   814 4306 A9 07		    lda #$07
   815 4308 4C 50 47		    jmp sub_4753
   816 430B			sub_430E:
   817 430B 18			    clc
   818 430C AD 1E 28		    lda $281E
   819 430F AC 3A 28		    ldy $283A
   820 4312 79 26 43		    adc $4326,y
   821 4315 A8			    tay
   822 4316 A2 03		    ldx #$03
   823 4318			loc_431B:
   824 4318 B9 08 4E		    lda $4E08,y
   825 431B 9D E3 32		    sta $32E3,x
   826 431E 88			    dey
   827 431F CA			    dex
   828 4320 10 F6		    bpl loc_431B
   829 4322 60			    rts
   830 4323 03 16 29 3C		    .byte $03,$16,$29,$3C                                  ; $4326
   831 4327			sub_432A:
   832 4327 A9 00		    lda #$00
   833 4329 85 C0		    sta $C0
   834 432B AD 41 06		    lda $0641
   835 432E CD 46 06		    cmp $0646
   836 4331 F0 0E		    beq loc_4344
   837 4333 A0 B4		    ldy #$B4
   838 4335 84 BC		    sty $BC
   839 4337 A0 33		    ldy #$33
   840 4339 84 BD		    sty $BD
   841 433B 8D 46 06		    sta $0646
   842 433E 20 A2 43		    jsr sub_43A5
   843 4341			loc_4344:
   844 4341 AD 3F 06		    lda $063F
   845 4344 CD 44 06		    cmp $0644
   846 4347 F0 16		    beq loc_4362
   847 4349 8D 44 06		    sta $0644
   848 434C A0 45		    ldy #$45
   849 434E 84 BE		    sty $BE
   850 4350 A0 34		    ldy #$34
   851 4352 84 BF		    sty $BF
   852 4354 A0 13		    ldy #$13
   853 4356 84 BC		    sty $BC
   854 4358 A0 34		    ldy #$34
   855 435A 84 BD		    sty $BD
   856 435C 20 91 43		    jsr sub_4394
   857 435F			loc_4362:
   858 435F AD 3C 06		    lda $063C
   859 4362 F0 0E		    beq loc_4375
   860 4364 CE 3D 06		    dec $063D
   861 4367 A9 0C		    lda #$0C
   862 4369 2C 3D 06		    bit $063D
   863 436C D0 04		    bne loc_4375
   864 436E A9 80		    lda #$80
   865 4370 85 C0		    sta $C0
   866 4372			loc_4375:
   867 4372 AD 40 06		    lda $0640
   868 4375 A8			    tay
   869 4376 05 C0		    ora $C0
   870 4378 CD 45 06		    cmp $0645
   871 437B F0 3F		    beq loc_43BF
   872 437D 8D 45 06		    sta $0645
   873 4380 98			    tya
   874 4381 A0 A4		    ldy #$A4
   875 4383 84 BE		    sty $BE
   876 4385 A0 34		    ldy #$34
   877 4387 84 BF		    sty $BF
   878 4389 A0 72		    ldy #$72
   879 438B 84 BC		    sty $BC
   880 438D A0 34		    ldy #$34
   881 438F 84 BD		    sty $BD
   882 4391			sub_4394:
   883 4391 48			    pha
   884 4392 4A			    lsr
   885 4393 4A			    lsr
   886 4394 29 3C		    and #$3C
   887 4396 20 A6 43		    jsr sub_43A9
   888 4399 A5 BE		    lda $BE
   889 439B 85 BC		    sta $BC
   890 439D A5 BF		    lda $BF
   891 439F 85 BD		    sta $BD
   892 43A1 68			    pla
   893 43A2			sub_43A5:
   894 43A2 29 0F		    and #$0F
   895 43A4 0A			    asl
   896 43A5 0A			    asl
   897 43A6			sub_43A9:
   898 43A6 AA			    tax
   899 43A7 A0 00		    ldy #$00
   900 43A9			loc_43AC:
   901 43A9 BD E0 4D		    lda $4DE0,x
   902 43AC 05 C0		    ora $C0
   903 43AE 91 BC		    sta ($BC),y
   904 43B0 E8			    inx
   905 43B1 C8			    iny
   906 43B2 C0 02		    cpy #$02
   907 43B4 D0 02		    bne loc_43BB
   908 43B6 A0 30		    ldy #$30
   909 43B8			loc_43BB:
   910 43B8 C0 32		    cpy #$32
   911 43BA D0 ED		    bne loc_43AC
   912 43BC			loc_43BF:
   913 43BC 60			    rts
   914 43BD			sub_43C0:
   915 43BD AE 41 29		    ldx $2941
   916 43C0 AC 42 29		    ldy $2942
   917 43C3 EC 79 28		    cpx $2879
   918 43C6 D0 05		    bne loc_43D0
   919 43C8 CC 7B 28		    cpy $287B
   920 43CB F0 24		    beq loc_43F4
   921 43CD			loc_43D0:
   922 43CD 8E 79 28		    stx $2879
   923 43D0 BD 78 48		    lda $4878,x
   924 43D3 AA			    tax
   925 43D4 8C 7B 28		    sty $287B
   926 43D7 A9 00		    lda #$00
   927 43D9 99 87 0E		    sta $0E87,y
   928 43DC A9 15		    lda #$15
   929 43DE 85 BE		    sta $BE
   930 43E0			loc_43E3:
   931 43E0 C8			    iny
   932 43E1 BD 54 4E		    lda $4E54,x
   933 43E4 99 87 0E		    sta $0E87,y
   934 43E7 E8			    inx
   935 43E8 C6 BE		    dec $BE
   936 43EA D0 F4		    bne loc_43E3
   937 43EC A9 FF		    lda #$FF
   938 43EE 99 88 0E		    sta $0E88,y
   939 43F1			loc_43F4:
   940 43F1 60			    rts
   941 43F2			sub_43F5:
   942 43F2 AC 1C 28		    ldy $281C
   943 43F5 CC 7C 28		    cpy $287C
   944 43F8 F0 18		    beq loc_4415
   945 43FA 8C 7C 28		    sty $287C
   946 43FD A9 00		    lda #$00
   947 43FF			loc_4402:
   948 43FF 99 97 0C		    sta $0C97,y
   949 4402 88			    dey
   950 4403 10 FA		    bpl loc_4402
   951 4405 AC 7C 28		    ldy $287C
   952 4408 A9 FF		    lda #$FF
   953 440A			loc_440D:
   954 440A 99 98 0C		    sta $0C98,y
   955 440D C8			    iny
   956 440E C0 38		    cpy #$38
   957 4410 90 F8		    bcc loc_440D
   958 4412			loc_4415:
   959 4412 AC 1D 28		    ldy $281D
   960 4415 CC 7D 28		    cpy $287D
   961 4418 F0 23		    beq loc_4440
   962 441A 8C 7D 28		    sty $287D
   963 441D B9 96 0B		    lda $0B96,y
   964 4420 29 3F		    and #$3F
   965 4422 99 96 0B		    sta $0B96,y
   966 4425 B9 97 0B		    lda $0B97,y
   967 4428 29 3F		    and #$3F
   968 442A 99 97 0B		    sta $0B97,y
   969 442D B9 98 0B		    lda $0B98,y
   970 4430 09 C0		    ora #$C0
   971 4432 99 98 0B		    sta $0B98,y
   972 4435 B9 99 0B		    lda $0B99,y
   973 4438 09 C0		    ora #$C0
   974 443A 99 99 0B		    sta $0B99,y
   975 443D			loc_4440:
   976 443D 60			    rts
   977 443E			sub_4441:
   978 443E AD 10 06		    lda $0610
   979 4441 C9 01		    cmp #$01
   980 4443 90 30		    bcc loc_4478
   981 4445 CE 10 06		    dec $0610
   982 4448 D0 20		    bne loc_446D
   983 444A A9 0F		    lda #$0F
   984 444C 8D 10 06		    sta $0610
   985 444F AD A5 28		    lda $28A5
   986 4452 D0 0F		    bne loc_4466
   987 4454 AD 25 06		    lda $0625
   988 4457 F0 0A		    beq loc_4466
   989 4459 AD 2A 28		    lda $282A
   990 445C 10 05		    bpl loc_4466
   991 445E A2 1C		    ldx #$1C
   992 4460 20 AA 94		    jsr sub_94AA
   993 4463			loc_4466:
   994 4463 A9 4E		    lda #$4E
   995 4465 85 DF		    sta $DF
   996 4467 4C 75 44		    jmp loc_4478
   997 446A			loc_446D:
   998 446A AD 10 06		    lda $0610
   999 446D C9 0A		    cmp #$0A
  1000 446F B0 04		    bcs loc_4478
  1001 4471 A9 46		    lda #$46
  1002 4473 85 DF		    sta $DF
  1003 4475			loc_4478:
  1004 4475 AD 7F 28		    lda $287F
  1005 4478 F0 06		    beq loc_4483
  1006 447A			sub_447D:
  1007 447A CE 7F 28		    dec $287F
  1008 447D 4C 9B 44		    jmp loc_449E
  1009 4480			loc_4483:
  1010 4480 A9 08		    lda #$08
  1011 4482 38			    sec
  1012 4483 ED 11 06		    sbc $0611
  1013 4486 4A			    lsr
  1014 4487 18			    clc
  1015 4488 AC A5 28		    ldy $28A5
  1016 448B D0 02		    bne loc_4492
  1017 448D 69 01		    adc #$01
  1018 448F			loc_4492:
  1019 448F 6D 7E 28		    adc $287E
  1020 4492 6D 4C 28		    adc $284C
  1021 4495 8D 4C 28		    sta $284C
  1022 4498 B0 01		    bcs loc_449E
  1023 449A 60			    rts
  1024 449B			loc_449E:
  1025 449B AD 25 06		    lda $0625
  1026 449E F0 03		    beq loc_44A6
  1027 44A0 CE 25 06		    dec $0625
  1028 44A3			loc_44A6:
  1029 44A3 D0 31		    bne loc_44D9
  1030 44A5 AD 87 28		    lda $2887
  1031 44A8 F0 14		    beq loc_44C1
  1032 44AA AD 5F 06		    lda $065F
  1033 44AD C9 02		    cmp #$02
  1034 44AF F0 0D		    beq loc_44C1
  1035 44B1 A9 10		    lda #$10
  1036 44B3 20 6C 47		    jsr sub_476F
  1037 44B6 A9 1E		    lda #$1E
  1038 44B8 8D 87 28		    sta $2887
  1039 44BB 4C C1 44		    jmp loc_44C4
  1040 44BE			loc_44C1:
  1041 44BE EE 25 06		    inc $0625
  1042 44C1			loc_44C4:
  1043 44C1 AD 7F 28		    lda $287F
  1044 44C4 0D 7E 28		    ora $287E
  1045 44C7 C9 01		    cmp #$01
  1046 44C9 90 0B		    bcc loc_44D9
  1047 44CB 8D 34 06		    sta $0634
  1048 44CE A9 00		    lda #$00
  1049 44D0 8D 25 06		    sta $0625
  1050 44D3 20 40 83		    jsr sub_8340
  1051 44D6			loc_44D9:
  1052 44D6 20 F7 44		    jsr sub_44FA
  1053 44D9 4A			    lsr
  1054 44DA 4A			    lsr
  1055 44DB 4A			    lsr
  1056 44DC AA			    tax
  1057 44DD A9 00		    lda #$00
  1058 44DF 99 98 0D		    sta $0D98,y
  1059 44E2 E0 06		    cpx #$06
  1060 44E4 D0 0B		    bne loc_44F4
  1061 44E6 AD 10 06		    lda $0610
  1062 44E9 D0 03		    bne loc_44F1
  1063 44EB 8E 10 06		    stx $0610
  1064 44EE			loc_44F1:
  1065 44EE 4C F6 44		    jmp loc_44F9
  1066 44F1			loc_44F4:
  1067 44F1 BD FE 51		    lda $51FE,x
  1068 44F4 85 DF		    sta $DF
  1069 44F6			loc_44F9:
  1070 44F6 60			    rts
  1071 44F7			sub_44FA:
  1072 44F7 A9 DC		    lda #$DC
  1073 44F9 38			    sec
  1074 44FA ED 25 06		    sbc $0625
  1075 44FD 4A			    lsr
  1076 44FE 4A			    lsr
  1077 44FF A8			    tay
  1078 4500 60			    rts
  1079 4501			sub_4504:
  1080 4501 A2 38		    ldx #$38
  1081 4503 D0 21		    bne loc_4529
  1082 4505			sub_4508:
  1083 4505 A9 01		    lda #$01
  1084 4507 8D 09 06		    sta $0609
  1085 450A 18			    clc
  1086 450B A9 04		    lda #$04
  1087 450D 6D 25 06		    adc $0625
  1088 4510 C9 DC		    cmp #$DC
  1089 4512 90 0C		    bcc loc_4523
  1090 4514 A9 00		    lda #$00
  1091 4516 8D 09 06		    sta $0609
  1092 4519 A9 F0		    lda #$F0
  1093 451B 8D 98 0D		    sta $0D98
  1094 451E A9 DC		    lda #$DC
  1095 4520			loc_4523:
  1096 4520 8D 25 06		    sta $0625
  1097 4523 20 9C 7D		    jsr wait_frames
  1098 4526			loc_4529:
  1099 4526 20 F7 44		    jsr sub_44FA
  1100 4529 A9 F0		    lda #$F0
  1101 452B 99 99 0D		    sta $0D99,y
  1102 452E 98			    tya
  1103 452F 4A			    lsr
  1104 4530 4A			    lsr
  1105 4531 4A			    lsr
  1106 4532 A8			    tay
  1107 4533 C0 06		    cpy #$06
  1108 4535 B0 05		    bcs loc_453F
  1109 4537 A9 00		    lda #$00
  1110 4539 8D 10 06		    sta $0610
  1111 453C			loc_453F:
  1112 453C B9 FE 51		    lda $51FE,y
  1113 453F 85 DF		    sta $DF
  1114 4541 CA			    dex
  1115 4542 D0 C1		    bne sub_4508
  1116 4544 60			    rts
  1117 4545			sub_4548:
  1118 4545 AE 32 06		    ldx $0632
  1119 4548 D0 5C		    bne loc_45A9
  1120 454A AD 43 06		    lda $0643
  1121 454D 10 22		    bpl loc_4574
  1122 454F C9 81		    cmp #$81
  1123 4551 B0 54		    bcs loc_45AA
  1124 4553 CE 0A 06		    dec $060A
  1125 4556 10 16		    bpl loc_4571
  1126 4558 AD 0A D2		    lda RANDOM
  1127 455B 29 07		    and #$07
  1128 455D 8D 0A 06		    sta $060A
  1129 4560 C9 06		    cmp #$06
  1130 4562 90 01		    bcc loc_4568
  1131 4564 4A			    lsr
  1132 4565			loc_4568:
  1133 4565 A8			    tay
  1134 4566 B9 92 34		    lda $3492,y
  1135 4569 49 80		    eor #$80
  1136 456B 99 92 34		    sta $3492,y
  1137 456E			loc_4571:
  1138 456E 4C A6 45		    jmp loc_45A9
  1139 4571			loc_4574:
  1140 4571 D0 16		    bne loc_458C
  1141 4573 EE 43 06		    inc $0643
  1142 4576 AD 0B 06		    lda $060B
  1143 4579 8D 0A 06		    sta $060A
  1144 457C			sub_457F:
  1145 457C A9 A9		    lda #$A9
  1146 457E A0 05		    ldy #$05
  1147 4580			loc_4583:
  1148 4580 99 92 34		    sta $3492,y
  1149 4583 88			    dey
  1150 4584 10 FA		    bpl loc_4583
  1151 4586 4C A6 45		    jmp loc_45A9
  1152 4589			loc_458C:
  1153 4589 CE 0A 06		    dec $060A
  1154 458C 10 18		    bpl loc_45A9
  1155 458E AC 0B 06		    ldy $060B
  1156 4591 8C 0A 06		    sty $060A
  1157 4594 C9 07		    cmp #$07
  1158 4596 F0 0E		    beq loc_45A9
  1159 4598 EE 43 06		    inc $0643
  1160 459B A8			    tay
  1161 459C A9 29		    lda #$29
  1162 459E			loc_45A1:
  1163 459E 99 91 34		    sta $3491,y
  1164 45A1 A2 12		    ldx #$12
  1165 45A3 4C AA 94		    jmp sub_94AA
  1166 45A6			loc_45A9:
  1167 45A6 60			    rts
  1168 45A7			loc_45AA:
  1169 45A7 4E 28 06		    lsr $0628
  1170 45AA B0 FA		    bcs loc_45A9
  1171 45AC EE 28 06		    inc $0628
  1172 45AF 29 0F		    and #$0F
  1173 45B1 C9 07		    cmp #$07
  1174 45B3 D0 05		    bne loc_45BD
  1175 45B5 A9 06		    lda #$06
  1176 45B7 CE 43 06		    dec $0643
  1177 45BA			loc_45BD:
  1178 45BA CE 43 06		    dec $0643
  1179 45BD A8			    tay
  1180 45BE A9 A9		    lda #$A9
  1181 45C0 D0 DC		    bne loc_45A1
  1182 45C2			sub_45C5:
  1183 45C2 48			    pha
  1184 45C3 C9 03		    cmp #$03
  1185 45C5 90 10		    bcc loc_45DA
  1186 45C7 A9 00		    lda #$00
  1187 45C9 8D 0B D0		    sta SIZEP3
  1188 45CC A9 0C		    lda #$0C
  1189 45CE 8D 26 28		    sta $2826
  1190 45D1 A2 FF		    ldx #$FF
  1191 45D3 A9 6C		    lda #$6C
  1192 45D5 D0 33		    bne loc_460D
  1193 45D7			loc_45DA:
  1194 45D7 A8			    tay
  1195 45D8 B9 83 48		    lda $4883,y
  1196 45DB 8D 0B D0		    sta SIZEP3
  1197 45DE B9 86 48		    lda $4886,y
  1198 45E1 8D 26 28		    sta $2826
  1199 45E4 38			    sec
  1200 45E5 AD 27 28		    lda $2827
  1201 45E8 C9 8B		    cmp #$8B
  1202 45EA 90 02		    bcc loc_45F1
  1203 45EC A9 8C		    lda #$8C
  1204 45EE			loc_45F1:
  1205 45EE E9 55		    sbc #$55
  1206 45F0 10 02		    bpl loc_45F7
  1207 45F2 A9 00		    lda #$00
  1208 45F4			loc_45F7:
  1209 45F4 4A			    lsr
  1210 45F5 4A			    lsr
  1211 45F6 C0 01		    cpy #$01
  1212 45F8 30 0A		    bmi loc_4607
  1213 45FA 4A			    lsr
  1214 45FB A8			    tay
  1215 45FC BE 97 48		    ldx $4897,y
  1216 45FF A9 5E		    lda #$5E
  1217 4601 4C 0A 46		    jmp loc_460D
  1218 4604			loc_4607:
  1219 4604 A8			    tay
  1220 4605 BE 89 48		    ldx $4889,y
  1221 4608 A9 54		    lda #$54
  1222 460A			loc_460D:
  1223 460A 8E 28 28		    stx $2828
  1224 460D 85 C0		    sta $C0
  1225 460F AE 39 28		    ldx $2839
  1226 4612 F0 19		    beq loc_4630
  1227 4614 A9 00		    lda #$00
  1228 4616 AC 76 28		    ldy $2876
  1229 4619 C0 14		    cpy #$14
  1230 461B B0 02		    bcs loc_4622
  1231 461D A0 14		    ldy #$14
  1232 461F			loc_4622:
  1233 461F 99 1E 0F		    sta $0F1E,y
  1234 4622 C0 4F		    cpy #$4F
  1235 4624 B0 03		    bcs loc_462C
  1236 4626 99 71 0F		    sta $0F71,y
  1237 4629			loc_462C:
  1238 4629 C8			    iny
  1239 462A CA			    dex
  1240 462B D0 F2		    bne loc_4622
  1241 462D			loc_4630:
  1242 462D 68			    pla
  1243 462E 10 04		    bpl loc_4637
  1244 4630 CE 23 28		    dec $2823
  1245 4633			loc_4636:
  1246 4633 60			    rts
  1247 4634			loc_4637:
  1248 4634 C9 20		    cmp #$20
  1249 4636 B0 FB		    bcs loc_4636
  1250 4638 C9 15		    cmp #$15
  1251 463A 90 04		    bcc loc_4643
  1252 463C A0 49		    ldy #$49
  1253 463E B0 2E		    bcs loc_4671
  1254 4640			loc_4643:
  1255 4640 C9 0C		    cmp #$0C
  1256 4642 90 04		    bcc loc_464B
  1257 4644 A0 48		    ldy #$48
  1258 4646 B0 26		    bcs loc_4671
  1259 4648			loc_464B:
  1260 4648 C9 09		    cmp #$09
  1261 464A 90 05		    bcc loc_4654
  1262 464C A9 07		    lda #$07
  1263 464E 4C 60 46		    jmp loc_4663
  1264 4651			loc_4654:
  1265 4651 C9 07		    cmp #$07
  1266 4653 90 05		    bcc loc_465D
  1267 4655 A9 06		    lda #$06
  1268 4657 4C 60 46		    jmp loc_4663
  1269 465A			loc_465D:
  1270 465A C9 05		    cmp #$05
  1271 465C 90 02		    bcc loc_4663
  1272 465E A9 05		    lda #$05
  1273 4660			loc_4663:
  1274 4660 A8			    tay
  1275 4661 18			    clc
  1276 4662 AD 25 28		    lda $2825
  1277 4665 88			    dey
  1278 4666 30 05		    bmi loc_4670
  1279 4668			loc_466B:
  1280 4668 69 09		    adc #$09
  1281 466A 88			    dey
  1282 466B 10 FB		    bpl loc_466B
  1283 466D			loc_4670:
  1284 466D A8			    tay
  1285 466E			loc_4671:
  1286 466E AD 24 28		    lda $2824
  1287 4671 C9 07		    cmp #$07
  1288 4673 B0 02		    bcs loc_467A
  1289 4675 A9 07		    lda #$07
  1290 4677			loc_467A:
  1291 4677 C9 71		    cmp #$71
  1292 4679 90 02		    bcc loc_4680
  1293 467B A9 71		    lda #$71
  1294 467D			loc_4680:
  1295 467D C0 2D		    cpy #$2D
  1296 467F B0 04		    bcs loc_4688
  1297 4681 38			    sec
  1298 4682 F9 0E 50		    sbc $500E,y
  1299 4685			loc_4688:
  1300 4685 8D 76 28		    sta $2876
  1301 4688 AA			    tax
  1302 4689 98			    tya
  1303 468A 0A			    asl
  1304 468B A8			    tay
  1305 468C B9 3B 50		    lda $503B,y
  1306 468F 85 BC		    sta $BC
  1307 4691 B9 3C 50		    lda $503C,y
  1308 4694 85 BD		    sta $BD
  1309 4696 A0 00		    ldy #$00
  1310 4698			loc_469B:
  1311 4698 AD 29 28		    lda $2829
  1312 469B D0 03		    bne loc_46A3
  1313 469D AD 0A D2		    lda RANDOM
  1314 46A0			loc_46A3:
  1315 46A0 31 BC		    and ($BC),y
  1316 46A2 F0 1D		    beq loc_46C4
  1317 46A4 E0 14		    cpx #$14
  1318 46A6 90 16		    bcc loc_46C1
  1319 46A8 E0 73		    cpx #$73
  1320 46AA B0 03		    bcs loc_46B2
  1321 46AC 9D 1E 0F		    sta $0F1E,x
  1322 46AF			loc_46B2:
  1323 46AF C8			    iny
  1324 46B0 E0 2E		    cpx #$2E
  1325 46B2 90 0A		    bcc loc_46C1
  1326 46B4 E0 4F		    cpx #$4F
  1327 46B6 B0 06		    bcs loc_46C1
  1328 46B8 2D 28 28		    and $2828
  1329 46BB 9D 71 0F		    sta $0F71,x
  1330 46BE			loc_46C1:
  1331 46BE E8			    inx
  1332 46BF 10 D7		    bpl loc_469B
  1333 46C1			loc_46C4:
  1334 46C1 8C 39 28		    sty $2839
  1335 46C4 18			    clc
  1336 46C5 AD 26 28		    lda $2826
  1337 46C8 6D 27 28		    adc $2827
  1338 46CB 8D 77 28		    sta $2877
  1339 46CE 8D 03 D0		    sta HPOSP3
  1340 46D1 C9 8E		    cmp #$8E
  1341 46D3 90 05		    bcc loc_46DD
  1342 46D5 A9 8D		    lda #$8D
  1343 46D7 4C E0 46		    jmp loc_46E3
  1344 46DA			loc_46DD:
  1345 46DA C5 C0		    cmp $C0
  1346 46DC B0 02		    bcs loc_46E3
  1347 46DE A5 C0		    lda $C0
  1348 46E0			loc_46E3:
  1349 46E0 85 CD		    sta $CD
  1350 46E2 60			    rts
  1351 46E3			sub_46E6:
  1352 46E3 AD 1D 06		    lda $061D
  1353 46E6 4A			    lsr
  1354 46E7 4A			    lsr
  1355 46E8 4A			    lsr
  1356 46E9 A8			    tay
  1357 46EA			sub_46ED:
  1358 46EA C0 09		    cpy #$09
  1359 46EC 90 07		    bcc loc_46F8
  1360 46EE A9 08		    lda #$08
  1361 46F0 CD 24 06		    cmp $0624
  1362 46F3 F0 57		    beq loc_474F
  1363 46F5			loc_46F8:
  1364 46F5 CC 24 06		    cpy $0624
  1365 46F8 F0 52		    beq loc_474F
  1366 46FA 8C 24 06		    sty $0624
  1367 46FD 84 C0		    sty $C0
  1368 46FF A9 FF		    lda #$FF
  1369 4701 85 BF		    sta $BF
  1370 4703 A9 07		    lda #$07
  1371 4705 85 BE		    sta $BE
  1372 4707			loc_470A:
  1373 4707 AA			    tax
  1374 4708 0A			    asl
  1375 4709 A8			    tay
  1376 470A B9 9E 48		    lda $489E,y
  1377 470D 85 BC		    sta $BC
  1378 470F B9 9F 48		    lda $489F,y
  1379 4712 85 BD		    sta $BD
  1380 4714 A0 00		    ldy #$00
  1381 4716 8A			    txa
  1382 4717 4A			    lsr
  1383 4718 B0 07		    bcs loc_4724
  1384 471A 84 C1		    sty $C1
  1385 471C A9 B4		    lda #$B4
  1386 471E 4C 25 47		    jmp loc_4728
  1387 4721			loc_4724:
  1388 4721 A9 B7		    lda #$B7
  1389 4723 85 C1		    sta $C1
  1390 4725			loc_4728:
  1391 4725 E4 C0		    cpx $C0
  1392 4727 90 05		    bcc loc_4731
  1393 4729 29 7F		    and #$7F
  1394 472B 4C 30 47		    jmp loc_4733
  1395 472E			loc_4731:
  1396 472E 09 80		    ora #$80
  1397 4730			loc_4733:
  1398 4730 91 BC		    sta ($BC),y
  1399 4732 A5 C1		    lda $C1
  1400 4734 F0 0E		    beq loc_4747
  1401 4736 C8			    iny
  1402 4737 E4 C0		    cpx $C0
  1403 4739 90 05		    bcc loc_4743
  1404 473B A9 38		    lda #$38
  1405 473D 4C 42 47		    jmp loc_4745
  1406 4740			loc_4743:
  1407 4740 A9 B8		    lda #$B8
  1408 4742			loc_4745:
  1409 4742 91 BC		    sta ($BC),y
  1410 4744			loc_4747:
  1411 4744 C6 BE		    dec $BE
  1412 4746 A5 BE		    lda $BE
  1413 4748 C5 BF		    cmp $BF
  1414 474A D0 BB		    bne loc_470A
  1415 474C			loc_474F:
  1416 474C 60			    rts
  1417 474D			sub_4750:
  1418 474D AD 11 06		    lda $0611
  1419 4750			sub_4753:
  1420 4750 8D 11 06		    sta $0611
  1421 4753 48			    pha
  1422 4754 C9 08		    cmp #$08
  1423 4756 D0 05		    bne loc_4760
  1424 4758 A9 00		    lda #$00
  1425 475A 4C 65 47		    jmp loc_4768
  1426 475D			loc_4760:
  1427 475D 18			    clc
  1428 475E 6D 19 06		    adc $0619
  1429 4761 A8			    tay
  1430 4762 B9 7C 47		    lda $477C,y
  1431 4765			loc_4768:
  1432 4765 8D 87 28		    sta $2887
  1433 4768 68			    pla
  1434 4769			sub_476C:
  1435 4769 18			    clc
  1436 476A 69 08		    adc #$08
  1437 476C			sub_476F:
  1438 476C 85 C0		    sta $C0
  1439 476E A9 07		    lda #$07
  1440 4770 85 BF		    sta $BF
  1441 4772 A9 0F		    lda #$0F
  1442 4774 85 BE		    sta $BE
  1443 4776 4C 07 47		    jmp loc_470A
  1444 4779 D6 D1 CB C4 BC B3 +     .byte $D6,$D1,$CB,$C4,$BC,$B3,$A9,$9E,$92,$85,$77,$68,$57,$45,$32,$1E ; $477C
  1445 4789			sub_478C:
  1446 4789 AC 4A 28		    ldy $284A
  1447 478C CC 49 28		    cpy $2849
  1448 478F F0 44		    beq loc_47D8
  1449 4791 A9 00		    lda #$00
  1450 4793 A2 05		    ldx #$05
  1451 4795			loc_4798:
  1452 4795 99 98 0F		    sta $0F98,y
  1453 4798 C8			    iny
  1454 4799 CA			    dex
  1455 479A D0 F9		    bne loc_4798
  1456 479C AC 49 28		    ldy $2849
  1457 479F 30 04		    bmi loc_47A8
  1458 47A1 C0 2B		    cpy #$2B
  1459 47A3 90 01		    bcc loc_47A9
  1460 47A5			loc_47A8:
  1461 47A5 A8			    tay
  1462 47A6			loc_47A9:
  1463 47A6 8C 4A 28		    sty $284A
  1464 47A9 8C 49 28		    sty $2849
  1465 47AC 98			    tya
  1466 47AD F0 39		    beq loc_47EB
  1467 47AF AD 3D 28		    lda $283D
  1468 47B2 10 05		    bpl loc_47BC
  1469 47B4 A2 00		    ldx #$00
  1470 47B6 4C C5 47		    jmp loc_47C8
  1471 47B9			loc_47BC:
  1472 47B9 AD 3E 28		    lda $283E
  1473 47BC D0 05		    bne loc_47C6
  1474 47BE A2 05		    ldx #$05
  1475 47C0 4C C5 47		    jmp loc_47C8
  1476 47C3			loc_47C6:
  1477 47C3 A2 0A		    ldx #$0A
  1478 47C5			loc_47C8:
  1479 47C5 A9 05		    lda #$05
  1480 47C7 85 BC		    sta $BC
  1481 47C9			loc_47CC:
  1482 47C9 BD EC 47		    lda $47EC,x
  1483 47CC 99 98 0F		    sta $0F98,y
  1484 47CF E8			    inx
  1485 47D0 C8			    iny
  1486 47D1 C6 BC		    dec $BC
  1487 47D3 D0 F4		    bne loc_47CC
  1488 47D5			loc_47D8:
  1489 47D5 A0 00		    ldy #$00
  1490 47D7 AD 4B 28		    lda $284B
  1491 47DA C9 6C		    cmp #$6C
  1492 47DC 90 04		    bcc loc_47E5
  1493 47DE C9 8D		    cmp #$8D
  1494 47E0 90 01		    bcc loc_47E6
  1495 47E2			loc_47E5:
  1496 47E2 98			    tya
  1497 47E3			loc_47E6:
  1498 47E3 85 CD		    sta $CD
  1499 47E5 8C 0B D0		    sty SIZEP3
  1500 47E8			loc_47EB:
  1501 47E8 60			    rts
  1502 47E9 38 7C FE FE FE 0E +     .byte $38,$7C,$FE,$FE,$FE,$0E,$3E,$FE,$06,$1E,$E0,$F8,$FE,$C0,$F0 ; $47EC
  1503 47F8			sub_47FB:
  1504 47F8 A4 BA		    ldy $BA
  1505 47FA A9 1C		    lda #$1C
  1506 47FC 38			    sec
  1507 47FD ED F5 28		    sbc $28F5
  1508 4800 30 04		    bmi loc_4809
  1509 4802 C9 1D		    cmp #$1D
  1510 4804 90 02		    bcc loc_480B
  1511 4806			loc_4809:
  1512 4806 A9 1E		    lda #$1E
  1513 4808			loc_480B:
  1514 4808 85 BA		    sta $BA
  1515 480A C4 BA		    cpy $BA
  1516 480C F0 1E		    beq loc_482F
  1517 480E A2 03		    ldx #$03
  1518 4810			loc_4813:
  1519 4810 B9 91 0B		    lda $0B91,y
  1520 4813 29 CF		    and #$CF
  1521 4815 99 91 0B		    sta $0B91,y
  1522 4818 C8			    iny
  1523 4819 CA			    dex
  1524 481A D0 F4		    bne loc_4813
  1525 481C A4 BA		    ldy $BA
  1526 481E A2 03		    ldx #$03
  1527 4820			loc_4823:
  1528 4820 B9 91 0B		    lda $0B91,y
  1529 4823 09 30		    ora #$30
  1530 4825 99 91 0B		    sta $0B91,y
  1531 4828 C8			    iny
  1532 4829 CA			    dex
  1533 482A D0 F4		    bne loc_4823
  1534 482C			loc_482F:
  1535 482C AD F4 28		    lda $28F4
  1536 482F 18			    clc
  1537 4830 69 AB		    adc #$AB
  1538 4832 C9 A3		    cmp #$A3
  1539 4834 90 04		    bcc loc_483D
  1540 4836 C9 B4		    cmp #$B4
  1541 4838 90 02		    bcc loc_483F
  1542 483A			loc_483D:
  1543 483A A9 B5		    lda #$B5
  1544 483C			loc_483F:
  1545 483C 85 CF		    sta $CF
  1546 483E 60			    rts
  1547 483F			loc_4842:
  1548 483F 85 BC		    sta $BC
  1549 4841 86 BE		    stx $BE
  1550 4843 29 03		    and #$03
  1551 4845 05 BE		    ora $BE
  1552 4847 85 BE		    sta $BE
  1553 4849 29 04		    and #$04
  1554 484B 49 04		    eor #$04
  1555 484D AA			    tax
  1556 484E 46 BC		    lsr $BC
  1557 4850 46 BC		    lsr $BC
  1558 4852 98			    tya
  1559 4853 05 BC		    ora $BC
  1560 4855 85 BC		    sta $BC
  1561 4857 A9 0E		    lda #$0E
  1562 4859 85 C0		    sta $C0
  1563 485B			loc_485E:
  1564 485B C4 BC		    cpy $BC
  1565 485D 90 07		    bcc loc_4869
  1566 485F A6 BE		    ldx $BE
  1567 4861 8A			    txa
  1568 4862 29 04		    and #$04
  1569 4864 85 BE		    sta $BE
  1570 4866			loc_4869:
  1571 4866 BD DF 52		    lda $52DF,x
  1572 4869 99 59 21		    sta $2159,y
  1573 486C 99 89 21		    sta $2189,y
  1574 486F C8			    iny
  1575 4870 C6 C0		    dec $C0
  1576 4872 D0 E7		    bne loc_485E
  1577 4874 60			    rts
  1578 4875 D2 BD A8 93 7E 69 +     .byte $D2,$BD,$A8,$93,$7E,$69,$54,$3F,$2A,$15,$00,$03,$01,$01,$00,$08 ; $4878
  1579 4885 08 03 07 0F 1F 3F +     .byte $08,$03,$07,$0F,$1F,$3F,$7F,$FF,$FE,$FC,$F8,$F0,$E0,$C0,$80,$03 ; $4888
  1580 4895 1F FF FF FF F0 C0 +     .byte $1F,$FF,$FF,$FF,$F0,$C0,$64,$33,$94,$33,$C5,$33,$F5,$33,$26,$34 ; $4898
  1581 48A5 56 34 87 34 B7 34 +     .byte $56,$34,$87,$34,$B7,$34,$92,$33,$C2,$33,$F3,$33,$23,$34,$54,$34 ; $48A8
  1582 48B5 84 34 B5 34 E5 34	    .byte $84,$34,$B5,$34,$E5,$34                          ; $48B8
  1583 48BB			sub_48BE:
  1584 48BB A9 98		    lda #$98
  1585 48BD 85 C2		    sta $C2
  1586 48BF A9 20		    lda #$20
  1587 48C1 85 C3		    sta $C3
  1588 48C3 A2 08		    ldx #$08
  1589 48C5			loc_48C8:
  1590 48C5 A0 1F		    ldy #$1F
  1591 48C7 A9 FF		    lda #$FF
  1592 48C9			loc_48CC:
  1593 48C9 91 C2		    sta ($C2),y
  1594 48CB 88			    dey
  1595 48CC 10 FB		    bpl loc_48CC
  1596 48CE 18			    clc
  1597 48CF A5 C2		    lda $C2
  1598 48D1 69 30		    adc #$30
  1599 48D3 85 C2		    sta $C2
  1600 48D5 A5 C3		    lda $C3
  1601 48D7 69 00		    adc #$00
  1602 48D9 85 C3		    sta $C3
  1603 48DB CA			    dex
  1604 48DC D0 E7		    bne loc_48C8
  1605 48DE 60			    rts
  1606 48DF			sub_48E2:
  1607 48DF A9 BE		    lda #$BE
  1608 48E1 8D 07 21		    sta $2107
  1609 48E4 8D 08 21		    sta $2108
  1610 48E7 8D 37 21		    sta $2137
  1611 48EA 8D 38 21		    sta $2138
  1612 48ED 8D C7 21		    sta $21C7
  1613 48F0 8D C8 21		    sta $21C8
  1614 48F3 8D F7 21		    sta $21F7
  1615 48F6 8D F8 21		    sta $21F8
  1616 48F9 A9 AA		    lda #$AA
  1617 48FB 8D 67 21		    sta $2167
  1618 48FE 8D 68 21		    sta $2168
  1619 4901 8D 97 21		    sta $2197
  1620 4904 8D 98 21		    sta $2198
  1621 4907 60			    rts
  1622 4908			sub_490B:
  1623 4908 A0 07		    ldy #$07
  1624 490A			loc_490D:
  1625 490A B9 CF 50		    lda $50CF,y
  1626 490D 99 88 0C		    sta $0C88,y
  1627 4910 B9 D7 50		    lda $50D7,y
  1628 4913 99 88 0D		    sta $0D88,y
  1629 4916 B9 DF 50		    lda $50DF,y
  1630 4919 99 88 0B		    sta $0B88,y
  1631 491C 88			    dey
  1632 491D 10 EB		    bpl loc_490D
  1633 491F 60			    rts
  1634 4920			sub_4923:
  1635 4920 A0 03		    ldy #$03
  1636 4922 A9 01		    lda #$01
  1637 4924			loc_4927:
  1638 4924 99 E3 32		    sta $32E3,y
  1639 4927 88			    dey
  1640 4928 10 FA		    bpl loc_4927
  1641 492A A9 B4		    lda #$B4
  1642 492C 8D 55 33		    sta $3355
  1643 492F 8D 88 33		    sta $3388
  1644 4932 A9 B5		    lda #$B5
  1645 4934 8D 56 33		    sta $3356
  1646 4937 A9 B6		    lda #$B6
  1647 4939 8D 57 33		    sta $3357
  1648 493C 60			    rts
  1649 493D			irq_handler:
  1650 493D 2C 0E D2		    bit IRQST
  1651 4940 70 06		    bvs loc_494B
  1652 4942 AD 09 D2		    lda KBCODE
  1653 4945 29 3F		    and #$3F
  1654 4947 AA			    tax
  1655 4948			loc_494B:
  1656 4948 A9 00		    lda #$00
  1657 494A 8D 0E D2		    sta IRQEN
  1658 494D A9 C0		    lda #$C0
  1659 494F 8D 0E D2		    sta IRQEN
  1660 4952 40			    rti
  1661 4953			sub_4956:
  1662 4953 A9 00		    lda #$00
  1663 4955 AC 31 06		    ldy $0631
  1664 4958 8D 31 06		    sta $0631
  1665 495B 85 E0		    sta FR1
  1666 495D 10 0B		    bpl loc_496D
  1667 495F A0 0F		    ldy #$0F
  1668 4961			loc_4964:
  1669 4961 B9 41 07		    lda $0741,y
  1670 4964 99 D0 00		    sta $00D0,y
  1671 4967 88			    dey
  1672 4968 10 F7		    bpl loc_4964
  1673 496A			loc_496D:
  1674 496A 8A			    txa
  1675 496B A0 07		    ldy #$07
  1676 496D			loc_4970:
  1677 496D D9 44 4B		    cmp $4B44,y
  1678 4970 D0 03		    bne loc_4978
  1679 4972 4C 79 49		    jmp loc_497C
  1680 4975			loc_4978:
  1681 4975 88			    dey
  1682 4976 10 F5		    bpl loc_4970
  1683 4978			loc_497B:
  1684 4978 60			    rts
  1685 4979			loc_497C:
  1686 4979 C0 06		    cpy #$06
  1687 497B D0 20		    bne loc_49A0
  1688 497D AD 32 06		    lda $0632
  1689 4980 0D 1C 06		    ora $061C
  1690 4983 F0 17		    beq loc_499F
  1691 4985			loc_4988:
  1692 4985 A9 B2		    lda #$B2
  1693 4987 8D 22 02		    sta VVBLKI
  1694 498A A9 82		    lda #$82
  1695 498C 8D 23 02		    sta $0223
  1696 498F A9 3C		    lda #$3C
  1697 4991 48			    pha
  1698 4992 A9 0D		    lda #$0D
  1699 4994 48			    pha
  1700 4995 A9 04		    lda #$04
  1701 4997 48			    pha
  1702 4998 40			    rti
  1703 4999 4C A0 49		    .byte $4C,$A0,$49                                      ; $499C
  1704 499C			loc_499F:
  1705 499C 60			    rts
  1706 499D			loc_49A0:
  1707 499D AD 1C 06		    lda $061C
  1708 49A0 D0 D6		    bne loc_497B
  1709 49A2 C0 07		    cpy #$07
  1710 49A4 D0 44		    bne loc_49ED
  1711 49A6 AC 32 06		    ldy $0632
  1712 49A9 D0 2B		    bne loc_49D9
  1713 49AB AD 2A 06		    lda $062A
  1714 49AE D0 EC		    bne loc_499F
  1715 49B0 AD 26 06		    lda $0626
  1716 49B3 8D 27 06		    sta $0627
  1717 49B6 8C 26 06		    sty $0626
  1718 49B9 98			    tya
  1719 49BA A2 06		    ldx #$06
  1720 49BC			loc_49BF:
  1721 49BC 9D 01 D2		    sta AUDC1,x
  1722 49BF CA			    dex
  1723 49C0 CA			    dex
  1724 49C1 10 F9		    bpl loc_49BF
  1725 49C3 20 82 4C		    jsr sub_4C85
  1726 49C6 EE 32 06		    inc $0632
  1727 49C9 A9 83		    lda #$83
  1728 49CB 48			    pha
  1729 49CC A9 48		    lda #$48
  1730 49CE 48			    pha
  1731 49CF A9 04		    lda #$04
  1732 49D1 48			    pha
  1733 49D2 40			    rti
  1734 49D3 4C ED 49		    .byte $4C,$ED,$49                                      ; $49D6
  1735 49D6			loc_49D9:
  1736 49D6 A9 00		    lda #$00
  1737 49D8 8D 32 06		    sta $0632
  1738 49DB AD 27 06		    lda $0627
  1739 49DE 8D 26 06		    sta $0626
  1740 49E1 A0 08		    ldy #$08
  1741 49E3			loc_49E6:
  1742 49E3 68			    pla
  1743 49E4 88			    dey
  1744 49E5 D0 FC		    bne loc_49E6
  1745 49E7 4C 9D 8E		    jmp sub_8E9D
  1746 49EA			loc_49ED:
  1747 49EA AD 32 06		    lda $0632
  1748 49ED D0 AD		    bne loc_499F
  1749 49EF A9 21		    lda #$21
  1750 49F1 85 E0		    sta FR1
  1751 49F3 CC 5F 06		    cpy $065F
  1752 49F6 F0 50		    beq loc_4A4B
  1753 49F8 C0 03		    cpy #$03
  1754 49FA D0 22		    bne loc_4A21
  1755 49FC AD A4 28		    lda $28A4
  1756 49FF C9 02		    cmp #$02
  1757 4A01 90 45		    bcc loc_4A4B
  1758 4A03 AD A5 28		    lda $28A5
  1759 4A06 D0 0B		    bne loc_4A16
  1760 4A08 20 82 4C		    jsr sub_4C85
  1761 4A0B EE A5 28		    inc $28A5
  1762 4A0E A9 0B		    lda #$0B
  1763 4A10 4C 1A 4A		    jmp loc_4A1D
  1764 4A13			loc_4A16:
  1765 4A13 A9 00		    lda #$00
  1766 4A15 8D A5 28		    sta $28A5
  1767 4A18 A9 0E		    lda #$0E
  1768 4A1A			loc_4A1D:
  1769 4A1A 8D 35 06		    sta $0635
  1770 4A1D 60			    rts
  1771 4A1E			loc_4A21:
  1772 4A1E C0 01		    cpy #$01
  1773 4A20 D0 39		    bne loc_4A5E
  1774 4A22 AD 29 06		    lda $0629
  1775 4A25 F0 0B		    beq loc_4A35
  1776 4A27 A0 71		    ldy #$71
  1777 4A29 A9 28		    lda #$28
  1778 4A2B 8D 37 06		    sta $0637
  1779 4A2E A2 17		    ldx #$17
  1780 4A30 D0 24		    bne loc_4A59
  1781 4A32			loc_4A35:
  1782 4A32 AD A5 28		    lda $28A5
  1783 4A35 F0 11		    beq loc_4A4B
  1784 4A37 AD A3 28		    lda $28A3
  1785 4A3A F0 10		    beq loc_4A4F
  1786 4A3C 30 0A		    bmi loc_4A4B
  1787 4A3E CE A3 28		    dec $28A3
  1788 4A41 A9 B4		    lda #$B4
  1789 4A43 A0 0A		    ldy #$0A
  1790 4A45 4C 49 4A		    jmp loc_4A4C
  1791 4A48			loc_4A4B:
  1792 4A48 60			    rts
  1793 4A49			loc_4A4C:
  1794 4A49 4C 51 4A		    jmp loc_4A54
  1795 4A4C			loc_4A4F:
  1796 4A4C EE A3 28		    inc $28A3
  1797 4A4F A9 34		    lda #$34
  1798 4A51			loc_4A54:
  1799 4A51 8D 88 33		    sta $3388
  1800 4A54 A2 16		    ldx #$16
  1801 4A56			loc_4A59:
  1802 4A56 86 E0		    stx FR1
  1803 4A58 4C E4 4A		    jmp sub_4AE7
  1804 4A5B			loc_4A5E:
  1805 4A5B C0 02		    cpy #$02
  1806 4A5D D0 03		    bne loc_4A65
  1807 4A5F 4C 51 4C		    jmp loc_4C54
  1808 4A62			loc_4A65:
  1809 4A62 AD 25 06		    lda $0625
  1810 4A65 F0 E1		    beq loc_4A4B
  1811 4A67 C0 04		    cpy #$04
  1812 4A69 D0 36		    bne loc_4AA4
  1813 4A6B AD A4 28		    lda $28A4
  1814 4A6E F0 1E		    beq loc_4A91
  1815 4A70 A9 00		    lda #$00
  1816 4A72 8D 8B 28		    sta $288B
  1817 4A75 8D 8C 28		    sta $288C
  1818 4A78 CD A5 28		    cmp $28A5
  1819 4A7B D0 06		    bne loc_4A86
  1820 4A7D 8D A4 28		    sta $28A4
  1821 4A80 4C 86 4A		    jmp loc_4A89
  1822 4A83			loc_4A86:
  1823 4A83 8D A5 28		    sta $28A5
  1824 4A86			loc_4A89:
  1825 4A86 A9 07		    lda #$07
  1826 4A88 20 50 47		    jsr sub_4753
  1827 4A8B 4C 99 4A		    jmp loc_4A9C
  1828 4A8E			loc_4A91:
  1829 4A8E AD 11 06		    lda $0611
  1830 4A91 F0 06		    beq loc_4A9C
  1831 4A93 CE 11 06		    dec $0611
  1832 4A96 20 4D 47		    jsr sub_4750
  1833 4A99			loc_4A9C:
  1834 4A99 A9 FF		    lda #$FF
  1835 4A9B 8D 5F 06		    sta $065F
  1836 4A9E 4C 36 4B		    jmp sub_4B39
  1837 4AA1			loc_4AA4:
  1838 4AA1 AD A4 28		    lda $28A4
  1839 4AA4 D0 A2		    bne loc_4A4B
  1840 4AA6 C0 05		    cpy #$05
  1841 4AA8 D0 15		    bne loc_4AC2
  1842 4AAA A9 06		    lda #$06
  1843 4AAC CD 11 06		    cmp $0611
  1844 4AAF 90 06		    bcc loc_4ABA
  1845 4AB1 EE 11 06		    inc $0611
  1846 4AB4 20 4D 47		    jsr sub_4750
  1847 4AB7			loc_4ABA:
  1848 4AB7 A9 FF		    lda #$FF
  1849 4AB9 8D 5F 06		    sta $065F
  1850 4ABC 4C 36 4B		    jmp sub_4B39
  1851 4ABF			loc_4AC2:
  1852 4ABF C0 00		    cpy #$00
  1853 4AC1 D0 1E		    bne loc_4AE4
  1854 4AC3 AD 1D 06		    lda $061D
  1855 4AC6 C9 64		    cmp #$64
  1856 4AC8 90 0B		    bcc loc_4AD8
  1857 4ACA A9 1C		    lda #$1C
  1858 4ACC 85 E0		    sta FR1
  1859 4ACE A0 C5		    ldy #$C5
  1860 4AD0 A9 FF		    lda #$FF
  1861 4AD2 4C DE 4A		    jmp loc_4AE1
  1862 4AD5			loc_4AD8:
  1863 4AD5 A9 08		    lda #$08
  1864 4AD7 20 50 47		    jsr sub_4753
  1865 4ADA A9 00		    lda #$00
  1866 4ADC A0 04		    ldy #$04
  1867 4ADE			loc_4AE1:
  1868 4ADE 4C 78 4C		    jmp loc_4C7B
  1869 4AE1			loc_4AE4:
  1870 4AE1 8C 5F 06		    sty $065F
  1871 4AE4			sub_4AE7:
  1872 4AE4 98			    tya
  1873 4AE5 29 20		    and #$20
  1874 4AE7 D0 05		    bne loc_4AF1
  1875 4AE9 A9 C8		    lda #$C8
  1876 4AEB 4C F1 4A		    jmp loc_4AF4
  1877 4AEE			loc_4AF1:
  1878 4AEE AD 37 06		    lda $0637
  1879 4AF1			loc_4AF4:
  1880 4AF1 85 D9		    sta QTEMP
  1881 4AF3 98			    tya
  1882 4AF4 29 DF		    and #$DF
  1883 4AF6 A8			    tay
  1884 4AF7			sub_4AFA:
  1885 4AF7 98			    tya
  1886 4AF8 10 06		    bpl loc_4B03
  1887 4AFA 29 7F		    and #$7F
  1888 4AFC A8			    tay
  1889 4AFD 4C 03 4B		    jmp loc_4B06
  1890 4B00			loc_4B03:
  1891 4B00 20 36 4B		    jsr sub_4B39
  1892 4B03			loc_4B06:
  1893 4B03 A9 00		    lda #$00
  1894 4B05 8D 35 06		    sta $0635
  1895 4B08 A9 FF		    lda #$FF
  1896 4B0A 8D 36 06		    sta $0636
  1897 4B0D C0 40		    cpy #$40
  1898 4B0F 90 09		    bcc loc_4B1D
  1899 4B11 98			    tya
  1900 4B12 29 3F		    and #$3F
  1901 4B14 A8			    tay
  1902 4B15 A9 5A		    lda #$5A
  1903 4B17 8D 36 06		    sta $0636
  1904 4B1A			loc_4B1D:
  1905 4B1A C0 09		    cpy #$09
  1906 4B1C D0 04		    bne loc_4B25
  1907 4B1E A9 38		    lda #$38
  1908 4B20 85 D9		    sta QTEMP
  1909 4B22			loc_4B25:
  1910 4B22 BE 41 4C		    ldx $4C41,y
  1911 4B25 A0 00		    ldy #$00
  1912 4B27			loc_4B2A:
  1913 4B27 BD 4C 4B		    lda $4B4C,x
  1914 4B2A 30 09		    bmi loc_4B38
  1915 4B2C 99 B7 32		    sta $32B7,y
  1916 4B2F C8			    iny
  1917 4B30 E8			    inx
  1918 4B31 C0 0E		    cpy #$0E
  1919 4B33 D0 F2		    bne loc_4B2A
  1920 4B35			loc_4B38:
  1921 4B35 60			    rts
  1922 4B36			sub_4B39:
  1923 4B36 A2 0E		    ldx #$0E
  1924 4B38 A9 00		    lda #$00
  1925 4B3A			loc_4B3D:
  1926 4B3A 9D B6 32		    sta $32B6,x
  1927 4B3D CA			    dex
  1928 4B3E D0 FA		    bne loc_4B3D
  1929 4B40 60			    rts
  1930 4B41 00 3F 15 2A 07 06 +     .byte $00,$3F,$15,$2A,$07,$06,$34,$1C,$21,$2C,$29,$25,$2E,$00,$2B,$29 ; $4B44
  1931 4B51 2C 2C 25 24 FF 21 +     .byte $2C,$2C,$25,$24,$FF,$21,$29,$32,$2C,$2F,$23,$2B,$00,$2F,$30,$25 ; $4B54
  1932 4B61 2E 25 24 26 29 32 +     .byte $2E,$25,$24,$26,$29,$32,$25,$00,$22,$2F,$2F,$33,$34,$25,$32,$33 ; $4B64
  1933 4B71 FF 2C 25 36 25 2C +     .byte $FF,$2C,$25,$36,$25,$2C,$00,$23,$2F,$2D,$30,$2C,$25,$34,$25,$2E ; $4B74
  1934 4B81 2F 37 00 2C 21 2E +     .byte $2F,$37,$00,$2C,$21,$2E,$24,$29,$2E,$27,$0E,$0E,$0E,$0A,$0A,$00 ; $4B84
  1935 4B91 34 2F 2F 00 28 29 +     .byte $34,$2F,$2F,$00,$28,$29,$27,$28,$00,$0A,$0A,$30,$29,$2C,$2F,$34 ; $4B94
  1936 4BA1 00 29 2E 00 32 21 +     .byte $00,$29,$2E,$00,$32,$21,$2E,$27,$25,$30,$29,$2C,$2F,$34,$00,$34 ; $4BA4
  1937 4BB1 2F 2F 00 26 21 32 +     .byte $2F,$2F,$00,$26,$21,$32,$00,$33,$28,$29,$30,$00,$2F,$26,$26,$00 ; $4BB4
  1938 4BC1 33 23 2F 30 25 30 +     .byte $33,$23,$2F,$30,$25,$30,$29,$2C,$2F,$34,$00,$2B,$29,$2C,$2C,$25 ; $4BC4
  1939 4BD1 24 01 FF 21 29 32 +     .byte $24,$01,$FF,$21,$29,$32,$2C,$2F,$23,$2B,$00,$23,$2C,$2F,$33,$25 ; $4BD4
  1940 4BE1 24 25 2E 27 29 2E +     .byte $24,$25,$2E,$27,$29,$2E,$25,$33,$00,$2F,$26,$26,$FF,$22,$2F,$2E ; $4BE4
  1941 4BF1 35 33 00 30 2F 29 +     .byte $35,$33,$00,$30,$2F,$29,$2E,$34,$33,$FF,$2E,$2F,$00,$2D,$2F,$34 ; $4BF4
  1942 4C01 28 25 32 00 33 28 +     .byte $28,$25,$32,$00,$33,$28,$29,$30,$01,$FF,$25,$2E,$27,$29,$2E,$25 ; $4C04
  1943 4C11 33 00 2F 2E FF 33 +     .byte $33,$00,$2F,$2E,$FF,$33,$39,$33,$34,$25,$2D,$33,$00,$2F,$26,$26 ; $4C14
  1944 4C21 FF 21 2C 29 25 2E +     .byte $FF,$21,$2C,$29,$25,$2E,$00,$29,$2E,$00,$33,$28,$29,$30,$01,$21 ; $4C24
  1945 4C31 29 32 2C 2F 23 2B +     .byte $29,$32,$2C,$2F,$23,$2B,$00,$2A,$21,$2D,$2D,$25,$24,$00,$0D,$1B ; $4C34
  1946 4C41 29 37 45 53 61 6F +     .byte $29,$37,$45,$53,$61,$6F,$7D,$8B,$99,$A5,$B2,$C2,$CD,$D9,$E7,$B5 ; $4C44
  1947 4C51			loc_4C54:
  1948 4C51 AD 82 28		    lda $2882
  1949 4C54 30 08		    bmi loc_4C61
  1950 4C56 A0 1C		    ldy #$1C
  1951 4C58 84 E0		    sty FR1
  1952 4C5A A0 CD		    ldy #$CD
  1953 4C5C D0 1D		    bne loc_4C7E
  1954 4C5E			loc_4C61:
  1955 4C5E 84 BC		    sty $BC
  1956 4C60 A9 01		    lda #$01
  1957 4C62 20 94 8E		    jsr sub_8E94
  1958 4C65 A9 00		    lda #$00
  1959 4C67 CD A5 28		    cmp $28A5
  1960 4C6A D0 06		    bne loc_4C75
  1961 4C6C 8D A4 28		    sta $28A4
  1962 4C6F 4C 75 4C		    jmp loc_4C78
  1963 4C72			loc_4C75:
  1964 4C72 8D A5 28		    sta $28A5
  1965 4C75			loc_4C78:
  1966 4C75 A4 BC		    ldy $BC
  1967 4C77 98			    tya
  1968 4C78			loc_4C7B:
  1969 4C78 8D 5F 06		    sta $065F
  1970 4C7B			loc_4C7E:
  1971 4C7B A9 48		    lda #$48
  1972 4C7D 85 D9		    sta QTEMP
  1973 4C7F 4C F7 4A		    jmp sub_4AFA
  1974 4C82			sub_4C85:
  1975 4C82 A0 0F		    ldy #$0F
  1976 4C84			loc_4C87:
  1977 4C84 B9 D0 00		    lda $00D0,y
  1978 4C87 99 41 07		    sta $0741,y
  1979 4C8A 88			    dey
  1980 4C8B 10 F7		    bpl loc_4C87
  1981 4C8D 60			    rts
  1982 4C8E			sub_4C91:
  1983 4C8E F8			    sed
  1984 4C8F AD 05 06		    lda $0605
  1985 4C92 18			    clc
  1986 4C93 6D 38 06		    adc $0638
  1987 4C96 8D 05 06		    sta $0605
  1988 4C99 AD 04 06		    lda $0604
  1989 4C9C 6D 39 06		    adc $0639
  1990 4C9F 8D 04 06		    sta $0604
  1991 4CA2 AD 03 06		    lda $0603
  1992 4CA5 69 00		    adc #$00
  1993 4CA7 8D 03 06		    sta $0603
  1994 4CAA D8			    cld
  1995 4CAB A9 C5		    lda #$C5
  1996 4CAD 85 C6		    sta $C6
  1997 4CAF A9 32		    lda #$32
  1998 4CB1 85 C7		    sta $C7
  1999 4CB3			sub_4CB6:
  2000 4CB3 AD 03 06		    lda $0603
  2001 4CB6 20 C5 4C		    jsr sub_4CC8
  2002 4CB9 AD 04 06		    lda $0604
  2003 4CBC 20 CF 4C		    jsr sub_4CD2
  2004 4CBF AD 05 06		    lda $0605
  2005 4CC2 4C CF 4C		    jmp sub_4CD2
  2006 4CC5			sub_4CC8:
  2007 4CC5 A0 00		    ldy #$00
  2008 4CC7 8C 38 06		    sty $0638
  2009 4CCA 8C 39 06		    sty $0639
  2010 4CCD A2 00		    ldx #$00
  2011 4CCF			sub_4CD2:
  2012 4CCF 48			    pha
  2013 4CD0 4A			    lsr
  2014 4CD1 4A			    lsr
  2015 4CD2 4A			    lsr
  2016 4CD3 4A			    lsr
  2017 4CD4 20 DA 4C		    jsr sub_4CDD
  2018 4CD7 68			    pla
  2019 4CD8 29 0F		    and #$0F
  2020 4CDA			sub_4CDD:
  2021 4CDA E0 00		    cpx #$00
  2022 4CDC D0 09		    bne loc_4CEA
  2023 4CDE C9 00		    cmp #$00
  2024 4CE0 D0 04		    bne loc_4CE9
  2025 4CE2 C0 05		    cpy #$05
  2026 4CE4 90 06		    bcc loc_4CEF
  2027 4CE6			loc_4CE9:
  2028 4CE6 E8			    inx
  2029 4CE7			loc_4CEA:
  2030 4CE7 18			    clc
  2031 4CE8 69 50		    adc #$50
  2032 4CEA 91 C6		    sta ($C6),y
  2033 4CEC			loc_4CEF:
  2034 4CEC C8			    iny
  2035 4CED 60			    rts
  2036 4CEE			dli_dispatch:
  2037 4CEE 85 C9		    sta $C9
  2038 4CF0 84 CB		    sty $CB
  2039 4CF2 A5 C8		    lda $C8
  2040 4CF4 0A			    asl
  2041 4CF5 A8			    tay
  2042 4CF6 B9 D3 4D		    lda dli_dispatch_table,y
  2043 4CF9 85 E1		    sta FR1M
  2044 4CFB B9 D7 4D		    lda $4DD7,y
  2045 4CFE 85 E2		    sta $E2
  2046 4D00 6C E1 00		    jmp (FR1M)
  2047 4D03			loc_4D06:
  2048 4D03 E6 C8		    inc $C8
  2049 4D05 A4 CB		    ldy $CB
  2050 4D07 A5 C9		    lda $C9
  2051 4D09 40			    rti
  2052 4D0A			dli_stage0:
  2053 4D0A A5 D5		    lda FR0M
  2054 4D0C 8D 17 D0		    sta COLPF1
  2055 4D0F EA			    nop
  2056 4D10 A9 38		    lda #$38
  2057 4D12 8D 09 D4		    sta CHBASE
  2058 4D15 A5 D0		    lda $D0
  2059 4D17 8D 16 D0		    sta COLPF0
  2060 4D1A 4C 03 4D		    jmp loc_4D06
  2061 4D1D			dli_stage1:
  2062 4D1D A9 39		    lda #$39
  2063 4D1F 8D 00 D0		    sta HPOSP0
  2064 4D22 A9 BF		    lda #$BF
  2065 4D24 8D 01 D0		    sta HPOSP1
  2066 4D27 A5 DB		    lda $DB
  2067 4D29 8D 17 D0		    sta COLPF1
  2068 4D2C A5 DE		    lda $DE
  2069 4D2E 8D 16 D0		    sta COLPF0
  2070 4D31 A5 DC		    lda $DC
  2071 4D33 8D 18 D0		    sta COLPF2
  2072 4D36 A5 DD		    lda $DD
  2073 4D38 8D 1A D0		    sta COLBK
  2074 4D3B 4C 03 4D		    jmp loc_4D06
  2075 4D3E			dli_stage2:
  2076 4D3E A9 C0		    lda #$C0
  2077 4D40 8D 0C D0		    sta SIZEM
  2078 4D43 A9 BE		    lda #$BE
  2079 4D45 8D 05 D0		    sta HPOSM1
  2080 4D48 86 CA		    stx $CA
  2081 4D4A A6 D5		    ldx FR0M
  2082 4D4C A5 D0		    lda $D0
  2083 4D4E A0 01		    ldy #$01
  2084 4D50 8D 12 D0		    sta COLPM0
  2085 4D53 8C 08 D0		    sty SIZEP0
  2086 4D56 8D 13 D0		    sta COLPM1
  2087 4D59 A9 30		    lda #$30
  2088 4D5B 8D 00 D0		    sta HPOSP0
  2089 4D5E 8E 18 D0		    stx COLPF2
  2090 4D61 A9 02		    lda #$02
  2091 4D63 8D 1B D0		    sta PRIOR
  2092 4D66 8C 09 D0		    sty SIZEP1
  2093 4D69 A9 C0		    lda #$C0
  2094 4D6B 8D 01 D0		    sta HPOSP1
  2095 4D6E 8C 0A D0		    sty SIZEP2
  2096 4D71 A6 CA		    ldx $CA
  2097 4D73 4C 03 4D		    jmp loc_4D06
  2098 4D76			dli_stage3:
  2099 4D76 86 CA		    stx $CA
  2100 4D78 A4 D0		    ldy $D0
  2101 4D7A A6 D2		    ldx $D2
  2102 4D7C A5 D1		    lda $D1
  2103 4D7E 8D 14 D0		    sta COLPM2
  2104 4D81 A5 D5		    lda FR0M
  2105 4D83 8D 0A D4		    sta WSYNC
  2106 4D86 8C 16 D0		    sty COLPF0
  2107 4D89 8D 17 D0		    sta COLPF1
  2108 4D8C 8E 18 D0		    stx COLPF2
  2109 4D8F A5 D3		    lda $D3
  2110 4D91 8D 1A D0		    sta COLBK
  2111 4D94 A9 4C		    lda #$4C
  2112 4D96 8D 02 D0		    sta HPOSP2
  2113 4D99 A9 5C		    lda #$5C
  2114 4D9B 8D 00 D0		    sta HPOSP0
  2115 4D9E A5 D6		    lda $D6
  2116 4DA0 8D 12 D0		    sta COLPM0
  2117 4DA3 A5 D7		    lda $D7
  2118 4DA5 8D 15 D0		    sta COLPM3
  2119 4DA8 A9 94		    lda #$94
  2120 4DAA 8D 01 D0		    sta HPOSP1
  2121 4DAD A5 DF		    lda $DF
  2122 4DAF 8D 13 D0		    sta COLPM1
  2123 4DB2 A5 CD		    lda $CD
  2124 4DB4 8D 03 D0		    sta HPOSP3
  2125 4DB7 A9 04		    lda #$04
  2126 4DB9 8D 1B D0		    sta PRIOR
  2127 4DBC A6 CA		    ldx $CA
  2128 4DBE A9 64		    lda #$64
  2129 4DC0 8D 07 D0		    sta HPOSM3
  2130 4DC3 A5 CF		    lda $CF
  2131 4DC5 8D 06 D0		    sta HPOSM2
  2132 4DC8 4C 03 4D		    jmp loc_4D06
  2133 4DCB A5 D4 8D 1A D0 4C +     .byte $A5,$D4,$8D,$1A,$D0,$4C,$06,$4D                  ; $4DCE
  2134 4DD3			dli_dispatch_table:
  2135 4DD3 12 4D 20 4D 41 4D +     .byte $12,$4D,$20,$4D,$41,$4D,$79,$4D                  ; $4DD6
  2136 4DDB CE 4D 51 46 42 0B +     .byte $CE,$4D,$51,$46,$42,$0B,$43,$44                  ; $4DDE
  2137 4DE3 03 04 45 46 05 06 +     .byte $03,$04,$45,$46,$05,$06,$49,$46,$07,$08,$4F,$50,$0F,$10,$47,$48 ; $4DE6
  2138 4DF3 07 08 4B 4A 09 08 +     .byte $07,$08,$4B,$4A,$09,$08,$4D,$4E,$0D,$0E,$4C,$46,$09,$08,$4C,$46 ; $4DF6
  2139 4E03 07 0C 39 73 74 76 +     .byte $07,$0C,$39,$73,$74,$76,$60,$73,$74,$76,$66,$73,$74,$76,$6D,$73 ; $4E06
  2140 4E13 74 76 39 73 74 3B +     .byte $74,$76,$39,$73,$74,$3B,$76,$77,$3A,$61,$76,$77,$67,$68,$76,$77 ; $4E16
  2141 4E23 3A 6E 76 77 3A 3B +     .byte $3A,$6E,$76,$77,$3A,$3B,$76,$77,$3D,$78,$79,$62,$63,$78,$79,$69 ; $4E26
  2142 4E33 6A 78 79 6F 70 78 +     .byte $6A,$78,$79,$6F,$70,$78,$79,$3C,$3D,$78,$79,$3F,$7B,$73,$64,$3F ; $4E36
  2143 4E43 7B 73 6B 6C 7B 73 +     .byte $7B,$73,$6B,$6C,$7B,$73,$71,$72,$7B,$73,$3E,$3F,$7B,$73,$01,$01 ; $4E46
  2144 4E53 01 03 03 03 07 07 +     .byte $01,$03,$03,$03,$07,$07,$07,$0F,$0F,$0F,$1F,$1F,$1F,$3F,$3F,$3F ; $4E56
  2145 4E63 7F 7F 7F 00 00 00 +     .byte $7F,$7F,$7F,$00,$00,$00,$00,$01,$01,$03,$03,$07,$07,$0F,$0F,$1F ; $4E66
  2146 4E73 1F 3F 3F 7F 7F FF +     .byte $1F,$3F,$3F,$7F,$7F,$FF,$FF,$FF,$00,$00,$00,$00,$00,$00,$01,$01 ; $4E76
  2147 4E83 03 07 07 0F 1F 1F +     .byte $03,$07,$07,$0F,$1F,$1F,$3F,$7F,$7F,$FF,$FF,$FF,$FF,$00,$00,$00 ; $4E86
  2148 4E93 00 00 00 00 00 01 +     .byte $00,$00,$00,$00,$00,$01,$03,$07,$0F,$1F,$3F,$7F,$FF,$FF,$FF,$FF ; $4E96
  2149 4EA3 FF FF 00 00 00 00 +     .byte $FF,$FF,$00,$00,$00,$00,$00,$00,$00,$00,$00,$00,$03,$0F,$3F,$FF ; $4EA6
  2150 4EB3 FF FF FF FF FF FF +     .byte $FF,$FF,$FF,$FF,$FF,$FF,$FF,$00,$00,$00,$00,$00,$00,$00,$00,$00 ; $4EB6
  2151 4EC3 00 00 00 FF FF FF +     .byte $00,$00,$00,$FF,$FF,$FF,$FF,$FF,$FF,$FF,$FF,$FF,$00,$00,$00,$00 ; $4EC6
  2152 4ED3 00 00 00 00 00 00 +     .byte $00,$00,$00,$00,$00,$00,$C0,$F0,$FC,$FF,$FF,$FF,$FF,$FF,$FF,$FF ; $4ED6
  2153 4EE3 FF 00 00 00 00 00 +     .byte $FF,$00,$00,$00,$00,$00,$00,$00,$00,$80,$C0,$E0,$F0,$F8,$FC,$FE ; $4EE6
  2154 4EF3 FF FF FF FF FF FF +     .byte $FF,$FF,$FF,$FF,$FF,$FF,$00,$00,$00,$00,$00,$00,$80,$80,$C0,$E0 ; $4EF6
  2155 4F03 E0 F0 F8 F8 FC FE +     .byte $E0,$F0,$F8,$F8,$FC,$FE,$FE,$FF,$FF,$FF,$FF,$00,$00,$00,$00,$80 ; $4F06
  2156 4F13 80 C0 C0 E0 E0 F0 +     .byte $80,$C0,$C0,$E0,$E0,$F0,$F0,$F8,$F8,$FC,$FC,$FE,$FE,$FF,$FF,$FF ; $4F16
  2157 4F23 80 80 80 C0 C0 C0 +     .byte $80,$80,$80,$C0,$C0,$C0,$E0,$E0,$E0,$F0,$F0,$F0,$F8,$F8,$F8,$FC ; $4F26
  2158 4F33 FC FC FE FE FE 80 +     .byte $FC,$FC,$FE,$FE,$FE,$80,$D0,$F0,$F8,$F8,$78,$78,$78,$3C,$3C,$3C ; $4F36
  2159 4F43 1E 1E 1E 0F 0F 07 +     .byte $1E,$1E,$1E,$0F,$0F,$07,$03,$01,$00,$F0,$F8,$F8,$F8,$78,$7C,$7C ; $4F46
  2160 4F53 3E 3E 3E 1F 1F 0F +     .byte $3E,$3E,$3E,$1F,$1F,$0F,$07,$00,$10,$38,$F8,$F8,$FC,$FC,$FE,$7E ; $4F56
  2161 4F63 7F 3F 3F 1F 0F 00 +     .byte $7F,$3F,$3F,$1F,$0F,$00,$10,$18,$38,$78,$FC,$FE,$FE,$FF,$7F,$7F ; $4F66
  2162 4F73 3F 1E 0C 00 18 18 +     .byte $3F,$1E,$0C,$00,$18,$18,$18,$3C,$7E,$FF,$FF,$FF,$FF,$7E,$3C,$18 ; $4F76
  2163 4F83 00 F0 F8 78 7C 3C +     .byte $00,$F0,$F8,$78,$7C,$3C,$3E,$1E,$0F,$07,$00,$70,$F8,$FC,$7C,$3E ; $4F86
  2164 4F93 3E 1F 0F 00 10 78 +     .byte $3E,$1F,$0F,$00,$10,$78,$FC,$FE,$7F,$3F,$0E,$00,$18,$3C,$7C,$FE ; $4F96
  2165 4FA3 7F 3F 1C 00 18 3C +     .byte $7F,$3F,$1C,$00,$18,$3C,$7E,$FF,$7E,$3C,$00,$70,$38,$38,$1C,$0C ; $4FA6
  2166 4FB3 06 00 78 38 3C 1C +     .byte $06,$00,$78,$38,$3C,$1C,$0E,$00,$10,$78,$7C,$3E,$0E,$00,$18,$3C ; $4FB6
  2167 4FC3 7E 3C 00 F0 78 3C +     .byte $7E,$3C,$00,$F0,$78,$3C,$0F,$00,$F0,$7C,$3E,$0F,$00,$F8,$7E,$1F ; $4FC6
  2168 4FD3 00 3C FF 3C 00 78 +     .byte $00,$3C,$FF,$3C,$00,$78,$3C,$0E,$02,$00,$78,$3C,$0E,$00,$38,$7C ; $4FD6
  2169 4FE3 06 00 3C 7E 00 38 +     .byte $06,$00,$3C,$7E,$00,$38,$1C,$0E,$00,$3C,$1E,$06,$00,$18,$3C,$06 ; $4FE6
  2170 4FF3 00 1C 3E 00 38 1C +     .byte $00,$1C,$3E,$00,$38,$1C,$00,$30,$1C,$00,$3C,$00,$18,$0C,$00,$08 ; $4FF6
  2171 5003 1C 00 1C 00 18 00 +     .byte $1C,$00,$1C,$00,$18,$00,$08,$00,$07,$05,$05,$05,$05,$05,$05,$05 ; $5006
  2172 5013 07 03 03 02 02 02 +     .byte $07,$03,$03,$02,$02,$02,$02,$02,$03,$03,$02,$01,$01,$01,$01,$01 ; $5016
  2173 5023 01 01 02 01 01 00 +     .byte $01,$01,$02,$01,$01,$00,$00,$00,$00,$00,$01,$01,$01,$00,$00,$00 ; $5026
  2174 5033 00 00 00 00 01 3B +     .byte $00,$00,$00,$00,$01,$3B,$4F,$4F,$4F,$5E,$4F,$6C,$4F,$7A,$4F,$29 ; $5036
  2175 5043 27 37 27 45 27 54 +     .byte $27,$37,$27,$45,$27,$54,$27,$87,$4F,$91,$4F,$9A,$4F,$A2,$4F,$AA ; $5046
  2176 5053 4F 68 27 70 27 78 +     .byte $4F,$68,$27,$70,$27,$78,$27,$81,$27,$B1,$4F,$B8,$4F,$BE,$4F,$C4 ; $5056
  2177 5063 4F C4 4F 8B 27 90 +     .byte $4F,$C4,$4F,$8B,$27,$90,$27,$96,$27,$9C,$27,$C9,$4F,$CE,$4F,$D3 ; $5066
  2178 5073 4F D7 4F D7 4F A3 +     .byte $4F,$D7,$4F,$D7,$4F,$A3,$27,$A7,$27,$AB,$27,$B0,$27,$DB,$4F,$E0 ; $5076
  2179 5083 4F E4 4F E8 4F E8 +     .byte $4F,$E4,$4F,$E8,$4F,$E8,$4F,$B5,$27,$B8,$27,$BC,$27,$C0,$27,$EB ; $5086
  2180 5093 4F EF 4F F3 4F F7 +     .byte $4F,$EF,$4F,$F3,$4F,$F7,$4F,$F7,$4F,$C5,$27,$C8,$27,$CC,$27,$D0 ; $5096
  2181 50A3 27 FA 4F FA 4F FD +     .byte $27,$FA,$4F,$FA,$4F,$FD,$4F,$00,$50,$00,$50,$D4,$27,$D6,$27,$D9 ; $50A6
  2182 50B3 27 DC 27 02 50 05 +     .byte $27,$DC,$27,$02,$50,$05,$50,$08,$50,$08,$50,$08,$50,$DF,$27,$E1 ; $50B6
  2183 50C3 27 E3 27 E6 27 0A +     .byte $27,$E3,$27,$E6,$27,$0A,$50,$0C,$50,$01,$01,$07,$07,$1F,$1F,$7F ; $50C6
  2184 50D3 7F 80 80 E0 E0 F8 +     .byte $7F,$80,$80,$E0,$E0,$F8,$F8,$FE,$FE,$00,$00,$06,$06,$06,$06,$0F ; $50D6
  2185 50E3 0F 07 00 01 05 20 +     .byte $0F,$07,$00,$01,$05,$20,$AA,$01,$50,$0D,$00,$01,$05,$01,$55,$01 ; $50E6
  2186 50F3 6A 1E AA 01 A9 01 +     .byte $6A,$1E,$AA,$01,$A9,$01,$55,$01,$50,$0B,$00,$01,$05,$02,$55,$01 ; $50F6
  2187 5103 6A 1E AA 01 A9 02 +     .byte $6A,$1E,$AA,$01,$A9,$02,$55,$01,$50,$09,$00,$01,$05,$03,$55,$01 ; $5106
  2188 5113 5A 1E AA 01 A5 03 +     .byte $5A,$1E,$AA,$01,$A5,$03,$55,$01,$50,$04,$00,$00,$C8,$01,$24,$75 ; $5116
  2189 5123 75 16 55 56 57 D2 +     .byte $75,$16,$55,$56,$57,$D2,$75,$16,$1B,$1C,$57,$75,$75,$22,$D1,$01 ; $5126
  2190 5133 23 75 15 17 18 14 +     .byte $23,$75,$15,$17,$18,$14,$75,$75,$40,$41,$75,$75,$27,$C4,$28,$7A ; $5136
  2191 5143 75 75 40 41 75 75 +     .byte $75,$75,$40,$41,$75,$75,$15,$7F,$7E,$14,$75,$21,$D2,$01,$24,$75 ; $5146
  2192 5153 5F 19 1A 5E 75 75 +     .byte $5F,$19,$1A,$5E,$75,$75,$40,$41,$75,$75,$25,$C5,$00,$2C,$75,$40 ; $5156
  2193 5163 41 75 75 20 7F 7E +     .byte $41,$75,$75,$20,$7F,$7E,$1F,$75,$22,$D3,$01,$23,$5D,$5C,$5B,$5A ; $5166
  2194 5173 75 75 40 41 75 75 +     .byte $75,$75,$40,$41,$75,$75,$00,$00,$30,$2F,$31,$00,$2A,$75,$40,$41 ; $5176
  2195 5183 75 75 5D 1E 1D 5A +     .byte $75,$75,$5D,$1E,$1D,$5A,$21,$C3,$01,$02,$54,$CF,$01,$24,$75,$58 ; $5186
  2196 5193 65 C3 75 40 41 75 +     .byte $65,$C3,$75,$40,$41,$75,$75,$C3,$00,$2E,$00,$00,$2A,$75,$40,$41 ; $5196
  2197 51A3 C3 75 7C 7D 75 22 +     .byte $C3,$75,$7C,$7D,$75,$22,$C3,$01,$52,$D1,$01,$23,$C5,$75,$40,$41 ; $51A6
  2198 51B3 75 75 26 C4 00 2D +     .byte $75,$75,$26,$C4,$00,$2D,$2B,$75,$40,$41,$C5,$75,$21,$D6,$01,$24 ; $51B6
  2199 51C3 C5 75 40 41 CA 75 +     .byte $C5,$75,$40,$41,$CA,$75,$40,$41,$C5,$75,$22,$C5,$01,$12,$53,$D0 ; $51C6
  2200 51D3 01 23 C3 75 58 40 +     .byte $01,$23,$C3,$75,$58,$40,$41,$CA,$75,$40,$41,$59,$C3,$75,$21,$C6 ; $51D6
  2201 51E3 01 11 D1 01 24 D6 +     .byte $01,$11,$D1,$01,$24,$D6,$75,$22,$C5,$01,$12,$54,$D1,$01,$32,$D6 ; $51E6
  2202 51F3 00 33 C5 01 13 C6 +     .byte $00,$33,$C5,$01,$13,$C6,$01,$C0,$D6,$E6,$16,$16,$26,$36,$46,$04 ; $51F6
  2203 5203 26 2C 90 00 06 44 +     .byte $26,$2C,$90,$00,$06,$44,$9A,$78,$08,$C0,$0E,$60,$0E,$30,$0E,$18 ; $5206
  2204 5213 0E 0C 0E 06 08 03 +     .byte $0E,$0C,$0E,$06,$08,$03,$00,$08,$03,$0E,$06,$0E,$0C,$0E,$18,$0E ; $5216
  2205 5223 30 0E 60 08 C0 00 +     .byte $30,$0E,$60,$08,$C0,$00,$43,$6F,$70,$79,$72,$69,$67,$68,$74,$20 ; $5226
  2206 5233 28 63 29 20 31 39 +     .byte $28,$63,$29,$20,$31,$39,$38,$33,$20,$4C,$75,$63,$61,$73,$66,$69 ; $5236
  2207 5243 6C 6D 20 4C 74 64 +     .byte $6C,$6D,$20,$4C,$74,$64,$2E,$1C,$1C,$1C,$1C,$1C,$1C,$1C,$1C,$15 ; $5246
  2208 5253 0E 07 00 00 07 0E +     .byte $0E,$07,$00,$00,$07,$0E,$15,$86,$78,$10,$86,$08,$11,$83,$08,$09 ; $5256
  2209 5263 82 0A 13 82 08 09 +     .byte $82,$0A,$13,$82,$08,$09,$0A,$82,$0B,$14,$08,$09,$0A,$0B,$0C,$0D ; $5266
  2210 5273 15 86 78 10 86 78 +     .byte $15,$86,$78,$10,$86,$78,$11,$84,$09,$82,$0A,$13,$82,$09,$0A,$83 ; $5276
  2211 5283 0B 14 82 0A 0B 0C +     .byte $0B,$14,$82,$0A,$0B,$0C,$82,$0D,$15,$59,$61,$69,$79,$82,$11,$10 ; $5286
  2212 5293 59 61 69 79 83 11 +     .byte $59,$61,$69,$79,$83,$11,$5A,$62,$6A,$7A,$82,$12,$13,$5B,$63,$6B ; $5296
  2213 52A3 7B 82 13 14 5C 64 +     .byte $7B,$82,$13,$14,$5C,$64,$6C,$7C,$83,$15,$87,$10,$87,$11,$85,$19 ; $52A6
  2214 52B3 12 87 13 14 87 15 +     .byte $12,$87,$13,$14,$87,$15,$0E,$01,$00,$80          ; $52B6
  2215 52BD			clear_mem:
  2216 52BD A2 00		    ldx #$00
  2217 52BF A0 00		    ldy #$00
  2218 52C1 84 C6		    sty $C6
  2219 52C3			loc_52C6:
  2220 52C3 E6 C6		    inc $C6
  2221 52C5			loc_52C8:
  2222 52C5 BD 5D 52		    lda $525D,x
  2223 52C8 E8			    inx
  2224 52C9 0A			    asl
  2225 52CA 90 06		    bcc loc_52D5
  2226 52CC 4A			    lsr
  2227 52CD 85 C6		    sta $C6
  2228 52CF D0 F4		    bne loc_52C8
  2229 52D1 60			    rts
  2230 52D2			loc_52D5:
  2231 52D2 99 FD 07		    sta $07FD,y
  2232 52D5 C8			    iny
  2233 52D6 C6 C6		    dec $C6
  2234 52D8 D0 F8		    bne loc_52D5
  2235 52DA F0 E7		    beq loc_52C6
  2236 52DC 55 D5		    eor FR0M,x
  2237 52DE E5 FD		    sbc $FD
  2238 52E0 FF 7F 5F 57		    .byte $FF,$7F,$5F,$57                                  ; $52E3
    20
    21 				; === Segment 3: $52E7-$852F Game code + data: game engine, AI, terrain, sound ===
    22 52E4 E7 52 2F 85		    org [a($52E7),a($852F)],$52E7
    23 52E7			    icl 'seg_03_52E7.asm'
Source: seg_03_52E7.asm
     1 				; =============================================================
     2 				; Segment 3: $52E7-$852F — Game code + data: game engine, AI, terrain, sound
     3 				; =============================================================
     4 				; XEX load range: $52E7-$852F (12873 bytes)
     5
     6 52E7			    org $52E7
     7
     8 52E7			level_setup:
     9 52E7 A9 06		    lda #$06
    10 52E9 8D C7 02		    sta COLOR3
    11 52EC A9 02		    lda #$02
    12 52EE 8D CC 08		    sta $08CC
    13 52F1 20 97 59		    jsr build_screen_lines
    14 52F4 20 E4 5D		    jsr patch_dl_lms
    15 52F7 A9 00		    lda #$00
    16 52F9 85 B8		    sta $B8
    17 52FB A9 00		    lda #$00
    18 52FD 85 C2		    sta $C2
    19 52FF A9 10		    lda #$10
    20 5301 85 C3		    sta $C3
    21 5303 A9 0F		    lda #$0F
    22 5305 85 C4		    sta $C4
    23 5307 A9 08		    lda #$08
    24 5309 85 C5		    sta $C5
    25 530B 20 D7 7C		    jsr sub_7CD7
    26 530E A9 D8		    lda #$D8
    27 5310 85 C2		    sta $C2
    28 5312 A9 08		    lda #$08
    29 5314 85 C3		    sta $C3
    30 5316 A9 06		    lda #$06
    31 5318 85 C4		    sta $C4
    32 531A A9 00		    lda #$00
    33 531C 85 C5		    sta $C5
    34 531E 20 D7 7C		    jsr sub_7CD7
    35 5321 20 42 7B		    jsr setup_display
    36 5324 A9 4B		    lda #$4B
    37 5326 8D 22 02		    sta VVBLKI
    38 5329 A9 83		    lda #$83
    39 532B 8D 23 02		    sta $0223
    40 532E 20 4A 7B		    jsr enable_display
    41 5331 A9 F6		    lda #$F6
    42 5333 8D 00 02		    sta VDSLST
    43 5336 A9 60		    lda #$60
    44 5338 8D 01 02		    sta $0201
    45 533B A9 20		    lda #$20
    46 533D 8D 02 D4		    sta DLISTL
    47 5340 A9 31		    lda #$31
    48 5342 8D 03 D4		    sta DLISTH
    49 5345 A9 96		    lda #$96
    50 5347 85 BC		    sta $BC
    51 5349 A9 62		    lda #$62
    52 534B 85 BD		    sta $BD
    53 534D A9 31		    lda #$31
    54 534F 85 BE		    sta $BE
    55 5351 A9 0B		    lda #$0B
    56 5353 85 BF		    sta $BF
    57 5355 20 18 7D		    jsr sub_7D18
    58 5358 A9 14		    lda #$14
    59 535A 8D 6F 02		    sta GPRIOR
    60 535D 8D 1B D0		    sta PRIOR
    61 5360 A0 56		    ldy #$56
    62 5362 A9 00		    lda #$00
    63 5364 85 4D		    sta ATRACT
    64 5366 8D 8B 08		    sta $088B
    65 5369			loc_5369:
    66 5369 99 31 0C		    sta $0C31,y
    67 536C 99 31 0D		    sta $0D31,y
    68 536F 88			    dey
    69 5370 10 F7		    bpl loc_5369
    70 5372 8D 0C D0		    sta SIZEM
    71 5375 A0 03		    ldy #$03
    72 5377 98			    tya
    73 5378			loc_5378:
    74 5378 99 08 D0		    sta SIZEP0,y
    75 537B 88			    dey
    76 537C 10 FA		    bpl loc_5378
    77 537E A9 2D		    lda #$2D
    78 5380 8D 00 D0		    sta HPOSP0
    79 5383 8D 02 D0		    sta HPOSP2
    80 5386 A9 BE		    lda #$BE
    81 5388 85 B6		    sta $B6
    82 538A 8D 03 D0		    sta HPOSP3
    83 538D 20 AF 7D		    jsr wait_1_frame
    84 5390 A9 3F		    lda #$3F
    85 5392 8D 00 D4		    sta DMACTL
    86 5395 A9 03		    lda #$03
    87 5397 8D 1D D0		    sta GRACTL
    88 539A A9 00		    lda #$00
    89 539C 8D C0 02		    sta PCOLR0
    90 539F A9 06		    lda #$06
    91 53A1 8D C8 02		    sta COLOR4
    92 53A4 A9 88		    lda #$88
    93 53A6 85 B8		    sta $B8
    94 53A8 20 C7 7C		    jsr sub_7CC7
    95 53AB 20 4A 7B		    jsr enable_display
    96 53AE A9 E1		    lda #$E1
    97 53B0 8D 00 02		    sta VDSLST
    98 53B3 A9 60		    lda #$60
    99 53B5 8D 01 02		    sta $0201
   100 53B8 A9 00		    lda #$00
   101 53BA 8D 02 D4		    sta DLISTL
   102 53BD A9 30		    lda #$30
   103 53BF 8D 03 D4		    sta DLISTH
   104 53C2 20 88 5C		    jsr init_terrain_strips
   105 53C5 AD 1E 06		    lda $061E
   106 53C8 D0 03		    bne loc_53CD
   107 53CA 4C F6 54		    jmp loc_54F6
   108 53CD			loc_53CD:
   109 53CD 20 36 4B		    jsr sub_4B39
   110 53D0 A0 04		    ldy #$04
   111 53D2			loc_53D2:
   112 53D2 B9 B0 5F		    lda $5FB0,y
   113 53D5 99 C2 08		    sta $08C2,y
   114 53D8 88			    dey
   115 53D9 10 F7		    bpl loc_53D2
   116 53DB A9 1A		    lda #$1A
   117 53DD 20 7C 5C		    jsr sub_5C7C
   118 53E0 20 F2 5B		    jsr sub_5BF2
   119 53E3 A6 DE		    ldx $DE
   120 53E5			loc_53E5:
   121 53E5 8E 12 06		    stx $0612
   122 53E8 20 B7 7D		    jsr wait_2_frames
   123 53EB CA			    dex
   124 53EC E0 1F		    cpx #$1F
   125 53EE D0 F5		    bne loc_53E5
   126 53F0 20 9C 7D		    jsr wait_frames
   127 53F3 A9 00		    lda #$00
   128 53F5 8D 12 06		    sta $0612
   129 53F8 A2 0B		    ldx #$0B
   130 53FA			loc_53FA:
   131 53FA 8A			    txa
   132 53FB 20 7C 5C		    jsr sub_5C7C
   133 53FE 20 AF 7D		    jsr wait_1_frame
   134 5401 E8			    inx
   135 5402 E0 0F		    cpx #$0F
   136 5404 D0 F4		    bne loc_53FA
   137 5406 20 88 59		    jsr sub_5988
   138 5409 AD 29 06		    lda $0629
   139 540C F0 08		    beq loc_5416
   140 540E A0 00		    ldy #$00
   141 5410 8C 29 06		    sty $0629
   142 5413 20 E4 4A		    jsr sub_4AE7
   143 5416			loc_5416:
   144 5416 20 B4 59		    jsr sub_59B4
   145 5419 20 15 62		    jsr sub_6215
   146 541C 85 BA		    sta $BA
   147 541E A9 08		    lda #$08
   148 5420 8D BA 08		    sta $08BA
   149 5423			loc_5423:
   150 5423 A4 BA		    ldy $BA
   151 5425 20 1D 5D		    jsr sub_5D1D
   152 5428 C6 BA		    dec $BA
   153 542A 10 F7		    bpl loc_5423
   154 542C A9 07		    lda #$07
   155 542E 20 69 47		    jsr sub_476C
   156 5431 A0 00		    ldy #$00
   157 5433			loc_5433:
   158 5433 A2 0E		    ldx #$0E
   159 5435			loc_5435:
   160 5435 8A			    txa
   161 5436 99 CD 08		    sta $08CD,y
   162 5439 20 9C 7D		    jsr wait_frames
   163 543C CA			    dex
   164 543D 10 F6		    bpl loc_5435
   165 543F C8			    iny
   166 5440 C0 06		    cpy #$06
   167 5442 D0 EF		    bne loc_5433
   168 5444 20 C7 7C		    jsr sub_7CC7
   169 5447 A9 03		    lda #$03
   170 5449 8D 09 06		    sta $0609
   171 544C 8D A3 27		    sta $27A3
   172 544F A0 90		    ldy #$90
   173 5451			loc_5451:
   174 5451 8C D2 08		    sty $08D2
   175 5454 20 9C 7D		    jsr wait_frames
   176 5457 C8			    iny
   177 5458 C0 9B		    cpy #$9B
   178 545A D0 F5		    bne loc_5451
   179 545C 20 9C 5C		    jsr sub_5C9C
   180 545F A0 05		    ldy #$05
   181 5461			loc_5461:
   182 5461 B9 A5 62		    lda $62A5,y
   183 5464 99 CD 08		    sta $08CD,y
   184 5467 88			    dey
   185 5468 10 F7		    bpl loc_5461
   186 546A A9 01		    lda #$01
   187 546C 8D DD 08		    sta $08DD
   188 546F 8D BA 08		    sta $08BA
   189 5472 8D CE 06		    sta $06CE
   190 5475 20 15 62		    jsr sub_6215
   191 5478 85 BA		    sta $BA
   192 547A A9 7E		    lda #$7E
   193 547C 85 C4		    sta $C4
   194 547E A9 2A		    lda #$2A
   195 5480 85 C5		    sta $C5
   196 5482 85 C3		    sta $C3
   197 5484 20 36 4B		    jsr sub_4B39
   198 5487 85 C2		    sta $C2
   199 5489			loc_5489:
   200 5489 A4 BA		    ldy $BA
   201 548B D0 0B		    bne loc_5498
   202 548D A9 FF		    lda #$FF
   203 548F 8D DD 08		    sta $08DD
   204 5492 AD D1 08		    lda $08D1
   205 5495 8D 12 06		    sta $0612
   206 5498			loc_5498:
   207 5498 AD DE 08		    lda $08DE
   208 549B F0 FB		    beq loc_5498
   209 549D A9 00		    lda #$00
   210 549F 8D DE 08		    sta $08DE
   211 54A2 20 BE 5C		    jsr sub_5CBE
   212 54A5 EE BA 08		    inc $08BA
   213 54A8 AD BA 08		    lda $08BA
   214 54AB C9 07		    cmp #$07
   215 54AD D0 05		    bne loc_54B4
   216 54AF A9 01		    lda #$01
   217 54B1 8D BA 08		    sta $08BA
   218 54B4			loc_54B4:
   219 54B4 C6 BA		    dec $BA
   220 54B6 10 D1		    bpl loc_5489
   221 54B8 A9 01		    lda #$01
   222 54BA 8D DD 08		    sta $08DD
   223 54BD 20 15 62		    jsr sub_6215
   224 54C0 A0 08		    ldy #$08
   225 54C2 8C BA 08		    sty $08BA
   226 54C5 A9 00		    lda #$00
   227 54C7			loc_54C7:
   228 54C7 99 87 0C		    sta $0C87,y
   229 54CA 99 87 0D		    sta $0D87,y
   230 54CD 88			    dey
   231 54CE D0 F7		    bne loc_54C7
   232 54D0 A9 C0		    lda #$C0
   233 54D2 8D 12 06		    sta $0612
   234 54D5			loc_54D5:
   235 54D5 AD DD 08		    lda $08DD
   236 54D8 D0 FB		    bne loc_54D5
   237 54DA 20 E1 59		    jsr sub_59E1
   238 54DD A0 00		    ldy #$00
   239 54DF A9 FF		    lda #$FF
   240 54E1			loc_54E1:
   241 54E1 20 AF 7D		    jsr wait_1_frame
   242 54E4 99 88 0C		    sta $0C88,y
   243 54E7 99 88 0D		    sta $0D88,y
   244 54EA C8			    iny
   245 54EB C0 08		    cpy #$08
   246 54ED D0 F2		    bne loc_54E1
   247 54EF 98			    tya
   248 54F0 20 69 47		    jsr sub_476C
   249 54F3 20 97 59		    jsr build_screen_lines
   250 54F6			loc_54F6:
   251 54F6 20 BD 90		    jsr init_sound
   252 54F9 20 10 95		    jsr sub_9510
   253 54FC 20 BC 7D		    jsr wait_5_frames
   254 54FF A9 07		    lda #$07
   255 5501 8D BB 08		    sta $08BB
   256 5504 A9 88		    lda #$88
   257 5506 85 B8		    sta $B8
   258 5508 20 C7 7C		    jsr sub_7CC7
   259 550B 20 0C 5B		    jsr sub_5B0C
   260 550E 20 B3 5B		    jsr sub_5BB3
   261 5511 20 E4 5D		    jsr patch_dl_lms
   262 5514 20 A6 59		    jsr sub_59A6
   263 5517 A9 FF		    lda #$FF
   264 5519 8D 1A 06		    sta $061A
   265 551C AD 1E 06		    lda $061E
   266 551F D0 09		    bne loc_552A
   267 5521 EE 1E 06		    inc $061E
   268 5524 20 AA 7D		    jsr wait_60_frames
   269 5527 4C 4E 57		    jmp loc_574E
   270 552A			loc_552A:
   271 552A AD 3A 06		    lda $063A
   272 552D D0 03		    bne loc_5532
   273 552F 4C EC 55		    jmp loc_55EC
   274 5532			loc_5532:
   275 5532 38			    sec
   276 5533 ED 3B 06		    sbc $063B
   277 5536 8D 1A 06		    sta $061A
   278 5539 10 11		    bpl loc_554C
   279 553B AC 3B 06		    ldy $063B
   280 553E 38			    sec
   281 553F 98			    tya
   282 5540 ED 3A 06		    sbc $063A
   283 5543 8D 3B 06		    sta $063B
   284 5546 AD 3A 06		    lda $063A
   285 5549 4C 50 55		    jmp loc_5550
   286 554C			loc_554C:
   287 554C AD 3B 06		    lda $063B
   288 554F A8			    tay
   289 5550			loc_5550:
   290 5550 8D BC 08		    sta $08BC
   291 5553 98			    tya
   292 5554 20 0F 7E		    jsr sub_7E0F
   293 5557 A0 0C		    ldy #$0C
   294 5559 A9 78		    lda #$78
   295 555B 85 D9		    sta QTEMP
   296 555D 20 F7 4A		    jsr sub_4AFA
   297 5560			loc_5560:
   298 5560 A9 00		    lda #$00
   299 5562 8D 38 06		    sta $0638
   300 5565 A9 05		    lda #$05
   301 5567 8D 39 06		    sta $0639
   302 556A 20 F6 7D		    jsr sub_7DF6
   303 556D CE BC 08		    dec $08BC
   304 5570 D0 EE		    bne loc_5560
   305 5572 AD 1A 06		    lda $061A
   306 5575 30 6A		    bmi loc_55E1
   307 5577 F0 1F		    beq loc_5598
   308 5579 20 AA 7D		    jsr wait_60_frames
   309 557C 20 0F 7E		    jsr sub_7E0F
   310 557F A9 7C		    lda #$7C
   311 5581 85 D9		    sta QTEMP
   312 5583			loc_5583:
   313 5583 A9 10		    lda #$10
   314 5585 8D 39 06		    sta $0639
   315 5588 A2 10		    ldx #$10
   316 558A 20 B1 94		    jsr sub_94B1
   317 558D 20 BC 7D		    jsr wait_5_frames
   318 5590 20 F6 7D		    jsr sub_7DF6
   319 5593 CE 1A 06		    dec $061A
   320 5596 D0 EB		    bne loc_5583
   321 5598			loc_5598:
   322 5598 20 AA 7D		    jsr wait_60_frames
   323 559B AD 21 06		    lda $0621
   324 559E D0 44		    bne loc_55E4
   325 55A0 A9 2A		    lda #$2A
   326 55A2 85 D9		    sta QTEMP
   327 55A4 A0 83		    ldy #$83
   328 55A6 20 F7 4A		    jsr sub_4AFA
   329 55A9 A9 16		    lda #$16
   330 55AB 8D 56 06		    sta $0656
   331 55AE A9 97		    lda #$97
   332 55B0 8D 57 06		    sta $0657
   333 55B3 20 50 96		    jsr sub_9650
   334 55B6			loc_55B6:
   335 55B6 AD 54 06		    lda $0654
   336 55B9 D0 FB		    bne loc_55B6
   337 55BB AD 1B 06		    lda $061B
   338 55BE 85 C2		    sta $C2
   339 55C0 CD 06 06		    cmp $0606
   340 55C3 90 03		    bcc loc_55C8
   341 55C5 8D 06 06		    sta $0606
   342 55C8			loc_55C8:
   343 55C8 20 DF 7D		    jsr sub_7DDF
   344 55CB			loc_55CB:
   345 55CB A9 02		    lda #$02
   346 55CD 8D BC 08		    sta $08BC
   347 55D0			loc_55D0:
   348 55D0 A5 C4		    lda $C4
   349 55D2 8D 39 06		    sta $0639
   350 55D5 20 04 7E		    jsr sub_7E04
   351 55D8 CE BC 08		    dec $08BC
   352 55DB D0 F3		    bne loc_55D0
   353 55DD C6 C2		    dec $C2
   354 55DF D0 EA		    bne loc_55CB
   355 55E1			loc_55E1:
   356 55E1 20 AA 7D		    jsr wait_60_frames
   357 55E4			loc_55E4:
   358 55E4 20 36 4B		    jsr sub_4B39
   359 55E7 A9 00		    lda #$00
   360 55E9 8D 3A 06		    sta $063A
   361 55EC			loc_55EC:
   362 55EC AD 1A 06		    lda $061A
   363 55EF 10 20		    bpl loc_5611
   364 55F1 AD 1B 06		    lda $061B
   365 55F4 C9 04		    cmp #$04
   366 55F6 B0 0D		    bcs loc_5605
   367 55F8 A9 01		    lda #$01
   368 55FA 8D D6 08		    sta $08D6
   369 55FD A9 03		    lda #$03
   370 55FF 8D D7 08		    sta $08D7
   371 5602 4C 0E 56		    jmp loc_560E
   372 5605			loc_5605:
   373 5605 8D D7 08		    sta $08D7
   374 5608 38			    sec
   375 5609 E9 02		    sbc #$02
   376 560B 8D D6 08		    sta $08D6
   377 560E			loc_560E:
   378 560E 4C EC 56		    jmp loc_56EC
   379 5611			loc_5611:
   380 5611 AD 1B 06		    lda $061B
   381 5614 8D D6 08		    sta $08D6
   382 5617 EE D6 08		    inc $08D6
   383 561A 18			    clc
   384 561B 69 03		    adc #$03
   385 561D C9 64		    cmp #$64
   386 561F 90 02		    bcc loc_5623
   387 5621 A9 63		    lda #$63
   388 5623			loc_5623:
   389 5623 8D D7 08		    sta $08D7
   390 5626			loc_5626:
   391 5626 A0 00		    ldy #$00
   392 5628 84 B8		    sty $B8
   393 562A A9 4F		    lda #$4F
   394 562C 85 BA		    sta $BA
   395 562E A9 44		    lda #$44
   396 5630 8D 03 D2		    sta AUDC2
   397 5633 A9 52		    lda #$52
   398 5635 8D D4 08		    sta $08D4
   399 5638 A9 01		    lda #$01
   400 563A 8D D5 08		    sta $08D5
   401 563D			loc_563D:
   402 563D B9 75 59		    lda $5975,y
   403 5640 8D 09 06		    sta $0609
   404 5643 20 2F 62		    jsr sub_622F
   405 5646 A5 BA		    lda $BA
   406 5648 8D DB 08		    sta $08DB
   407 564B 20 EB 5D		    jsr sub_5DEB
   408 564E A9 00		    lda #$00
   409 5650 8D DB 08		    sta $08DB
   410 5653 C6 BA		    dec $BA
   411 5655 E6 B8		    inc $B8
   412 5657 A4 B8		    ldy $B8
   413 5659 C0 13		    cpy #$13
   414 565B D0 E0		    bne loc_563D
   415 565D 20 9C 7D		    jsr wait_frames
   416 5660 A9 53		    lda #$53
   417 5662 8D DB 08		    sta $08DB
   418 5665			loc_5665:
   419 5665 A2 05		    ldx #$05
   420 5667			loc_5667:
   421 5667 AD DB 08		    lda $08DB
   422 566A C9 3E		    cmp #$3E
   423 566C D0 1D		    bne loc_568B
   424 566E A9 56		    lda #$56
   425 5670 8D DB 08		    sta $08DB
   426 5673 E0 03		    cpx #$03
   427 5675 D0 13		    bne loc_568A
   428 5677 A9 08		    lda #$08
   429 5679 8D BB 08		    sta $08BB
   430 567C 20 B3 5B		    jsr sub_5BB3
   431 567F CE BB 08		    dec $08BB
   432 5682 EE 1B 06		    inc $061B
   433 5685 20 B3 5B		    jsr sub_5BB3
   434 5688 A2 03		    ldx #$03
   435 568A			loc_568A:
   436 568A CA			    dex
   437 568B			loc_568B:
   438 568B D0 DA		    bne loc_5667
   439 568D A9 56		    lda #$56
   440 568F 8D DB 08		    sta $08DB
   441 5692			loc_5692:
   442 5692 AD DB 08		    lda $08DB
   443 5695 C9 0F		    cmp #$0F
   444 5697 D0 F9		    bne loc_5692
   445 5699 85 BA		    sta $BA
   446 569B A9 00		    lda #$00
   447 569D 8D DB 08		    sta $08DB
   448 56A0 AD 1F D0		    lda CONSOL
   449 56A3 29 02		    and #$02
   450 56A5 D0 0D		    bne loc_56B4
   451 56A7 A9 56		    lda #$56
   452 56A9 8D DB 08		    sta $08DB
   453 56AC AC 1B 06		    ldy $061B
   454 56AF CC D7 08		    cpy $08D7
   455 56B2 90 B1		    bcc loc_5665
   456 56B4			loc_56B4:
   457 56B4 A9 FF		    lda #$FF
   458 56B6 8D D5 08		    sta $08D5
   459 56B9			loc_56B9:
   460 56B9 A4 BA		    ldy $BA
   461 56BB B9 78 59		    lda $5978,y
   462 56BE 8D 09 06		    sta $0609
   463 56C1 8C DB 08		    sty $08DB
   464 56C4 20 EB 5D		    jsr sub_5DEB
   465 56C7 A9 00		    lda #$00
   466 56C9 8D DB 08		    sta $08DB
   467 56CC 20 2F 62		    jsr sub_622F
   468 56CF C6 BA		    dec $BA
   469 56D1 D0 E6		    bne loc_56B9
   470 56D3 EE 09 06		    inc $0609
   471 56D6 20 9C 7D		    jsr wait_frames
   472 56D9 A9 55		    lda #$55
   473 56DB 20 1A 5E		    jsr sub_5E1A
   474 56DE 0E 09 06		    asl $0609
   475 56E1 20 9C 7D		    jsr wait_frames
   476 56E4 20 E4 5D		    jsr patch_dl_lms
   477 56E7 A9 00		    lda #$00
   478 56E9 8D 03 D2		    sta AUDC2
   479 56EC			loc_56EC:
   480 56EC AD 1C 06		    lda $061C
   481 56EF D0 5D		    bne loc_574E
   482 56F1			loc_56F1:
   483 56F1 A5 4D		    lda ATRACT
   484 56F3 10 03		    bpl loc_56F8
   485 56F5 4C 34 3C		    jmp loc_3C34
   486 56F8			loc_56F8:
   487 56F8 20 21 95		    jsr sub_9521
   488 56FB AD 1F D0		    lda CONSOL
   489 56FE 29 02		    and #$02
   490 5700 D0 41		    bne loc_5743
   491 5702 85 4D		    sta ATRACT
   492 5704 20 51 95		    jsr sub_9551
   493 5707 AD 1B 06		    lda $061B
   494 570A CD D7 08		    cmp $08D7
   495 570D 90 31		    bcc loc_5740
   496 570F AC 12 06		    ldy $0612
   497 5712			loc_5712:
   498 5712 20 B7 7D		    jsr wait_2_frames
   499 5715 8C 12 06		    sty $0612
   500 5718 88			    dey
   501 5719 C0 BF		    cpy #$BF
   502 571B D0 F5		    bne loc_5712
   503 571D A9 08		    lda #$08
   504 571F 8D BB 08		    sta $08BB
   505 5722 20 33 5B		    jsr sub_5B33
   506 5725 20 B3 5B		    jsr sub_5BB3
   507 5728 AD D6 08		    lda $08D6
   508 572B 8D 1B 06		    sta $061B
   509 572E CE BB 08		    dec $08BB
   510 5731 20 AA 7D		    jsr wait_60_frames
   511 5734 20 33 5B		    jsr sub_5B33
   512 5737 20 B3 5B		    jsr sub_5BB3
   513 573A 20 A6 59		    jsr sub_59A6
   514 573D 4C 43 57		    jmp loc_5743
   515 5740			loc_5740:
   516 5740 4C 26 56		    jmp loc_5626
   517 5743			loc_5743:
   518 5743 AD 1F D0		    lda CONSOL
   519 5746 29 01		    and #$01
   520 5748 38			    sec
   521 5749 ED 10 D0		    sbc TRIG0
   522 574C F0 A3		    beq loc_56F1
   523 574E			loc_574E:
   524 574E 20 51 95		    jsr sub_9551
   525 5751 A0 00		    ldy #$00
   526 5753 AD 1C 06		    lda $061C
   527 5756 D0 13		    bne loc_576B
   528 5758 AD 1B 06		    lda $061B
   529 575B CD 1F 06		    cmp $061F
   530 575E 8D 1F 06		    sta $061F
   531 5761 D0 06		    bne loc_5769
   532 5763 EE 21 06		    inc $0621
   533 5766 4C 7D 57		    jmp loc_577D
   534 5769			loc_5769:
   535 5769 B0 0C		    bcs loc_5777
   536 576B			loc_576B:
   537 576B 8C 03 06		    sty $0603
   538 576E 8C 04 06		    sty $0604
   539 5771 8C 05 06		    sty $0605
   540 5774 8C 20 06		    sty $0620
   541 5777			loc_5777:
   542 5777 8C 21 06		    sty $0621
   543 577A 20 1B 7E		    jsr sub_7E1B
   544 577D			loc_577D:
   545 577D A2 1D		    ldx #$1D
   546 577F 20 B1 94		    jsr sub_94B1
   547 5782 20 01 45		    jsr sub_4504
   548 5785 20 9F 5F		    jsr sub_5F9F
   549 5788 A0 05		    ldy #$05
   550 578A A9 3A		    lda #$3A
   551 578C			loc_578C:
   552 578C 99 CD 08		    sta $08CD,y
   553 578F 38			    sec
   554 5790 E9 02		    sbc #$02
   555 5792 88			    dey
   556 5793 10 F7		    bpl loc_578C
   557 5795 A9 00		    lda #$00
   558 5797 8D 3F 06		    sta $063F
   559 579A 20 27 43		    jsr sub_432A
   560 579D 20 88 59		    jsr sub_5988
   561 57A0 20 B4 59		    jsr sub_59B4
   562 57A3 A2 01		    ldx #$01
   563 57A5 20 B1 94		    jsr sub_94B1
   564 57A8 A9 1F		    lda #$1F
   565 57AA			loc_57AA:
   566 57AA CD 80 06		    cmp $0680
   567 57AD D0 FB		    bne loc_57AA
   568 57AF A9 00		    lda #$00
   569 57B1 8D E2 06		    sta $06E2
   570 57B4 A9 8C		    lda #$8C
   571 57B6 85 80		    sta $80
   572 57B8 A9 17		    lda #$17
   573 57BA 85 81		    sta $81
   574 57BC A9 BA		    lda #$BA
   575 57BE 85 82		    sta $82
   576 57C0 A9 17		    lda #$17
   577 57C2 85 83		    sta $83
   578 57C4 A9 02		    lda #$02
   579 57C6 8D CB 08		    sta $08CB
   580 57C9 A9 7F		    lda #$7F
   581 57CB 8D CA 08		    sta $08CA
   582 57CE A9 2B		    lda #$2B
   583 57D0 8D DA 08		    sta $08DA
   584 57D3 A9 07		    lda #$07
   585 57D5 20 69 47		    jsr sub_476C
   586 57D8 A9 7F		    lda #$7F
   587 57DA 8D 86 06		    sta $0686
   588 57DD A9 09		    lda #$09
   589 57DF 8D 78 06		    sta $0678
   590 57E2 A9 FB		    lda #$FB
   591 57E4 8D 88 06		    sta $0688
   592 57E7 A9 FF		    lda #$FF
   593 57E9 8D 89 06		    sta $0689
   594 57EC A9 01		    lda #$01
   595 57EE 20 97 8E		    jsr sub_8E97
   596 57F1			loc_57F1:
   597 57F1 20 C1 7D		    jsr wait_10_frames
   598 57F4 EE 7A 06		    inc $067A
   599 57F7 EE 7B 06		    inc $067B
   600 57FA AD 7A 06		    lda $067A
   601 57FD C9 03		    cmp #$03
   602 57FF D0 21		    bne loc_5822
   603 5801 A9 FF		    lda #$FF
   604 5803 8D CC 06		    sta $06CC
   605 5806 8D CE 06		    sta $06CE
   606 5809 8D CF 06		    sta $06CF
   607 580C A9 01		    lda #$01
   608 580E 8D E8 06		    sta $06E8
   609 5811 8D EA 06		    sta $06EA
   610 5814 8D EB 06		    sta $06EB
   611 5817 A9 00		    lda #$00
   612 5819 8D F6 06		    sta $06F6
   613 581C 8D F8 06		    sta $06F8
   614 581F 8D F9 06		    sta $06F9
   615 5822			loc_5822:
   616 5822 CE 78 06		    dec $0678
   617 5825 20 9D 8E		    jsr sub_8E9D
   618 5828 AD 78 06		    lda $0678
   619 582B C9 04		    cmp #$04
   620 582D D0 C2		    bne loc_57F1
   621 582F A9 64		    lda #$64
   622 5831			loc_5831:
   623 5831 CD 86 06		    cmp $0686
   624 5834 D0 FB		    bne loc_5831
   625 5836 A0 05		    ldy #$05
   626 5838 A9 00		    lda #$00
   627 583A 99 6D 06		    sta $066D,y
   628 583D 20 AA 92		    jsr sub_92AA
   629 5840 A9 1D		    lda #$1D
   630 5842			loc_5842:
   631 5842 CD 86 06		    cmp $0686
   632 5845 D0 FB		    bne loc_5842
   633 5847 A9 FF		    lda #$FF
   634 5849 8D E8 06		    sta $06E8
   635 584C A9 64		    lda #$64
   636 584E			loc_584E:
   637 584E CD 88 06		    cmp $0688
   638 5851 D0 FB		    bne loc_584E
   639 5853 20 15 62		    jsr sub_6215
   640 5856 A9 00		    lda #$00
   641 5858 8D BA 08		    sta $08BA
   642 585B 20 69 47		    jsr sub_476C
   643 585E A0 0C		    ldy #$0C
   644 5860 A9 0F		    lda #$0F
   645 5862 99 6D 06		    sta $066D,y
   646 5865 A9 B4		    lda #$B4
   647 5867 99 7B 06		    sta $067B,y
   648 586A 20 AA 92		    jsr sub_92AA
   649 586D A9 02		    lda #$02
   650 586F 8D 78 06		    sta $0678
   651 5872 A9 00		    lda #$00
   652 5874 8D EA 06		    sta $06EA
   653 5877 8D EB 06		    sta $06EB
   654 587A A9 01		    lda #$01
   655 587C 20 97 8E		    jsr sub_8E97
   656 587F A9 01		    lda #$01
   657 5881 8D D8 08		    sta $08D8
   658 5884 A9 0F		    lda #$0F
   659 5886 8D 09 06		    sta $0609
   660 5889			loc_5889:
   661 5889 20 9C 7D		    jsr wait_frames
   662 588C AD 79 06		    lda $0679
   663 588F C9 08		    cmp #$08
   664 5891 F0 06		    beq loc_5899
   665 5893 CE 79 06		    dec $0679
   666 5896 4C 9E 58		    jmp loc_589E
   667 5899			loc_5899:
   668 5899 A9 01		    lda #$01
   669 589B 8D 09 06		    sta $0609
   670 589E			loc_589E:
   671 589E AD D8 08		    lda $08D8
   672 58A1 D0 E6		    bne loc_5889
   673 58A3 A9 04		    lda #$04
   674 58A5 8D 79 06		    sta $0679
   675 58A8 20 69 47		    jsr sub_476C
   676 58AB A0 0C		    ldy #$0C
   677 58AD A9 65		    lda #$65
   678 58AF 99 7B 06		    sta $067B,y
   679 58B2 20 AA 92		    jsr sub_92AA
   680 58B5 A0 0B		    ldy #$0B
   681 58B7 A9 01		    lda #$01
   682 58B9 99 6D 06		    sta $066D,y
   683 58BC A9 0E		    lda #$0E
   684 58BE 99 7B 06		    sta $067B,y
   685 58C1 20 AA 92		    jsr sub_92AA
   686 58C4 A9 01		    lda #$01
   687 58C6 A0 03		    ldy #$03
   688 58C8			loc_58C8:
   689 58C8 99 08 D0		    sta SIZEP0,y
   690 58CB 88			    dey
   691 58CC 10 FA		    bpl loc_58C8
   692 58CE A9 38		    lda #$38
   693 58D0 8D 00 D0		    sta HPOSP0
   694 58D3 A9 62		    lda #$62
   695 58D5 85 B6		    sta $B6
   696 58D7 A9 8E		    lda #$8E
   697 58D9 8D 02 D0		    sta HPOSP2
   698 58DC A9 B8		    lda #$B8
   699 58DE 8D 03 D0		    sta HPOSP3
   700 58E1 20 9F 5F		    jsr sub_5F9F
   701 58E4 A2 2C		    ldx #$2C
   702 58E6			loc_58E6:
   703 58E6 BD 51 07		    lda $0751,x
   704 58E9 85 C2		    sta $C2
   705 58EB BD A7 07		    lda $07A7,x
   706 58EE 85 C3		    sta $C3
   707 58F0 A0 2D		    ldy #$2D
   708 58F2 A9 00		    lda #$00
   709 58F4			loc_58F4:
   710 58F4 91 C2		    sta ($C2),y
   711 58F6 88			    dey
   712 58F7 10 FB		    bpl loc_58F4
   713 58F9 CA			    dex
   714 58FA 10 EA		    bpl loc_58E6
   715 58FC 20 89 7D		    jsr sub_7D89
   716 58FF A9 00		    lda #$00
   717 5901 85 DD		    sta $DD
   718 5903 8D 12 06		    sta $0612
   719 5906 A9 10		    lda #$10
   720 5908 8D 57 31		    sta $3157
   721 590B A9 18		    lda #$18
   722 590D 8D 58 31		    sta $3158
   723 5910 20 4A 7B		    jsr enable_display
   724 5913 A9 F6		    lda #$F6
   725 5915 8D 00 02		    sta VDSLST
   726 5918 A9 60		    lda #$60
   727 591A 8D 01 02		    sta $0201
   728 591D A9 20		    lda #$20
   729 591F 8D 02 D4		    sta DLISTL
   730 5922 A9 31		    lda #$31
   731 5924 8D 03 D4		    sta DLISTH
   732 5927 20 B5 5F		    jsr sub_5FB5
   733 592A A9 7F		    lda #$7F
   734 592C 8D D9 08		    sta $08D9
   735 592F 20 0D 5F		    jsr sub_5F0D
   736 5932 A9 00		    lda #$00
   737 5934			loc_5934:
   738 5934 A2 03		    ldx #$03
   739 5936			loc_5936:
   740 5936 9D C0 02		    sta PCOLR0,x
   741 5939 CA			    dex
   742 593A 10 FA		    bpl loc_5936
   743 593C 20 B7 7D		    jsr wait_2_frames
   744 593F 18			    clc
   745 5940 69 01		    adc #$01
   746 5942 C9 0D		    cmp #$0D
   747 5944 D0 EE		    bne loc_5934
   748 5946 A9 30		    lda #$30
   749 5948 20 8A 59		    jsr sub_598A
   750 594B			loc_594B:
   751 594B AD D9 08		    lda $08D9
   752 594E C9 04		    cmp #$04
   753 5950 10 F9		    bpl loc_594B
   754 5952 A9 00		    lda #$00
   755 5954 85 14		    sta $14
   756 5956			loc_5956:
   757 5956 A5 14		    lda $14
   758 5958 C9 02		    cmp #$02
   759 595A 90 13		    bcc loc_596F
   760 595C A9 00		    lda #$00
   761 595E 85 14		    sta $14
   762 5960 20 D8 5F		    jsr sub_5FD8
   763 5963 AD 02 10		    lda $1002
   764 5966 C9 FF		    cmp #$FF
   765 5968 D0 05		    bne loc_596F
   766 596A A9 00		    lda #$00
   767 596C 8D D9 08		    sta $08D9
   768 596F			loc_596F:
   769 596F AD D9 08		    lda $08D9
   770 5972 D0 E2		    bne loc_5956
   771 5974 60			    rts
   772 5975 06 04 03 03 02 02 +     .byte $06,$04,$03,$03,$02,$02,$01,$02,$01,$02,$01,$01,$02,$01,$01,$01 ; $5975
   773 5985 01 02 01		    .byte $01,$02,$01                                      ; $5985
   774 5988			sub_5988:
   775 5988 A9 2E		    lda #$2E
   776 598A			sub_598A:
   777 598A 85 C2		    sta $C2
   778 598C A9 00		    lda #$00
   779 598E 85 C4		    sta $C4
   780 5990 A9 10		    lda #$10
   781 5992 85 C5		    sta $C5
   782 5994 4C 0A 7B		    jmp build_line_table
   783 5997			build_screen_lines:
   784 5997 A9 2E		    lda #$2E
   785 5999 85 C2		    sta $C2
   786 599B A9 00		    lda #$00
   787 599D 85 C4		    sta $C4
   788 599F A9 20		    lda #$20
   789 59A1 85 C5		    sta $C5
   790 59A3 4C 0A 7B		    jmp build_line_table
   791 59A6			sub_59A6:
   792 59A6 A0 C2		    ldy #$C2
   793 59A8			loc_59A8:
   794 59A8 20 B7 7D		    jsr wait_2_frames
   795 59AB 8C 12 06		    sty $0612
   796 59AE C8			    iny
   797 59AF C0 C9		    cpy #$C9
   798 59B1 D0 F5		    bne loc_59A8
   799 59B3 60			    rts
   800 59B4			sub_59B4:
   801 59B4 20 15 62		    jsr sub_6215
   802 59B7 A9 01		    lda #$01
   803 59B9 8D BA 08		    sta $08BA
   804 59BC 30 20		    bmi loc_59DE
   805 59BE			loc_59BE:
   806 59BE AC C1 08		    ldy $08C1
   807 59C1 B9 4C 62		    lda $624C,y
   808 59C4 8D BC 08		    sta $08BC
   809 59C7 20 0A 5A		    jsr sub_5A0A
   810 59CA EE BA 08		    inc $08BA
   811 59CD AD BA 08		    lda $08BA
   812 59D0 C9 07		    cmp #$07
   813 59D2 D0 05		    bne loc_59D9
   814 59D4 A9 01		    lda #$01
   815 59D6 8D BA 08		    sta $08BA
   816 59D9			loc_59D9:
   817 59D9 CE C1 08		    dec $08C1
   818 59DC 10 E0		    bpl loc_59BE
   819 59DE			loc_59DE:
   820 59DE CE BA 08		    dec $08BA
   821 59E1			sub_59E1:
   822 59E1 A9 55		    lda #$55
   823 59E3 8D B9 08		    sta $08B9
   824 59E6 18			    clc
   825 59E7 AD BE 08		    lda $08BE
   826 59EA 69 01		    adc #$01
   827 59EC 8D C1 08		    sta $08C1
   828 59EF			loc_59EF:
   829 59EF 20 9D 5A		    jsr sub_5A9D
   830 59F2 AD BD 08		    lda $08BD
   831 59F5 20 AE 5A		    jsr sub_5AAE
   832 59F8 AD BE 08		    lda $08BE
   833 59FB 20 AE 5A		    jsr sub_5AAE
   834 59FE AD C1 08		    lda $08C1
   835 5A01 20 AE 5A		    jsr sub_5AAE
   836 5A04 CE B9 08		    dec $08B9
   837 5A07 10 E6		    bpl loc_59EF
   838 5A09 60			    rts
   839 5A0A			sub_5A0A:
   840 5A0A AD BA 08		    lda $08BA
   841 5A0D A8			    tay
   842 5A0E 19 C3 5A		    ora $5AC3,y
   843 5A11 85 BA		    sta $BA
   844 5A13			loc_5A13:
   845 5A13 20 2B 5A		    jsr sub_5A2B
   846 5A16 20 6E 5A		    jsr sub_5A6E
   847 5A19 CE BD 08		    dec $08BD
   848 5A1C EE BE 08		    inc $08BE
   849 5A1F EE BF 08		    inc $08BF
   850 5A22 CE C0 08		    dec $08C0
   851 5A25 CE BC 08		    dec $08BC
   852 5A28 D0 E9		    bne loc_5A13
   853 5A2A 60			    rts
   854 5A2B			sub_5A2B:
   855 5A2B AC BF 08		    ldy $08BF
   856 5A2E B9 51 07		    lda $0751,y
   857 5A31 85 80		    sta $80
   858 5A33 B9 A7 07		    lda $07A7,y
   859 5A36 85 81		    sta $81
   860 5A38 AC C0 08		    ldy $08C0
   861 5A3B B9 51 07		    lda $0751,y
   862 5A3E 85 B8		    sta $B8
   863 5A40 B9 A7 07		    lda $07A7,y
   864 5A43 85 B9		    sta $B9
   865 5A45 AD BD 08		    lda $08BD
   866 5A48 4A			    lsr
   867 5A49 85 82		    sta $82
   868 5A4B AD BE 08		    lda $08BE
   869 5A4E 4A			    lsr
   870 5A4F 85 83		    sta $83
   871 5A51 B0 05		    bcs loc_5A58
   872 5A53 C6 83		    dec $83
   873 5A55 4C 5A 5A		    jmp loc_5A5A
   874 5A58			loc_5A58:
   875 5A58 E6 82		    inc $82
   876 5A5A			loc_5A5A:
   877 5A5A 38			    sec
   878 5A5B A5 83		    lda $83
   879 5A5D A8			    tay
   880 5A5E E5 82		    sbc $82
   881 5A60 85 E0		    sta FR1
   882 5A62 A5 BA		    lda $BA
   883 5A64			loc_5A64:
   884 5A64 91 80		    sta ($80),y
   885 5A66 91 B8		    sta ($B8),y
   886 5A68 88			    dey
   887 5A69 C6 E0		    dec FR1
   888 5A6B 10 F7		    bpl loc_5A64
   889 5A6D 60			    rts
   890 5A6E			sub_5A6E:
   891 5A6E AD C0 08		    lda $08C0
   892 5A71 85 84		    sta $84
   893 5A73 38			    sec
   894 5A74 AD BF 08		    lda $08BF
   895 5A77 ED C0 08		    sbc $08C0
   896 5A7A 85 E0		    sta FR1
   897 5A7C			loc_5A7C:
   898 5A7C A4 84		    ldy $84
   899 5A7E B9 51 07		    lda $0751,y
   900 5A81 85 80		    sta $80
   901 5A83 B9 A7 07		    lda $07A7,y
   902 5A86 85 81		    sta $81
   903 5A88 AD BD 08		    lda $08BD
   904 5A8B 20 AE 5A		    jsr sub_5AAE
   905 5A8E AD BE 08		    lda $08BE
   906 5A91 4A			    lsr
   907 5A92 A8			    tay
   908 5A93 20 B8 5A		    jsr sub_5AB8
   909 5A96 E6 84		    inc $84
   910 5A98 C6 E0		    dec FR1
   911 5A9A 10 E0		    bpl loc_5A7C
   912 5A9C 60			    rts
   913 5A9D			sub_5A9D:
   914 5A9D AC B9 08		    ldy $08B9
   915 5AA0			sub_5AA0:
   916 5AA0 B9 51 07		    lda $0751,y
   917 5AA3 85 80		    sta $80
   918 5AA5 B9 A7 07		    lda $07A7,y
   919 5AA8 85 81		    sta $81
   920 5AAA 60			    rts
   921 5AAB			sub_5AAB:
   922 5AAB AD B8 08		    lda $08B8
   923 5AAE			sub_5AAE:
   924 5AAE 4A			    lsr
   925 5AAF A8			    tay
   926 5AB0 AD BA 08		    lda $08BA
   927 5AB3 90 02		    bcc loc_5AB7
   928 5AB5 69 08		    adc #$08
   929 5AB7			loc_5AB7:
   930 5AB7 AA			    tax
   931 5AB8			sub_5AB8:
   932 5AB8 B1 80		    lda ($80),y
   933 5ABA 1D C3 5A		    ora $5AC3,x
   934 5ABD 3D D5 5A		    and $5AD5,x
   935 5AC0 91 80		    sta ($80),y
   936 5AC2 60			    rts
   937 5AC3 00 10 20 30 40 50 +     .byte $00,$10,$20,$30,$40,$50,$60,$70,$80,$00,$01,$02,$03,$04,$05,$06 ; $5AC3
   938 5AD3 07 08 0F 1F 2F 3F +     .byte $07,$08,$0F,$1F,$2F,$3F,$4F,$5F,$6F,$7F,$8F,$F0,$F1,$F2,$F3,$F4 ; $5AD3
   939 5AE3 F5 F6 F7 F8 AC C1 +     .byte $F5,$F6,$F7,$F8,$AC,$C1,$08,$C0,$06,$30,$0C,$B9,$4C,$62,$8D,$BC ; $5AE3
   940 5AF3 08 20 0A 5A 4C FF +     .byte $08,$20,$0A,$5A,$4C,$FF,$5A,$A9,$00,$8D,$D1,$08,$CE,$C1,$08,$18 ; $5AF3
   941 5B03 AD C1 08 69 01 8D +     .byte $AD,$C1,$08,$69,$01,$8D,$D8,$08,$60              ; $5B03
   942 5B0C			sub_5B0C:
   943 5B0C A9 54		    lda #$54
   944 5B0E 8D B9 08		    sta $08B9
   945 5B11 A9 00		    lda #$00
   946 5B13 8D BA 08		    sta $08BA
   947 5B16			loc_5B16:
   948 5B16 20 9D 5A		    jsr sub_5A9D
   949 5B19 A9 15		    lda #$15
   950 5B1B 20 AE 5A		    jsr sub_5AAE
   951 5B1E A9 2E		    lda #$2E
   952 5B20 20 AE 5A		    jsr sub_5AAE
   953 5B23 A9 47		    lda #$47
   954 5B25 20 AE 5A		    jsr sub_5AAE
   955 5B28 38			    sec
   956 5B29 AD B9 08		    lda $08B9
   957 5B2C E9 08		    sbc #$08
   958 5B2E 8D B9 08		    sta $08B9
   959 5B31 10 E3		    bpl loc_5B16
   960 5B33			sub_5B33:
   961 5B33 A9 2E		    lda #$2E
   962 5B35 8D B9 08		    sta $08B9
   963 5B38 AE 1C 06		    ldx $061C
   964 5B3B F0 02		    beq loc_5B3F
   965 5B3D A2 05		    ldx #$05
   966 5B3F			loc_5B3F:
   967 5B3F A9 1B		    lda #$1B
   968 5B41 8D BD 08		    sta $08BD
   969 5B44 86 C6		    stx $C6
   970 5B46 A0 05		    ldy #$05
   971 5B48 84 C7		    sty $C7
   972 5B4A			loc_5B4A:
   973 5B4A A9 00		    lda #$00
   974 5B4C 85 85		    sta $85
   975 5B4E A6 C6		    ldx $C6
   976 5B50 BD 60 62		    lda $6260,x
   977 5B53 0A			    asl
   978 5B54 0A			    asl
   979 5B55 0A			    asl
   980 5B56 85 84		    sta $84
   981 5B58 26 85		    rol $85
   982 5B5A 18			    clc
   983 5B5B A5 84		    lda $84
   984 5B5D 69 00		    adc #$00
   985 5B5F 85 84		    sta $84
   986 5B61 A5 85		    lda $85
   987 5B63 69 E0		    adc #$E0
   988 5B65 85 85		    sta $85
   989 5B67 20 71 5B		    jsr sub_5B71
   990 5B6A E6 C6		    inc $C6
   991 5B6C C6 C7		    dec $C7
   992 5B6E D0 DA		    bne loc_5B4A
   993 5B70 60			    rts
   994 5B71			sub_5B71:
   995 5B71 AD BB 08		    lda $08BB
   996 5B74 8D BA 08		    sta $08BA
   997 5B77 20 9D 5A		    jsr sub_5A9D
   998 5B7A A9 07		    lda #$07
   999 5B7C 8D CA 08		    sta $08CA
  1000 5B7F			loc_5B7F:
  1001 5B7F AD BD 08		    lda $08BD
  1002 5B82 8D B8 08		    sta $08B8
  1003 5B85 AC CA 08		    ldy $08CA
  1004 5B88 B1 84		    lda ($84),y
  1005 5B8A			loc_5B8A:
  1006 5B8A 0A			    asl
  1007 5B8B 48			    pha
  1008 5B8C 90 03		    bcc loc_5B91
  1009 5B8E 20 AB 5A		    jsr sub_5AAB
  1010 5B91			loc_5B91:
  1011 5B91 EE B8 08		    inc $08B8
  1012 5B94 68			    pla
  1013 5B95 D0 F3		    bne loc_5B8A
  1014 5B97 38			    sec
  1015 5B98 A5 80		    lda $80
  1016 5B9A E9 2E		    sbc #$2E
  1017 5B9C 85 80		    sta $80
  1018 5B9E A5 81		    lda $81
  1019 5BA0 E9 00		    sbc #$00
  1020 5BA2 85 81		    sta $81
  1021 5BA4 CE CA 08		    dec $08CA
  1022 5BA7 10 D6		    bpl loc_5B7F
  1023 5BA9 18			    clc
  1024 5BAA AD BD 08		    lda $08BD
  1025 5BAD 69 08		    adc #$08
  1026 5BAF 8D BD 08		    sta $08BD
  1027 5BB2 60			    rts
  1028 5BB3			sub_5BB3:
  1029 5BB3 A9 38		    lda #$38
  1030 5BB5 8D B9 08		    sta $08B9
  1031 5BB8 A9 27		    lda #$27
  1032 5BBA 8D BD 08		    sta $08BD
  1033 5BBD A9 E0		    lda #$E0
  1034 5BBF 85 85		    sta $85
  1035 5BC1 AD 1B 06		    lda $061B
  1036 5BC4 C9 63		    cmp #$63
  1037 5BC6 90 05		    bcc loc_5BCD
  1038 5BC8 A9 63		    lda #$63
  1039 5BCA 8D 1B 06		    sta $061B
  1040 5BCD			loc_5BCD:
  1041 5BCD AC 1C 06		    ldy $061C
  1042 5BD0 F0 03		    beq loc_5BD5
  1043 5BD2 AD 07 06		    lda $0607
  1044 5BD5			loc_5BD5:
  1045 5BD5 20 CB 7D		    jsr sub_7DCB
  1046 5BD8 48			    pha
  1047 5BD9 4A			    lsr
  1048 5BDA 29 78		    and #$78
  1049 5BDC 18			    clc
  1050 5BDD 69 80		    adc #$80
  1051 5BDF 85 84		    sta $84
  1052 5BE1 20 71 5B		    jsr sub_5B71
  1053 5BE4 68			    pla
  1054 5BE5 29 0F		    and #$0F
  1055 5BE7 0A			    asl
  1056 5BE8 0A			    asl
  1057 5BE9 0A			    asl
  1058 5BEA 18			    clc
  1059 5BEB 69 80		    adc #$80
  1060 5BED 85 84		    sta $84
  1061 5BEF 4C 71 5B		    jmp sub_5B71
  1062 5BF2			sub_5BF2:
  1063 5BF2 A9 04		    lda #$04
  1064 5BF4 8D BA 08		    sta $08BA
  1065 5BF7 A9 06		    lda #$06
  1066 5BF9 85 E0		    sta FR1
  1067 5BFB A9 07		    lda #$07
  1068 5BFD 85 82		    sta $82
  1069 5BFF A9 00		    lda #$00
  1070 5C01 85 84		    sta $84
  1071 5C03			loc_5C03:
  1072 5C03 A5 82		    lda $82
  1073 5C05 09 07		    ora #$07
  1074 5C07 4A			    lsr
  1075 5C08 4A			    lsr
  1076 5C09 8D BC 08		    sta $08BC
  1077 5C0C			loc_5C0C:
  1078 5C0C AD 0A D2		    lda RANDOM
  1079 5C0F 25 82		    and $82
  1080 5C11 8D B8 08		    sta $08B8
  1081 5C14 AD 0A D2		    lda RANDOM
  1082 5C17 25 82		    and $82
  1083 5C19 8D B9 08		    sta $08B9
  1084 5C1C C5 84		    cmp $84
  1085 5C1E B0 07		    bcs loc_5C27
  1086 5C20 AD B8 08		    lda $08B8
  1087 5C23 C5 84		    cmp $84
  1088 5C25 90 E5		    bcc loc_5C0C
  1089 5C27			loc_5C27:
  1090 5C27 A9 2A		    lda #$2A
  1091 5C29 85 85		    sta $85
  1092 5C2B AD B9 08		    lda $08B9
  1093 5C2E 20 69 5C		    jsr sub_5C69
  1094 5C31 A8			    tay
  1095 5C32 20 A0 5A		    jsr sub_5AA0
  1096 5C35 A9 2F		    lda #$2F
  1097 5C37 85 85		    sta $85
  1098 5C39 AD B8 08		    lda $08B8
  1099 5C3C 20 69 5C		    jsr sub_5C69
  1100 5C3F 20 AE 5A		    jsr sub_5AAE
  1101 5C42 CE BC 08		    dec $08BC
  1102 5C45 D0 C5		    bne loc_5C0C
  1103 5C47 18			    clc
  1104 5C48 A5 82		    lda $82
  1105 5C4A 69 07		    adc #$07
  1106 5C4C 85 82		    sta $82
  1107 5C4E 18			    clc
  1108 5C4F A5 84		    lda $84
  1109 5C51 69 06		    adc #$06
  1110 5C53 85 84		    sta $84
  1111 5C55 EE BA 08		    inc $08BA
  1112 5C58 AD BA 08		    lda $08BA
  1113 5C5B C9 07		    cmp #$07
  1114 5C5D D0 05		    bne loc_5C64
  1115 5C5F A9 01		    lda #$01
  1116 5C61 8D BA 08		    sta $08BA
  1117 5C64			loc_5C64:
  1118 5C64 C6 E0		    dec FR1
  1119 5C66 D0 9B		    bne loc_5C03
  1120 5C68 60			    rts
  1121 5C69			sub_5C69:
  1122 5C69 85 B8		    sta $B8
  1123 5C6B A5 85		    lda $85
  1124 5C6D AC 0A D2		    ldy RANDOM
  1125 5C70 10 06		    bpl loc_5C78
  1126 5C72 38			    sec
  1127 5C73 E5 B8		    sbc $B8
  1128 5C75 4C 7B 5C		    jmp loc_5C7B
  1129 5C78			loc_5C78:
  1130 5C78 18			    clc
  1131 5C79 65 B8		    adc $B8
  1132 5C7B			loc_5C7B:
  1133 5C7B 60			    rts
  1134 5C7C			sub_5C7C:
  1135 5C7C A0 05		    ldy #$05
  1136 5C7E			loc_5C7E:
  1137 5C7E 99 CD 08		    sta $08CD,y
  1138 5C81 88			    dey
  1139 5C82 10 FA		    bpl loc_5C7E
  1140 5C84 60			    rts
  1141 5C85 20 E4 5D		    .byte $20,$E4,$5D                                      ; $5C85
  1142 5C88			init_terrain_strips:
  1143 5C88 A0 08		    ldy #$08
  1144 5C8A A9 FF		    lda #$FF
  1145 5C8C			loc_5C8C:
  1146 5C8C 99 87 0C		    sta $0C87,y
  1147 5C8F 99 87 0D		    sta $0D87,y
  1148 5C92 99 87 0E		    sta $0E87,y
  1149 5C95 99 87 0F		    sta $0F87,y
  1150 5C98 88			    dey
  1151 5C99 D0 F1		    bne loc_5C8C
  1152 5C9B 60			    rts
  1153 5C9C			sub_5C9C:
  1154 5C9C A0 2F		    ldy #$2F
  1155 5C9E A9 88		    lda #$88
  1156 5CA0			loc_5CA0:
  1157 5CA0 99 74 2F		    sta $2F74,y
  1158 5CA3 88			    dey
  1159 5CA4 D0 FA		    bne loc_5CA0
  1160 5CA6 A0 7E		    ldy #$7E
  1161 5CA8			loc_5CA8:
  1162 5CA8 A9 74		    lda #$74
  1163 5CAA 99 0A 30		    sta $300A,y
  1164 5CAD 99 8B 30		    sta $308B,y
  1165 5CB0 A9 2F		    lda #$2F
  1166 5CB2 99 0B 30		    sta $300B,y
  1167 5CB5 99 8C 30		    sta $308C,y
  1168 5CB8 88			    dey
  1169 5CB9 88			    dey
  1170 5CBA 88			    dey
  1171 5CBB 10 EB		    bpl loc_5CA8
  1172 5CBD 60			    rts
  1173 5CBE			sub_5CBE:
  1174 5CBE B9 4C 62		    lda $624C,y
  1175 5CC1 8D BC 08		    sta $08BC
  1176 5CC4 48			    pha
  1177 5CC5 A6 C5		    ldx $C5
  1178 5CC7 A4 C4		    ldy $C4
  1179 5CC9			loc_5CC9:
  1180 5CC9 BD 51 07		    lda $0751,x
  1181 5CCC 99 0A 30		    sta $300A,y
  1182 5CCF BD A7 07		    lda $07A7,x
  1183 5CD2 99 0B 30		    sta $300B,y
  1184 5CD5 88			    dey
  1185 5CD6 88			    dey
  1186 5CD7 88			    dey
  1187 5CD8 CA			    dex
  1188 5CD9 CE BC 08		    dec $08BC
  1189 5CDC D0 EB		    bne loc_5CC9
  1190 5CDE 86 C5		    stx $C5
  1191 5CE0 68			    pla
  1192 5CE1 8D BC 08		    sta $08BC
  1193 5CE4 A6 C3		    ldx $C3
  1194 5CE6 A4 C2		    ldy $C2
  1195 5CE8			loc_5CE8:
  1196 5CE8 BD 51 07		    lda $0751,x
  1197 5CEB 99 8B 30		    sta $308B,y
  1198 5CEE BD A7 07		    lda $07A7,x
  1199 5CF1 99 8C 30		    sta $308C,y
  1200 5CF4 C8			    iny
  1201 5CF5 C8			    iny
  1202 5CF6 C8			    iny
  1203 5CF7 E8			    inx
  1204 5CF8 CE BC 08		    dec $08BC
  1205 5CFB D0 EB		    bne loc_5CE8
  1206 5CFD 86 C3		    stx $C3
  1207 5CFF A4 BA		    ldy $BA
  1208 5D01 38			    sec
  1209 5D02 A5 C4		    lda $C4
  1210 5D04 F9 4C 62		    sbc $624C,y
  1211 5D07 F9 4C 62		    sbc $624C,y
  1212 5D0A F9 4C 62		    sbc $624C,y
  1213 5D0D 85 C4		    sta $C4
  1214 5D0F 18			    clc
  1215 5D10 A5 C2		    lda $C2
  1216 5D12 79 4C 62		    adc $624C,y
  1217 5D15 79 4C 62		    adc $624C,y
  1218 5D18 79 4C 62		    adc $624C,y
  1219 5D1B 85 C2		    sta $C2
  1220 5D1D			sub_5D1D:
  1221 5D1D B9 4C 62		    lda $624C,y
  1222 5D20 8D BC 08		    sta $08BC
  1223 5D23 C0 00		    cpy #$00
  1224 5D25 D0 06		    bne loc_5D2D
  1225 5D27 EE BC 08		    inc $08BC
  1226 5D2A EE BC 08		    inc $08BC
  1227 5D2D			loc_5D2D:
  1228 5D2D 85 85		    sta $85
  1229 5D2F			loc_5D2F:
  1230 5D2F 20 6E 5A		    jsr sub_5A6E
  1231 5D32 CE BD 08		    dec $08BD
  1232 5D35 EE BE 08		    inc $08BE
  1233 5D38 CE BC 08		    dec $08BC
  1234 5D3B D0 F2		    bne loc_5D2F
  1235 5D3D 18			    clc
  1236 5D3E AD BF 08		    lda $08BF
  1237 5D41 65 85		    adc $85
  1238 5D43 8D BF 08		    sta $08BF
  1239 5D46 38			    sec
  1240 5D47 AD C0 08		    lda $08C0
  1241 5D4A E5 85		    sbc $85
  1242 5D4C 8D C0 08		    sta $08C0
  1243 5D4F 60			    rts
  1244 5D50 CE DA 08 F0 09 20 +     .byte $CE,$DA,$08,$F0,$09,$20,$C8,$5D,$20,$AC,$5D,$4C,$63,$5D,$A9,$08 ; $5D50
  1245 5D60 8D DC 08 AC CB 08 +     .byte $8D,$DC,$08,$AC,$CB,$08,$20,$91,$5D,$8C,$CB,$08,$AE,$CA,$08,$20 ; $5D60
  1246 5D70 76 5D 8E CA 08 60 +     .byte $76,$5D,$8E,$CA,$08,$60,$A5,$81,$9D,$0A,$30,$CA,$A5,$80,$9D,$0A ; $5D70
  1247 5D80 30 38 A5 80 E9 2E +     .byte $30,$38,$A5,$80,$E9,$2E,$85,$80,$A5,$81,$E9,$00,$85,$81,$CA,$CA ; $5D80
  1248 5D90 60 A5 82 99 89 30 +     .byte $60,$A5,$82,$99,$89,$30,$C8,$A5,$83,$99,$89,$30,$18,$A5,$82,$69 ; $5D90
  1249 5DA0 2E 85 82 A5 83 69 +     .byte $2E,$85,$82,$A5,$83,$69,$00,$85,$83,$C8,$C8,$60,$A2,$01,$EC,$CA ; $5DA0
  1250 5DB0 08 F0 14 BD 0C 30 +     .byte $08,$F0,$14,$BD,$0C,$30,$9D,$09,$30,$E8,$BD,$0C,$30,$9D,$09,$30 ; $5DB0
  1251 5DC0 E8 E8 EC CA 08 D0 +     .byte $E8,$E8,$EC,$CA,$08,$D0,$EC,$60,$A0,$80,$CC,$CB,$08,$F0,$14,$B9 ; $5DC0
  1252 5DD0 87 30 99 8A 30 88 +     .byte $87,$30,$99,$8A,$30,$88,$B9,$87,$30,$99,$8A,$30,$88,$88,$CC,$CB ; $5DD0
  1253 5DE0 08 D0 EC 60		    .byte $08,$D0,$EC,$60                                  ; $5DE0
  1254 5DE4			patch_dl_lms:
  1255 5DE4 A9 00		    lda #$00
  1256 5DE6 8D DB 08		    sta $08DB
  1257 5DE9 F0 03		    beq loc_5DEE
  1258 5DEB			sub_5DEB:
  1259 5DEB CE DB 08		    dec $08DB
  1260 5DEE			loc_5DEE:
  1261 5DEE A9 0A		    lda #$0A
  1262 5DF0 85 C6		    sta $C6
  1263 5DF2 A9 30		    lda #$30
  1264 5DF4 85 C7		    sta $C7
  1265 5DF6 A9 56		    lda #$56
  1266 5DF8 85 86		    sta $86
  1267 5DFA			sub_5DFA:
  1268 5DFA AE DB 08		    ldx $08DB
  1269 5DFD A0 00		    ldy #$00
  1270 5DFF			loc_5DFF:
  1271 5DFF BD 51 07		    lda $0751,x
  1272 5E02 91 C6		    sta ($C6),y
  1273 5E04 C8			    iny
  1274 5E05 D0 02		    bne loc_5E09
  1275 5E07 E6 C7		    inc $C7
  1276 5E09			loc_5E09:
  1277 5E09 BD A7 07		    lda $07A7,x
  1278 5E0C 91 C6		    sta ($C6),y
  1279 5E0E C8			    iny
  1280 5E0F C8			    iny
  1281 5E10 E8			    inx
  1282 5E11 E4 86		    cpx $86
  1283 5E13 D0 EA		    bne loc_5DFF
  1284 5E15 AD DB 08		    lda $08DB
  1285 5E18 F0 17		    beq loc_5E31
  1286 5E1A			sub_5E1A:
  1287 5E1A 85 84		    sta $84
  1288 5E1C A0 FF		    ldy #$FF
  1289 5E1E			loc_5E1E:
  1290 5E1E B9 07 30		    lda $3007,y
  1291 5E21 99 0A 30		    sta $300A,y
  1292 5E24 B9 08 30		    lda $3008,y
  1293 5E27 99 0B 30		    sta $300B,y
  1294 5E2A 88			    dey
  1295 5E2B 88			    dey
  1296 5E2C 88			    dey
  1297 5E2D C6 84		    dec $84
  1298 5E2F D0 ED		    bne loc_5E1E
  1299 5E31			loc_5E31:
  1300 5E31 60			    rts
  1301 5E32 CE DC 08 38 A9 08 +     .byte $CE,$DC,$08,$38,$A9,$08,$ED,$DC,$08,$A8,$A9,$00,$99,$87,$0C,$99 ; $5E32
  1302 5E42 87 0D 60 A9 75 20 +     .byte $87,$0D,$60,$A9,$75,$20,$CE,$5E,$8D,$C5,$08,$CD,$C6,$08,$D0,$01 ; $5E42
  1303 5E52 60 8D C6 08 C9 90 +     .byte $60,$8D,$C6,$08,$C9,$90,$90,$03,$20,$E7,$5A,$AD,$D2,$08,$48,$AD ; $5E52
  1304 5E62 D1 08 8D D2 08 AD +     .byte $D1,$08,$8D,$D2,$08,$AD,$D0,$08,$8D,$D1,$08,$AD,$CF,$08,$8D,$D0 ; $5E62
  1305 5E72 08 AD CE 08 8D CF +     .byte $08,$AD,$CE,$08,$8D,$CF,$08,$AD,$CD,$08,$8D,$CE,$08,$68,$8D,$CD ; $5E72
  1306 5E82 08 AD DD 08 10 06 +     .byte $08,$AD,$DD,$08,$10,$06,$AD,$D1,$08,$8D,$12,$06,$A0,$0C,$18,$B9 ; $5E82
  1307 5E92 7B 06 6D CE 06 D0 +     .byte $7B,$06,$6D,$CE,$06,$D0,$02,$A9,$FF,$99,$7B,$06,$4C,$AA,$92,$A9 ; $5E92
  1308 5EA2 7E 20 E9 5E 8D C5 +     .byte $7E,$20,$E9,$5E,$8D,$C5,$08,$CD,$C6,$08,$F0,$1F,$8D,$C6,$08,$C9 ; $5EA2
  1309 5EB2 14 B0 0D A8 8D DD +     .byte $14,$B0,$0D,$A8,$8D,$DD,$08,$B9,$4C,$62,$8D,$BC,$08,$20,$0A,$5A ; $5EB2
  1310 5EC2 AD DD 08 F0 06 EE +     .byte $AD,$DD,$08,$F0,$06,$EE,$DE,$08,$4C,$5D,$5E,$60,$18,$6D,$C2,$08 ; $5EC2
  1311 5ED2 8D C2 08 A9 00 6D +     .byte $8D,$C2,$08,$A9,$00,$6D,$C3,$08,$8D,$C3,$08,$6D,$C4,$08,$8D,$C4 ; $5ED2
  1312 5EE2 08 A9 00 6D C5 08 +     .byte $08,$A9,$00,$6D,$C5,$08,$60,$38,$8D,$D3,$08,$AD,$C2,$08,$ED,$D3 ; $5EE2
  1313 5EF2 08 8D C2 08 AD C3 +     .byte $08,$8D,$C2,$08,$AD,$C3,$08,$E9,$00,$8D,$C3,$08,$AD,$C4,$08,$ED ; $5EF2
  1314 5F02 C3 08 8D C4 08 AD +     .byte $C3,$08,$8D,$C4,$08,$AD,$C5,$08,$E9,$00,$60      ; $5F02
  1315 5F0D			sub_5F0D:
  1316 5F0D A0 59		    ldy #$59
  1317 5F0F			loc_5F0F:
  1318 5F0F 20 5C 5F		    jsr sub_5F5C
  1319 5F12 88			    dey
  1320 5F13 D0 FA		    bne loc_5F0F
  1321 5F15 60			    rts
  1322 5F16 C9 04 30 20 A9 FF +     .byte $C9,$04,$30,$20,$A9,$FF,$20,$CE,$5E,$C9,$64,$D0,$07,$A9,$02,$8D ; $5F16
  1323 5F26 D9 08 D0 10 8D C5 +     .byte $D9,$08,$D0,$10,$8D,$C5,$08,$38,$ED,$C6,$08,$D0,$01,$60,$AD,$C5 ; $5F26
  1324 5F36 08 8D C6 08 A0 00 +     .byte $08,$8D,$C6,$08,$A0,$00,$B9,$33,$0C,$99,$32,$0C,$B9,$33,$0D,$99 ; $5F36
  1325 5F46 32 0D B9 33 0E 99 +     .byte $32,$0D,$B9,$33,$0E,$99,$32,$0E,$B9,$33,$0F,$99,$32,$0F,$C8,$C0 ; $5F46
  1326 5F56 59 D0 E3 CE CC 08	    .byte $59,$D0,$E3,$CE,$CC,$08                          ; $5F56
  1327 5F5C			sub_5F5C:
  1328 5F5C 20 75 5F		    jsr sub_5F75
  1329 5F5F 99 32 0C		    sta $0C32,y
  1330 5F62 20 75 5F		    jsr sub_5F75
  1331 5F65 99 32 0D		    sta $0D32,y
  1332 5F68 20 75 5F		    jsr sub_5F75
  1333 5F6B 99 32 0E		    sta $0E32,y
  1334 5F6E 20 75 5F		    jsr sub_5F75
  1335 5F71 99 32 0F		    sta $0F32,y
  1336 5F74 60			    rts
  1337 5F75			sub_5F75:
  1338 5F75 AD 0A D2		    lda RANDOM
  1339 5F78 29 1F		    and #$1F
  1340 5F7A C9 01		    cmp #$01
  1341 5F7C 10 0C		    bpl loc_5F8A
  1342 5F7E AD 0A D2		    lda RANDOM
  1343 5F81 29 03		    and #$03
  1344 5F83 AA			    tax
  1345 5F84 BD 8D 5F		    lda $5F8D,x
  1346 5F87 4C 8C 5F		    jmp loc_5F8C
  1347 5F8A			loc_5F8A:
  1348 5F8A A9 00		    lda #$00
  1349 5F8C			loc_5F8C:
  1350 5F8C 60			    rts
  1351 5F8D 80 20 04 01		    .byte $80,$20,$04,$01                                  ; $5F8D
  1352 5F91			sub_5F91:
  1353 5F91 A0 5F		    ldy #$5F
  1354 5F93 A9 00		    lda #$00
  1355 5F95			loc_5F95:
  1356 5F95 99 32 0E		    sta $0E32,y
  1357 5F98 99 32 0F		    sta $0F32,y
  1358 5F9B 88			    dey
  1359 5F9C 10 F7		    bpl loc_5F95
  1360 5F9E 60			    rts
  1361 5F9F			sub_5F9F:
  1362 5F9F A9 00		    lda #$00
  1363 5FA1 A2 03		    ldx #$03
  1364 5FA3			loc_5FA3:
  1365 5FA3 9D C0 02		    sta PCOLR0,x
  1366 5FA6 9D C2 08		    sta $08C2,x
  1367 5FA9 CA			    dex
  1368 5FAA 10 F7		    bpl loc_5FA3
  1369 5FAC 8D C6 08		    sta $08C6
  1370 5FAF 60			    rts
  1371 5FB0 72 C4 6C 95 95	    .byte $72,$C4,$6C,$95,$95                              ; $5FB0
  1372 5FB5			sub_5FB5:
  1373 5FB5 A9 00		    lda #$00
  1374 5FB7 8D C8 08		    sta $08C8
  1375 5FBA 8D C9 08		    sta $08C9
  1376 5FBD 8D C7 08		    sta $08C7
  1377 5FC0 A0 2A		    ldy #$2A
  1378 5FC2			loc_5FC2:
  1379 5FC2 18			    clc
  1380 5FC3 B9 6A 62		    lda $626A,y
  1381 5FC6 69 E0		    adc #$E0
  1382 5FC8 99 8C 08		    sta $088C,y
  1383 5FCB B9 6B 62		    lda $626B,y
  1384 5FCE 69 2E		    adc #$2E
  1385 5FD0 99 8D 08		    sta $088D,y
  1386 5FD3 88			    dey
  1387 5FD4 88			    dey
  1388 5FD5 10 EB		    bpl loc_5FC2
  1389 5FD7 60			    rts
  1390 5FD8			sub_5FD8:
  1391 5FD8 EE C7 08		    inc $08C7
  1392 5FDB 18			    clc
  1393 5FDC AD C8 08		    lda $08C8
  1394 5FDF 69 18		    adc #$18
  1395 5FE1 8D C8 08		    sta $08C8
  1396 5FE4 AD C9 08		    lda $08C9
  1397 5FE7 69 00		    adc #$00
  1398 5FE9 8D C9 08		    sta $08C9
  1399 5FEC A2 2A		    ldx #$2A
  1400 5FEE			loc_5FEE:
  1401 5FEE BD 8C 08		    lda $088C,x
  1402 5FF1 85 BA		    sta $BA
  1403 5FF3 85 84		    sta $84
  1404 5FF5 BD 8D 08		    lda $088D,x
  1405 5FF8 85 BB		    sta $BB
  1406 5FFA 85 85		    sta $85
  1407 5FFC 0A			    asl
  1408 5FFD 85 84		    sta $84
  1409 5FFF A9 00		    lda #$00
  1410 6001 2A			    rol
  1411 6002 06 84		    asl $84
  1412 6004 2A			    rol
  1413 6005 85 85		    sta $85
  1414 6007 18			    clc
  1415 6008 A5 84		    lda $84
  1416 600A 6D C9 08		    adc $08C9
  1417 600D 85 84		    sta $84
  1418 600F A5 85		    lda $85
  1419 6011 69 00		    adc #$00
  1420 6013 85 85		    sta $85
  1421 6015 20 1D 60		    jsr sub_601D
  1422 6018 CA			    dex
  1423 6019 CA			    dex
  1424 601A 10 D2		    bpl loc_5FEE
  1425 601C 60			    rts
  1426 601D			sub_601D:
  1427 601D 38			    sec
  1428 601E A5 BA		    lda $BA
  1429 6020 E5 84		    sbc $84
  1430 6022 85 B8		    sta $B8
  1431 6024 A5 BB		    lda $BB
  1432 6026 E5 85		    sbc $85
  1433 6028 10 02		    bpl loc_602C
  1434 602A A9 00		    lda #$00
  1435 602C			loc_602C:
  1436 602C 85 B9		    sta $B9
  1437 602E A5 B8		    lda $B8
  1438 6030 9D 8C 08		    sta $088C,x
  1439 6033 A5 B9		    lda $B9
  1440 6035 9D 8D 08		    sta $088D,x
  1441 6038 A9 FF		    lda #$FF
  1442 603A 85 84		    sta $84
  1443 603C A5 BB		    lda $BB
  1444 603E C9 2F		    cmp #$2F
  1445 6040 90 02		    bcc loc_6044
  1446 6042 A9 2E		    lda #$2E
  1447 6044			loc_6044:
  1448 6044 85 B8		    sta $B8
  1449 6046 20 7D 60		    jsr sub_607D
  1450 6049 A9 AA		    lda #$AA
  1451 604B 85 84		    sta $84
  1452 604D C6 B8		    dec $B8
  1453 604F 30 2B		    bmi loc_607C
  1454 6051 38			    sec
  1455 6052 A5 B9		    lda $B9
  1456 6054 ED C9 08		    sbc $08C9
  1457 6057 10 02		    bpl loc_605B
  1458 6059 A9 00		    lda #$00
  1459 605B			loc_605B:
  1460 605B 85 B9		    sta $B9
  1461 605D A5 B8		    lda $B8
  1462 605F 20 7D 60		    jsr sub_607D
  1463 6062 A5 B9		    lda $B9
  1464 6064 85 B8		    sta $B8
  1465 6066 A9 55		    lda #$55
  1466 6068 85 84		    sta $84
  1467 606A C6 B8		    dec $B8
  1468 606C 30 0E		    bmi loc_607C
  1469 606E C6 B9		    dec $B9
  1470 6070 10 04		    bpl loc_6076
  1471 6072 A9 00		    lda #$00
  1472 6074 85 B9		    sta $B9
  1473 6076			loc_6076:
  1474 6076 A5 B8		    lda $B8
  1475 6078 C9 2B		    cmp #$2B
  1476 607A 30 01		    bmi sub_607D
  1477 607C			loc_607C:
  1478 607C 60			    rts
  1479 607D			sub_607D:
  1480 607D 8D B9 08		    sta $08B9
  1481 6080 C5 B9		    cmp $B9
  1482 6082 30 41		    bmi loc_60C5
  1483 6084			loc_6084:
  1484 6084 C9 00		    cmp #$00
  1485 6086 10 05		    bpl loc_608D
  1486 6088 A9 00		    lda #$00
  1487 608A 8D B9 08		    sta $08B9
  1488 608D			loc_608D:
  1489 608D 48			    pha
  1490 608E 20 9D 5A		    jsr sub_5A9D
  1491 6091 8A			    txa
  1492 6092 4A			    lsr
  1493 6093 18			    clc
  1494 6094 69 02		    adc #$02
  1495 6096 85 85		    sta $85
  1496 6098 A8			    tay
  1497 6099 68			    pla
  1498 609A C9 2B		    cmp #$2B
  1499 609C 90 0F		    bcc loc_60AD
  1500 609E 20 C6 60		    jsr sub_60C6
  1501 60A1 38			    sec
  1502 60A2 A9 2F		    lda #$2F
  1503 60A4 E5 85		    sbc $85
  1504 60A6 A8			    tay
  1505 60A7 20 C6 60		    jsr sub_60C6
  1506 60AA 4C BB 60		    jmp loc_60BB
  1507 60AD			loc_60AD:
  1508 60AD A5 84		    lda $84
  1509 60AF 91 80		    sta ($80),y
  1510 60B1 38			    sec
  1511 60B2 A9 2F		    lda #$2F
  1512 60B4 E5 85		    sbc $85
  1513 60B6 A8			    tay
  1514 60B7 A5 84		    lda $84
  1515 60B9 91 80		    sta ($80),y
  1516 60BB			loc_60BB:
  1517 60BB CE B9 08		    dec $08B9
  1518 60BE AD B9 08		    lda $08B9
  1519 60C1 C5 B9		    cmp $B9
  1520 60C3 10 BF		    bpl loc_6084
  1521 60C5			loc_60C5:
  1522 60C5 60			    rts
  1523 60C6			sub_60C6:
  1524 60C6 8A			    txa
  1525 60C7 48			    pha
  1526 60C8 A2 04		    ldx #$04
  1527 60CA A9 C0		    lda #$C0
  1528 60CC 85 82		    sta $82
  1529 60CE B1 80		    lda ($80),y
  1530 60D0			loc_60D0:
  1531 60D0 24 82		    bit $82
  1532 60D2 D0 02		    bne loc_60D6
  1533 60D4 09 C0		    ora #$C0
  1534 60D6			loc_60D6:
  1535 60D6 2A			    rol
  1536 60D7 2A			    rol
  1537 60D8 CA			    dex
  1538 60D9 D0 F5		    bne loc_60D0
  1539 60DB 2A			    rol
  1540 60DC 91 80		    sta ($80),y
  1541 60DE 68			    pla
  1542 60DF AA			    tax
  1543 60E0 60			    rts
  1544 60E1 85 C9 84 CB A5 C8 +     .byte $85,$C9,$84,$CB,$A5,$C8,$0A,$A8,$B9,$F1,$61,$85,$E1,$B9,$F2,$61 ; $60E1
  1545 60F1 85 E2 6C E1 00 85 +     .byte $85,$E2,$6C,$E1,$00,$85,$C9,$84,$CB,$A5,$C8,$0A,$A8,$B9,$05,$62 ; $60F1
  1546 6101 85 E1 B9 06 62 85 +     .byte $85,$E1,$B9,$06,$62,$85,$E2,$6C,$E1,$00,$AD,$D1,$08,$8D,$14,$D0 ; $6101
  1547 6111 AD D0 08 8D 13 D0 +     .byte $AD,$D0,$08,$8D,$13,$D0,$AD,$D2,$08,$8D,$15,$D0,$A9,$94,$8D,$1B ; $6111
  1548 6121 D0 4C 06 4D 8D 0A +     .byte $D0,$4C,$06,$4D,$8D,$0A,$D4,$AD,$12,$06,$8D,$1A,$D0,$AD,$CD,$08 ; $6121
  1549 6131 8D 16 D0 AD CE 08 +     .byte $8D,$16,$D0,$AD,$CE,$08,$8D,$17,$D0,$AD,$CF,$08,$8D,$18,$D0,$4C ; $6131
  1550 6141 06 4D A4 DD A9 2A +     .byte $06,$4D,$A4,$DD,$A9,$2A,$8D,$0A,$D4,$8C,$1A,$D0,$8D,$18,$D0,$A9 ; $6141
  1551 6151 28 8D 17 D0 A9 24 +     .byte $28,$8D,$17,$D0,$A9,$24,$8D,$16,$D0,$4C,$06,$4D,$8D,$0A,$D4,$A9 ; $6151
  1552 6161 3E 8D 06 D0 A9 3C +     .byte $3E,$8D,$06,$D0,$A9,$3C,$8D,$07,$D0,$A9,$C2,$8D,$04,$D0,$A9,$C0 ; $6161
  1553 6171 8D 05 D0 4C 06 4D +     .byte $8D,$05,$D0,$4C,$06,$4D,$A9,$3F,$8D,$07,$D0,$A9,$BF,$8D,$04,$D0 ; $6171
  1554 6181 4C 06 4D A9 06 8D +     .byte $4C,$06,$4D,$A9,$06,$8D,$17,$D0,$A9,$04,$8D,$16,$D0,$A9,$2C,$8D ; $6181
  1555 6191 18 D0 AD D1 08 8D +     .byte $18,$D0,$AD,$D1,$08,$8D,$15,$D0,$4C,$06,$4D,$8D,$0A,$D4,$A9,$06 ; $6191
  1556 61A1 8D 17 D0 A9 04 8D +     .byte $8D,$17,$D0,$A9,$04,$8D,$16,$D0,$A9,$26,$8D,$19,$D0,$4C,$06,$4D ; $61A1
  1557 61B1 A9 04 8D 0A D4 8D +     .byte $A9,$04,$8D,$0A,$D4,$8D,$1B,$D0,$A9,$00,$8D,$1A,$D0,$AD,$12,$06 ; $61B1
  1558 61C1 8D 12 D0 8D 13 D0 +     .byte $8D,$12,$D0,$8D,$13,$D0,$A9,$26,$8D,$19,$D0,$4C,$06,$4D,$A9,$04 ; $61C1
  1559 61D1 8D 1B D0 4C 06 4D +     .byte $8D,$1B,$D0,$4C,$06,$4D,$8D,$0A,$D4,$A9,$94,$8D,$01,$D0,$A5,$DF ; $61D1
  1560 61E1 8D 13 D0 A9 2C 8D +     .byte $8D,$13,$D0,$A9,$2C,$8D,$18,$D0,$A9,$90,$8D,$1A,$D0,$4C,$06,$4D ; $61E1
  1561 61F1 0D 4D 0B 61 25 61 +     .byte $0D,$4D,$0B,$61,$25,$61,$5D,$61,$77,$61,$84,$61,$B1,$61,$CF,$61 ; $61F1
  1562 6201 D7 61 CE 4D 0D 4D +     .byte $D7,$61,$CE,$4D,$0D,$4D,$43,$61,$5D,$61,$77,$61,$9C,$61,$CF,$61 ; $6201
  1563 6211 D7 61 CE 4D		    .byte $D7,$61,$CE,$4D                                  ; $6211
  1564 6215			sub_6215:
  1565 6215 A9 2E		    lda #$2E
  1566 6217 8D BD 08		    sta $08BD
  1567 621A A9 30		    lda #$30
  1568 621C 8D BE 08		    sta $08BE
  1569 621F A9 2B		    lda #$2B
  1570 6221 8D BF 08		    sta $08BF
  1571 6224 A9 2A		    lda #$2A
  1572 6226 8D C0 08		    sta $08C0
  1573 6229 A9 13		    lda #$13
  1574 622B 8D C1 08		    sta $08C1
  1575 622E 60			    rts
  1576 622F			sub_622F:
  1577 622F AC 09 06		    ldy $0609
  1578 6232 98			    tya
  1579 6233 48			    pha
  1580 6234			loc_6234:
  1581 6234 38			    sec
  1582 6235 AD D4 08		    lda $08D4
  1583 6238 ED D5 08		    sbc $08D5
  1584 623B 8D D4 08		    sta $08D4
  1585 623E 8D 02 D2		    sta AUDF2
  1586 6241 20 AF 7D		    jsr wait_1_frame
  1587 6244 88			    dey
  1588 6245 D0 ED		    bne loc_6234
  1589 6247 68			    pla
  1590 6248 8D 09 06		    sta $0609
  1591 624B 60			    rts
  1592 624C 0B 06 04 03 02 02 +     .byte $0B,$06,$04,$03,$02,$02,$02,$01,$01,$01,$01,$01,$01,$01,$01,$01 ; $624C
  1593 625C 01 01 01 01 2C 25 +     .byte $01,$01,$01,$01,$2C,$25,$36,$25,$2C,$24,$32,$2F,$29,$24,$9E,$13 ; $625C
  1594 626C 23 12 A8 10 53 0F +     .byte $23,$12,$A8,$10,$53,$0F,$FD,$0D,$CE,$0C,$9F,$0B,$96,$0A,$8D,$09 ; $626C
  1595 627C A9 08 C6 07 08 07 +     .byte $A9,$08,$C6,$07,$08,$07,$4B,$06,$B3,$05,$1C,$05,$AA,$04,$38,$04 ; $627C
  1596 628C EC 03 A1 03 7B 03 +     .byte $EC,$03,$A1,$03,$7B,$03,$55,$03,$55,$03,$09,$C3,$0E,$66,$0E,$3C ; $628C
  1597 629C 0E C3 0E 66 0E 3C +     .byte $0E,$C3,$0E,$66,$0E,$3C,$08,$C3,$00,$96,$94,$92,$90,$9A,$98 ; $629C
  1598 62AB			sub_62AB:
  1599 62AB A9 80		    lda #$80
  1600 62AD 8D 43 06		    sta $0643
  1601 62B0 8D 0C 06		    sta $060C
  1602 62B3 AD A4 28		    lda $28A4
  1603 62B6 C9 03		    cmp #$03
  1604 62B8 90 31		    bcc loc_62EB
  1605 62BA A9 00		    lda #$00
  1606 62BC 8D F9 28		    sta $28F9
  1607 62BF AD A9 28		    lda $28A9
  1608 62C2 8D FA 28		    sta $28FA
  1609 62C5 A9 01		    lda #$01
  1610 62C7 8D 20 28		    sta $2820
  1611 62CA AE 0B 29		    ldx $290B
  1612 62CD BD 00 0A		    lda pilot_map,x
  1613 62D0 C9 80		    cmp #$80
  1614 62D2 D0 0D		    bne loc_62E1
  1615 62D4 AD 0E 06		    lda $060E
  1616 62D7 F0 0B		    beq loc_62E4
  1617 62D9 CD 0A D2		    cmp RANDOM
  1618 62DC 90 06		    bcc loc_62E4
  1619 62DE 4C EB 62		    jmp loc_62EB
  1620 62E1			loc_62E1:
  1621 62E1 CE 20 28		    dec $2820
  1622 62E4			loc_62E4:
  1623 62E4 EE AC 28		    inc $28AC
  1624 62E7 A9 0C		    lda #$0C
  1625 62E9 85 DC		    sta $DC
  1626 62EB			loc_62EB:
  1627 62EB AD 29 06		    lda $0629
  1628 62EE F0 17		    beq loc_6307
  1629 62F0 A5 14		    lda $14
  1630 62F2 29 08		    and #$08
  1631 62F4 F0 0E		    beq loc_6304
  1632 62F6 AD 48 28		    lda $2848
  1633 62F9 D0 06		    bne loc_6301
  1634 62FB EE 48 28		    inc $2848
  1635 62FE 20 A9 64		    jsr sub_64A9
  1636 6301			loc_6301:
  1637 6301 4C 07 63		    jmp loc_6307
  1638 6304			loc_6304:
  1639 6304 8D 48 28		    sta $2848
  1640 6307			loc_6307:
  1641 6307 AD A5 28		    lda $28A5
  1642 630A D0 37		    bne loc_6343
  1643 630C AC A3 28		    ldy $28A3
  1644 630F F0 03		    beq loc_6314
  1645 6311 20 95 64		    jsr sub_6495
  1646 6314			loc_6314:
  1647 6314 AC A4 28		    ldy $28A4
  1648 6317 A9 00		    lda #$00
  1649 6319 8D A4 28		    sta $28A4
  1650 631C 8D AC 28		    sta $28AC
  1651 631F C0 04		    cpy #$04
  1652 6321 F0 05		    beq loc_6328
  1653 6323 C0 03		    cpy #$03
  1654 6325 F0 01		    beq loc_6328
  1655 6327 60			    rts
  1656 6328			loc_6328:
  1657 6328 AD 20 28		    lda $2820
  1658 632B D0 0B		    bne loc_6338
  1659 632D A9 49		    lda #$49
  1660 632F 8D 35 06		    sta $0635
  1661 6332 20 2A 65		    jsr sub_652A
  1662 6335 4C 40 63		    jmp loc_6340
  1663 6338			loc_6338:
  1664 6338 A9 40		    lda #$40
  1665 633A 8D 35 06		    sta $0635
  1666 633D 20 5E 65		    jsr sub_655E
  1667 6340			loc_6340:
  1668 6340 4C 77 65		    jmp loc_6577
  1669 6343			loc_6343:
  1670 6343 AD A4 28		    lda $28A4
  1671 6346 C9 03		    cmp #$03
  1672 6348 90 A1		    bcc loc_62EB
  1673 634A C9 04		    cmp #$04
  1674 634C D0 03		    bne loc_6351
  1675 634E 4C D3 63		    jmp loc_63D3
  1676 6351			loc_6351:
  1677 6351 B0 98		    bcs loc_62EB
  1678 6353 A9 80		    lda #$80
  1679 6355 8D F4 28		    sta $28F4
  1680 6358 8D F5 28		    sta $28F5
  1681 635B AD FA 28		    lda $28FA
  1682 635E 8D 0E 29		    sta $290E
  1683 6361 AD 0A D2		    lda RANDOM
  1684 6364 8D 08 29		    sta $2908
  1685 6367 AD AB 28		    lda $28AB
  1686 636A C9 6C		    cmp #$6C
  1687 636C 90 06		    bcc loc_6374
  1688 636E AD 0A D2		    lda RANDOM
  1689 6371 4C 76 63		    jmp loc_6376
  1690 6374			loc_6374:
  1691 6374 A9 00		    lda #$00
  1692 6376			loc_6376:
  1693 6376 8D 09 29		    sta $2909
  1694 6379			loc_6379:
  1695 6379 AD AA 28		    lda $28AA
  1696 637C 0A			    asl
  1697 637D 6E 08 29		    ror $2908
  1698 6380 4E 09 29		    lsr $2909
  1699 6383 4E 0E 29		    lsr $290E
  1700 6386 D0 F1		    bne loc_6379
  1701 6388 AD FA 28		    lda $28FA
  1702 638B C9 01		    cmp #$01
  1703 638D D0 3D		    bne loc_63CC
  1704 638F AD 08 29		    lda $2908
  1705 6392 09 40		    ora #$40
  1706 6394 8D 08 29		    sta $2908
  1707 6397 AD F9 28		    lda $28F9
  1708 639A D0 28		    bne loc_63C4
  1709 639C AD AB 28		    lda $28AB
  1710 639F C9 6C		    cmp #$6C
  1711 63A1 B0 1C		    bcs loc_63BF
  1712 63A3 85 14		    sta $14
  1713 63A5 AD 0A D2		    lda RANDOM
  1714 63A8 6D 0A D2		    adc RANDOM
  1715 63AB 6A			    ror
  1716 63AC 4A			    lsr
  1717 63AD 4A			    lsr
  1718 63AE 65 14		    adc $14
  1719 63B0 AC 20 28		    ldy $2820
  1720 63B3 F0 02		    beq loc_63B7
  1721 63B5 69 20		    adc #$20
  1722 63B7			loc_63B7:
  1723 63B7 85 14		    sta $14
  1724 63B9 8D 81 28		    sta $2881
  1725 63BC EE A4 28		    inc $28A4
  1726 63BF			loc_63BF:
  1727 63BF A9 FF		    lda #$FF
  1728 63C1 4C C9 63		    jmp loc_63C9
  1729 63C4			loc_63C4:
  1730 63C4 AD 09 29		    lda $2909
  1731 63C7 09 80		    ora #$80
  1732 63C9			loc_63C9:
  1733 63C9 8D 09 29		    sta $2909
  1734 63CC			loc_63CC:
  1735 63CC AD A4 28		    lda $28A4
  1736 63CF C9 04		    cmp #$04
  1737 63D1 D0 70		    bne loc_6443
  1738 63D3			loc_63D3:
  1739 63D3 AD 81 28		    lda $2881
  1740 63D6 F0 04		    beq loc_63DC
  1741 63D8 A5 14		    lda $14
  1742 63DA D0 64		    bne loc_6440
  1743 63DC			loc_63DC:
  1744 63DC AD 20 28		    lda $2820
  1745 63DF F0 1A		    beq loc_63FB
  1746 63E1 AD A3 28		    lda $28A3
  1747 63E4 D0 0B		    bne loc_63F1
  1748 63E6 A9 00		    lda #$00
  1749 63E8 8D AC 28		    sta $28AC
  1750 63EB 20 BF 68		    jsr sub_68BF
  1751 63EE 4C F8 63		    jmp loc_63F8
  1752 63F1			loc_63F1:
  1753 63F1 A9 80		    lda #$80
  1754 63F3 8D A3 28		    sta $28A3
  1755 63F6 D0 12		    bne loc_640A
  1756 63F8			loc_63F8:
  1757 63F8 4C 40 64		    jmp loc_6440
  1758 63FB			loc_63FB:
  1759 63FB AC A3 28		    ldy $28A3
  1760 63FE F0 3D		    beq loc_643D
  1761 6400			loc_6400:
  1762 6400 AD 01 07		    lda $0701
  1763 6403 D0 FB		    bne loc_6400
  1764 6405 A9 FF		    lda #$FF
  1765 6407 8D A3 28		    sta $28A3
  1766 640A			loc_640A:
  1767 640A 20 7D 64		    jsr sub_647D
  1768 640D D0 03		    bne loc_6412
  1769 640F 4C EB 62		    jmp loc_62EB
  1770 6412			loc_6412:
  1771 6412 20 36 4B		    jsr sub_4B39
  1772 6415 20 C6 7D		    jsr wait_20_frames
  1773 6418 AD A3 28		    lda $28A3
  1774 641B C9 80		    cmp #$80
  1775 641D D0 10		    bne loc_642F
  1776 641F 20 55 65		    jsr sub_6555
  1777 6422 8D 29 06		    sta $0629
  1778 6425 A9 D8		    lda #$D8
  1779 6427 8D 37 06		    sta $0637
  1780 642A A9 70		    lda #$70
  1781 642C 4C 34 64		    jmp loc_6434
  1782 642F			loc_642F:
  1783 642F 20 ED 64		    jsr sub_64ED
  1784 6432 A9 0A		    lda #$0A
  1785 6434			loc_6434:
  1786 6434 20 97 64		    jsr sub_6497
  1787 6437 EE A4 28		    inc $28A4
  1788 643A 4C 40 64		    jmp loc_6440
  1789 643D			loc_643D:
  1790 643D 20 4B 64		    jsr sub_644B
  1791 6440			loc_6440:
  1792 6440 4C 48 64		    jmp loc_6448
  1793 6443			loc_6443:
  1794 6443 B0 03		    bcs loc_6448
  1795 6445 20 C2 65		    jsr sub_65C2
  1796 6448			loc_6448:
  1797 6448 4C EB 62		    jmp loc_62EB
  1798 644B			sub_644B:
  1799 644B A5 14		    lda $14
  1800 644D D0 2D		    bne loc_647C
  1801 644F 8D 81 28		    sta $2881
  1802 6452 AD 0A D2		    lda RANDOM
  1803 6455 29 07		    and #$07
  1804 6457 C9 03		    cmp #$03
  1805 6459 B0 02		    bcs loc_645D
  1806 645B 09 03		    ora #$03
  1807 645D			loc_645D:
  1808 645D A8			    tay
  1809 645E			loc_645E:
  1810 645E AD A3 28		    lda $28A3
  1811 6461 D0 12		    bne loc_6475
  1812 6463 A2 1B		    ldx #$1B
  1813 6465 20 AA 94		    jsr sub_94AA
  1814 6468 A2 0F		    ldx #$0F
  1815 646A			loc_646A:
  1816 646A 20 AF 7D		    jsr wait_1_frame
  1817 646D AD A5 28		    lda $28A5
  1818 6470 F0 0A		    beq loc_647C
  1819 6472 CA			    dex
  1820 6473 D0 F5		    bne loc_646A
  1821 6475			loc_6475:
  1822 6475 88			    dey
  1823 6476 D0 E6		    bne loc_645E
  1824 6478 A9 A5		    lda #$A5
  1825 647A 85 14		    sta $14
  1826 647C			loc_647C:
  1827 647C 60			    rts
  1828 647D			sub_647D:
  1829 647D A0 05		    ldy #$05
  1830 647F			loc_647F:
  1831 647F A2 14		    ldx #$14
  1832 6481			loc_6481:
  1833 6481 20 AF 7D		    jsr wait_1_frame
  1834 6484 AD A5 28		    lda $28A5
  1835 6487 F0 0B		    beq loc_6494
  1836 6489 CA			    dex
  1837 648A D0 F5		    bne loc_6481
  1838 648C A2 1A		    ldx #$1A
  1839 648E 20 AA 94		    jsr sub_94AA
  1840 6491 88			    dey
  1841 6492 10 EB		    bpl loc_647F
  1842 6494			loc_6494:
  1843 6494 60			    rts
  1844 6495			sub_6495:
  1845 6495 A9 4A		    lda #$4A
  1846 6497			sub_6497:
  1847 6497 8D 35 06		    sta $0635
  1848 649A A9 B4		    lda #$B4
  1849 649C 8D 88 33		    sta $3388
  1850 649F A9 00		    lda #$00
  1851 64A1 8D A3 28		    sta $28A3
  1852 64A4 A2 16		    ldx #$16
  1853 64A6 4C AA 94		    jmp sub_94AA
  1854 64A9			sub_64A9:
  1855 64A9 AD 0A D2		    lda RANDOM
  1856 64AC 10 3E		    bpl loc_64EC
  1857 64AE 29 0F		    and #$0F
  1858 64B0 F0 21		    beq loc_64D3
  1859 64B2 AC 82 28		    ldy $2882
  1860 64B5 30 08		    bmi loc_64BF
  1861 64B7 A0 6D		    ldy #$6D
  1862 64B9 8C 35 06		    sty $0635
  1863 64BC 8C 37 06		    sty $0637
  1864 64BF			loc_64BF:
  1865 64BF 29 03		    and #$03
  1866 64C1 F0 10		    beq loc_64D3
  1867 64C3 29 01		    and #$01
  1868 64C5 8D 41 28		    sta $2841
  1869 64C8 A0 70		    ldy #$70
  1870 64CA 8C 35 06		    sty $0635
  1871 64CD 8C 37 06		    sty $0637
  1872 64D0 20 39 AB		    jsr sub_AB39
  1873 64D3			loc_64D3:
  1874 64D3 AD 5F 06		    lda $065F
  1875 64D6 C9 02		    cmp #$02
  1876 64D8 F0 09		    beq loc_64E3
  1877 64DA 18			    clc
  1878 64DB AD 7F 28		    lda $287F
  1879 64DE 69 04		    adc #$04
  1880 64E0 8D 7F 28		    sta $287F
  1881 64E3			loc_64E3:
  1882 64E3 A2 1A		    ldx #$1A
  1883 64E5 20 AA 94		    jsr sub_94AA
  1884 64E8 E8			    inx
  1885 64E9 4C AA 94		    jmp sub_94AA
  1886 64EC			loc_64EC:
  1887 64EC 60			    rts
  1888 64ED			sub_64ED:
  1889 64ED EE 3A 06		    inc $063A
  1890 64F0 AD 21 06		    lda $0621
  1891 64F3 D0 08		    bne loc_64FD
  1892 64F5 AD 3A 06		    lda $063A
  1893 64F8 CD 13 06		    cmp $0613
  1894 64FB 90 03		    bcc loc_6500
  1895 64FD			loc_64FD:
  1896 64FD 20 39 65		    jsr sub_6539
  1897 6500			loc_6500:
  1898 6500 F8			    sed
  1899 6501 AD 40 06		    lda $0640
  1900 6504 AC 3C 06		    ldy $063C
  1901 6507 D0 06		    bne loc_650F
  1902 6509 38			    sec
  1903 650A E9 01		    sbc #$01
  1904 650C 4C 12 65		    jmp loc_6512
  1905 650F			loc_650F:
  1906 650F 18			    clc
  1907 6510 69 01		    adc #$01
  1908 6512			loc_6512:
  1909 6512 8D 40 06		    sta $0640
  1910 6515 D8			    cld
  1911 6516 D0 03		    bne loc_651B
  1912 6518 EE 3C 06		    inc $063C
  1913 651B			loc_651B:
  1914 651B A9 00		    lda #$00
  1915 651D 8D 38 06		    sta $0638
  1916 6520 A9 02		    lda #$02
  1917 6522 8D 39 06		    sta $0639
  1918 6525 A2 08		    ldx #$08
  1919 6527 20 05 45		    jsr sub_4508
  1920 652A			sub_652A:
  1921 652A 20 55 65		    jsr sub_6555
  1922 652D			sub_652D:
  1923 652D AD 14 06		    lda $0614
  1924 6530 F0 06		    beq loc_6538
  1925 6532 20 9E 7B		    jsr sub_7B9E
  1926 6535 CE 14 06		    dec $0614
  1927 6538			loc_6538:
  1928 6538 60			    rts
  1929 6539			sub_6539:
  1930 6539 AD 82 28		    lda $2882
  1931 653C 30 16		    bmi loc_6554
  1932 653E AD 4D 28		    lda $284D
  1933 6541 D0 11		    bne loc_6554
  1934 6543 AD 0A D2		    lda RANDOM
  1935 6546 09 08		    ora #$08
  1936 6548 29 3F		    and #$3F
  1937 654A AC 1C 06		    ldy $061C
  1938 654D F0 02		    beq loc_6551
  1939 654F 4A			    lsr
  1940 6550 4A			    lsr
  1941 6551			loc_6551:
  1942 6551 8D 4D 28		    sta $284D
  1943 6554			loc_6554:
  1944 6554 60			    rts
  1945 6555			sub_6555:
  1946 6555 AE 0B 29		    ldx $290B
  1947 6558 A9 01		    lda #$01
  1948 655A 9D 00 0A		    sta pilot_map,x
  1949 655D 60			    rts
  1950 655E			sub_655E:
  1951 655E 20 55 65		    jsr sub_6555
  1952 6561			sub_6561:
  1953 6561 A9 00		    lda #$00
  1954 6563 8D 38 06		    sta $0638
  1955 6566 A9 01		    lda #$01
  1956 6568 8D 39 06		    sta $0639
  1957 656B			sub_656B:
  1958 656B AD 3F 06		    lda $063F
  1959 656E 18			    clc
  1960 656F F8			    sed
  1961 6570 69 01		    adc #$01
  1962 6572 D8			    cld
  1963 6573 8D 3F 06		    sta $063F
  1964 6576 60			    rts
  1965 6577			loc_6577:
  1966 6577 EE 40 28		    inc $2840
  1967 657A A2 01		    ldx #$01
  1968 657C			loc_657C:
  1969 657C 8E 6E 06		    stx $066E
  1970 657F 8E 6F 06		    stx $066F
  1971 6582 A0 01		    ldy #$01
  1972 6584 20 90 92		    jsr sub_9290
  1973 6587 C8			    iny
  1974 6588 20 90 92		    jsr sub_9290
  1975 658B 20 AF 7D		    jsr wait_1_frame
  1976 658E AE 6E 06		    ldx $066E
  1977 6591 E8			    inx
  1978 6592 E0 10		    cpx #$10
  1979 6594 D0 E6		    bne loc_657C
  1980 6596 A2 3C		    ldx #$3C
  1981 6598			loc_6598:
  1982 6598 20 AF 7D		    jsr wait_1_frame
  1983 659B AD 0A D2		    lda RANDOM
  1984 659E 09 04		    ora #$04
  1985 65A0 85 DC		    sta $DC
  1986 65A2 CA			    dex
  1987 65A3 D0 F3		    bne loc_6598
  1988 65A5 8E 40 28		    stx $2840
  1989 65A8 60			    rts
  1990 65A9			sub_65A9:
  1991 65A9 A9 FF		    lda #$FF
  1992 65AB 8D 82 28		    sta $2882
  1993 65AE AD 1C 06		    lda $061C
  1994 65B1 F0 05		    beq loc_65B8
  1995 65B3 A9 02		    lda #$02
  1996 65B5 8D 5F 06		    sta $065F
  1997 65B8			loc_65B8:
  1998 65B8 A9 52		    lda #$52
  1999 65BA 8D 35 06		    sta $0635
  2000 65BD A2 1D		    ldx #$1D
  2001 65BF 4C AA 94		    jmp sub_94AA
  2002 65C2			sub_65C2:
  2003 65C2 A9 00		    lda #$00
  2004 65C4 8D 44 29		    sta $2944
  2005 65C7			loc_65C7:
  2006 65C7 A9 03		    lda #$03
  2007 65C9			loc_65C9:
  2008 65C9 C5 14		    cmp $14
  2009 65CB B0 FC		    bcs loc_65C9
  2010 65CD A9 00		    lda #$00
  2011 65CF 85 14		    sta $14
  2012 65D1 AC 44 29		    ldy $2944
  2013 65D4 C0 01		    cpy #$01
  2014 65D6 F0 04		    beq loc_65DC
  2015 65D8 C0 05		    cpy #$05
  2016 65DA D0 05		    bne loc_65E1
  2017 65DC			loc_65DC:
  2018 65DC A2 19		    ldx #$19
  2019 65DE 20 AA 94		    jsr sub_94AA
  2020 65E1			loc_65E1:
  2021 65E1 B9 85 67		    lda $6785,y
  2022 65E4 85 C4		    sta $C4
  2023 65E6 B9 8D 67		    lda $678D,y
  2024 65E9 85 C5		    sta $C5
  2025 65EB B9 95 67		    lda $6795,y
  2026 65EE 8D 02 29		    sta $2902
  2027 65F1 18			    clc
  2028 65F2 AD 08 29		    lda $2908
  2029 65F5 30 13		    bmi loc_660A
  2030 65F7 6D 06 29		    adc $2906
  2031 65FA 8D 06 29		    sta $2906
  2032 65FD 90 08		    bcc loc_6607
  2033 65FF EE AA 28		    inc $28AA
  2034 6602 D0 03		    bne loc_6607
  2035 6604 CE AA 28		    dec $28AA
  2036 6607			loc_6607:
  2037 6607 4C 1A 66		    jmp loc_661A
  2038 660A			loc_660A:
  2039 660A 6D 06 29		    adc $2906
  2040 660D 8D 06 29		    sta $2906
  2041 6610 B0 08		    bcs loc_661A
  2042 6612 AD AA 28		    lda $28AA
  2043 6615 F0 03		    beq loc_661A
  2044 6617 CE AA 28		    dec $28AA
  2045 661A			loc_661A:
  2046 661A AD AA 28		    lda $28AA
  2047 661D 8D F7 28		    sta $28F7
  2048 6620 18			    clc
  2049 6621 AD 07 29		    lda $2907
  2050 6624 6D 09 29		    adc $2909
  2051 6627 8D 07 29		    sta $2907
  2052 662A 90 08		    bcc loc_6634
  2053 662C AD AB 28		    lda $28AB
  2054 662F F0 03		    beq loc_6634
  2055 6631 CE AB 28		    dec $28AB
  2056 6634			loc_6634:
  2057 6634 AD AB 28		    lda $28AB
  2058 6637 8D F8 28		    sta $28F8
  2059 663A 38			    sec
  2060 663B AD F9 28		    lda $28F9
  2061 663E D0 07		    bne loc_6647
  2062 6640 AC FA 28		    ldy $28FA
  2063 6643 C0 01		    cpy #$01
  2064 6645 F0 14		    beq loc_665B
  2065 6647			loc_6647:
  2066 6647 E9 10		    sbc #$10
  2067 6649 8D F9 28		    sta $28F9
  2068 664C AD FA 28		    lda $28FA
  2069 664F E9 00		    sbc #$00
  2070 6651 D0 05		    bne loc_6658
  2071 6653 8D F9 28		    sta $28F9
  2072 6656 A9 01		    lda #$01
  2073 6658			loc_6658:
  2074 6658 8D FA 28		    sta $28FA
  2075 665B			loc_665B:
  2076 665B 20 71 66		    jsr sub_6671
  2077 665E AD A5 28		    lda $28A5
  2078 6661 F0 0A		    beq loc_666D
  2079 6663 EE 44 29		    inc $2944
  2080 6666 AD 44 29		    lda $2944
  2081 6669 29 07		    and #$07
  2082 666B D0 01		    bne loc_666E
  2083 666D			loc_666D:
  2084 666D 60			    rts
  2085 666E			loc_666E:
  2086 666E 4C C7 65		    jmp loc_65C7
  2087 6671			sub_6671:
  2088 6671 A9 06		    lda #$06
  2089 6673 85 C3		    sta $C3
  2090 6675 A9 00		    lda #$00
  2091 6677 85 C2		    sta $C2
  2092 6679 38			    sec
  2093 667A			loc_667A:
  2094 667A A5 C2		    lda $C2
  2095 667C ED F9 28		    sbc $28F9
  2096 667F 85 C2		    sta $C2
  2097 6681 A5 C3		    lda $C3
  2098 6683 ED FA 28		    sbc $28FA
  2099 6686 85 C3		    sta $C3
  2100 6688 CE F7 28		    dec $28F7
  2101 668B B0 ED		    bcs loc_667A
  2102 668D AD F7 28		    lda $28F7
  2103 6690 8D 01 29		    sta $2901
  2104 6693 A9 00		    lda #$00
  2105 6695 8D FF 28		    sta $28FF
  2106 6698 8D 00 29		    sta $2900
  2107 669B A9 0E		    lda #$0E
  2108 669D 8D FE 28		    sta $28FE
  2109 66A0			loc_66A0:
  2110 66A0 A9 00		    lda #$00
  2111 66A2 20 2A 67		    jsr sub_672A
  2112 66A5 CE FE 28		    dec $28FE
  2113 66A8 D0 F6		    bne loc_66A0
  2114 66AA CE F8 28		    dec $28F8
  2115 66AD			loc_66AD:
  2116 66AD AD 01 29		    lda $2901
  2117 66B0 8D F7 28		    sta $28F7
  2118 66B3 A9 00		    lda #$00
  2119 66B5 8D FD 28		    sta $28FD
  2120 66B8 8D FE 28		    sta $28FE
  2121 66BB 20 2A 67		    jsr sub_672A
  2122 66BE			loc_66BE:
  2123 66BE AC 00 29		    ldy $2900
  2124 66C1 18			    clc
  2125 66C2 AD FE 28		    lda $28FE
  2126 66C5 6D 02 29		    adc $2902
  2127 66C8 AA			    tax
  2128 66C9 B9 A1 67		    lda $67A1,y
  2129 66CC 7D B3 67		    adc $67B3,x
  2130 66CF A8			    tay
  2131 66D0 BD CB 67		    lda $67CB,x
  2132 66D3 AA			    tax
  2133 66D4 B1 C4		    lda ($C4),y
  2134 66D6 CA			    dex
  2135 66D7 30 0C		    bmi loc_66E5
  2136 66D9 4A			    lsr
  2137 66DA 4A			    lsr
  2138 66DB CA			    dex
  2139 66DC 30 07		    bmi loc_66E5
  2140 66DE 4A			    lsr
  2141 66DF 4A			    lsr
  2142 66E0 CA			    dex
  2143 66E1 30 02		    bmi loc_66E5
  2144 66E3 4A			    lsr
  2145 66E4 4A			    lsr
  2146 66E5			loc_66E5:
  2147 66E5 29 03		    and #$03
  2148 66E7 AA			    tax
  2149 66E8 BD 9D 67		    lda $679D,x
  2150 66EB 20 2A 67		    jsr sub_672A
  2151 66EE 18			    clc
  2152 66EF AD FD 28		    lda $28FD
  2153 66F2 6D F9 28		    adc $28F9
  2154 66F5 8D FD 28		    sta $28FD
  2155 66F8 AD FE 28		    lda $28FE
  2156 66FB 6D FA 28		    adc $28FA
  2157 66FE 8D FE 28		    sta $28FE
  2158 6701 C9 0C		    cmp #$0C
  2159 6703 90 B9		    bcc loc_66BE
  2160 6705 A9 00		    lda #$00
  2161 6707 20 2A 67		    jsr sub_672A
  2162 670A A9 00		    lda #$00
  2163 670C 20 2A 67		    jsr sub_672A
  2164 670F CE F8 28		    dec $28F8
  2165 6712 18			    clc
  2166 6713 AD FF 28		    lda $28FF
  2167 6716 6D F9 28		    adc $28F9
  2168 6719 8D FF 28		    sta $28FF
  2169 671C AD 00 29		    lda $2900
  2170 671F 6D FA 28		    adc $28FA
  2171 6722 8D 00 29		    sta $2900
  2172 6725 C9 12		    cmp #$12
  2173 6727 90 84		    bcc loc_66AD
  2174 6729 60			    rts
  2175 672A			sub_672A:
  2176 672A 8D 03 29		    sta $2903
  2177 672D AE F7 28		    ldx $28F7
  2178 6730 AC F8 28		    ldy $28F8
  2179 6733 C0 6C		    cpy #$6C
  2180 6735 90 4A		    bcc loc_6781
  2181 6737 C0 97		    cpy #$97
  2182 6739 B0 46		    bcs loc_6781
  2183 673B E0 28		    cpx #$28
  2184 673D 90 42		    bcc loc_6781
  2185 673F E0 D8		    cpx #$D8
  2186 6741 B0 3E		    bcs loc_6781
  2187 6743 38			    sec
  2188 6744 A9 97		    lda #$97
  2189 6746 ED F8 28		    sbc $28F8
  2190 6749 A8			    tay
  2191 674A 18			    clc
  2192 674B B9 51 07		    lda $0751,y
  2193 674E 85 80		    sta $80
  2194 6750 69 30		    adc #$30
  2195 6752 85 C2		    sta $C2
  2196 6754 B9 A7 07		    lda $07A7,y
  2197 6757 85 81		    sta $81
  2198 6759 69 00		    adc #$00
  2199 675B 85 C3		    sta $C3
  2200 675D 8A			    txa
  2201 675E 4A			    lsr
  2202 675F 4A			    lsr
  2203 6760 18			    clc
  2204 6761 69 F8		    adc #$F8
  2205 6763 C5 B4		    cmp $B4
  2206 6765 B0 1A		    bcs loc_6781
  2207 6767 A8			    tay
  2208 6768 8A			    txa
  2209 6769 29 03		    and #$03
  2210 676B AA			    tax
  2211 676C AD 03 29		    lda $2903
  2212 676F D0 02		    bne loc_6773
  2213 6771 B1 80		    lda ($80),y
  2214 6773			loc_6773:
  2215 6773 3D 3F B6		    and $B63F,x
  2216 6776 85 95		    sta $95
  2217 6778 B1 C2		    lda ($C2),y
  2218 677A 3D E3 67		    and $67E3,x
  2219 677D 05 95		    ora $95
  2220 677F 91 C2		    sta ($C2),y
  2221 6781			loc_6781:
  2222 6781 EE F7 28		    inc $28F7
  2223 6784 60			    rts
  2224 6785 E7 1D 53 89 E7 1D +     .byte $E7,$1D,$53,$89,$E7,$1D,$53,$89,$67,$68,$68,$68,$67,$68,$68,$68 ; $6785
  2225 6795 0C 0C 0C 0C 00 00 +     .byte $0C,$0C,$0C,$0C,$00,$00,$00,$00,$00,$FF,$AA,$55,$00,$03,$06,$09 ; $6795
  2226 67A5 0C 0F 12 15 18 1B +     .byte $0C,$0F,$12,$15,$18,$1B,$1E,$21,$24,$27,$2A,$2D,$30,$33,$00,$00 ; $67A5
  2227 67B5 00 00 01 01 01 01 +     .byte $00,$00,$01,$01,$01,$01,$02,$02,$02,$02,$02,$02,$02,$02,$01,$01 ; $67B5
  2228 67C5 01 01 00 00 00 00 +     .byte $01,$01,$00,$00,$00,$00,$03,$02,$01,$00,$03,$02,$01,$00,$03,$02 ; $67C5
  2229 67D5 01 00 00 01 02 03 +     .byte $01,$00,$00,$01,$02,$03,$00,$01,$02,$03,$00,$01,$02,$03,$3F,$CF ; $67D5
  2230 67E5 F3 FC 00 00 00 00 +     .byte $F3,$FC,$00,$00,$00,$00,$14,$00,$00,$55,$00,$00,$55,$00,$03,$AA ; $67E5
  2231 67F5 F0 0F BE 30 3F 5F +     .byte $F0,$0F,$BE,$30,$3F,$5F,$10,$00,$FF,$10,$00,$FF,$00,$00,$AA,$00 ; $67F5
  2232 6805 03 FF 00 0F AF 00 +     .byte $03,$FF,$00,$0F,$AF,$00,$0F,$AF,$00,$00,$2F,$00,$00,$0A,$00,$00 ; $6805
  2233 6815 0A 00 00 02 00 00 +     .byte $0A,$00,$00,$02,$00,$00,$02,$80,$00,$14,$00,$00,$55,$00,$00,$55 ; $6815
  2234 6825 00 00 14 00 03 AA +     .byte $00,$00,$14,$00,$03,$AA,$C0,$3F,$BE,$F0,$3C,$FF,$30,$0C,$FF,$50 ; $6825
  2235 6835 05 AA 00 0F FF 00 +     .byte $05,$AA,$00,$0F,$FF,$00,$3F,$FF,$00,$0A,$0F,$00,$02,$8F,$00,$02 ; $6835
  2236 6845 8F 00 00 0A 00 00 +     .byte $8F,$00,$00,$0A,$00,$00,$0A,$00,$00,$08,$00,$00,$08,$00,$00,$14 ; $6845
  2237 6855 00 00 55 00 00 55 +     .byte $00,$00,$55,$00,$00,$55,$00,$00,$14,$00,$3F,$AA,$F0,$3C,$BE,$F0 ; $6855
  2238 6865 F0 F5 00 40 AA 00 +     .byte $F0,$F5,$00,$40,$AA,$00,$4F,$FF,$00,$3F,$FF,$00,$28,$0F,$C0,$08 ; $6865
  2239 6875 03 C0 28 0B C0 28 +     .byte $03,$C0,$28,$0B,$C0,$28,$0A,$00,$00,$08,$00,$00,$08,$00,$00,$08 ; $6875
  2240 6885 00 00 00 00 00 14 +     .byte $00,$00,$00,$00,$00,$14,$00,$00,$55,$00,$00,$55,$00,$0F,$AA,$00 ; $6885
  2241 6895 3F BE F0 3C F5 FC +     .byte $3F,$BE,$F0,$3C,$F5,$FC,$10,$FF,$00,$10,$FF,$00,$00,$AA,$00,$03 ; $6895
  2242 68A5 FF C0 0F FF C0 0F +     .byte $FF,$C0,$0F,$FF,$C0,$0F,$0B,$C0,$0A,$2A,$00,$0A,$20,$00,$28,$00 ; $68A5
  2243 68B5 00 28 00 00 00 00 +     .byte $00,$28,$00,$00,$00,$00,$00,$00,$00,$00          ; $68B5
  2244 68BF			sub_68BF:
  2245 68BF A2 01		    ldx #$01
  2246 68C1 8E 45 29		    stx $2945
  2247 68C4 BD C4 6B		    lda $6BC4,x
  2248 68C7 8D 49 29		    sta $2949
  2249 68CA A2 02		    ldx #$02
  2250 68CC 8E 46 29		    stx $2946
  2251 68CF BD C4 6B		    lda $6BC4,x
  2252 68D2 8D 4A 29		    sta $294A
  2253 68D5 A2 00		    ldx #$00
  2254 68D7 8E 47 29		    stx $2947
  2255 68DA 8E 48 29		    stx $2948
  2256 68DD BD E3 6B		    lda $6BE3,x
  2257 68E0 8D 4B 29		    sta $294B
  2258 68E3 EE 2A 06		    inc $062A
  2259 68E6 8E 2D 06		    stx $062D
  2260 68E9 8E 30 06		    stx $0630
  2261 68EC 8E 08 D2		    stx AUDCTL
  2262 68EF A9 20		    lda #$20
  2263 68F1 8D 2B 06		    sta $062B
  2264 68F4 A9 BF		    lda #$BF
  2265 68F6 8D 2E 06		    sta $062E
  2266 68F9 A9 D3		    lda #$D3
  2267 68FB 8D 2F 06		    sta $062F
  2268 68FE 18			    clc
  2269 68FF AD 0A D2		    lda RANDOM
  2270 6902 29 07		    and #$07
  2271 6904 69 0C		    adc #$0C
  2272 6906 8D 53 29		    sta $2953
  2273 6909 18			    clc
  2274 690A AD 0A D2		    lda RANDOM
  2275 690D 29 07		    and #$07
  2276 690F 69 21		    adc #$21
  2277 6911 20 7D 69		    jsr sub_697D
  2278 6914 E9 10		    sbc #$10
  2279 6916 20 7D 69		    jsr sub_697D
  2280 6919 E9 0A		    sbc #$0A
  2281 691B 20 7D 69		    jsr sub_697D
  2282 691E E9 04		    sbc #$04
  2283 6920 20 7D 69		    jsr sub_697D
  2284 6923 E9 02		    sbc #$02
  2285 6925 8D 52 29		    sta $2952
  2286 6928 AD A5 28		    lda $28A5
  2287 692B F0 4F		    beq loc_697C
  2288 692D AD 0A D2		    lda RANDOM
  2289 6930 29 03		    and #$03
  2290 6932 18			    clc
  2291 6933 6D 0D 06		    adc $060D
  2292 6936 10 02		    bpl loc_693A
  2293 6938 A9 00		    lda #$00
  2294 693A			loc_693A:
  2295 693A 8D 50 29		    sta $2950
  2296 693D EE 50 29		    inc $2950
  2297 6940 A2 04		    ldx #$04
  2298 6942 8E 45 29		    stx $2945
  2299 6945 BD C4 6B		    lda $6BC4,x
  2300 6948 8D 49 29		    sta $2949
  2301 694B A2 05		    ldx #$05
  2302 694D 8E 46 29		    stx $2946
  2303 6950 BD C4 6B		    lda $6BC4,x
  2304 6953 8D 4A 29		    sta $294A
  2305 6956			loc_6956:
  2306 6956 A9 04		    lda #$04
  2307 6958			loc_6958:
  2308 6958 C5 14		    cmp $14
  2309 695A B0 FC		    bcs loc_6958
  2310 695C A9 00		    lda #$00
  2311 695E 85 14		    sta $14
  2312 6960 20 88 69		    jsr sub_6988
  2313 6963 AD A5 28		    lda $28A5
  2314 6966 D0 EE		    bne loc_6956
  2315 6968 8D 2A 06		    sta $062A
  2316 696B 8D 01 D2		    sta AUDC1
  2317 696E 8D 03 D2		    sta AUDC2
  2318 6971 8D 05 D2		    sta AUDC3
  2319 6974 8D 07 D2		    sta AUDC4
  2320 6977 A9 60		    lda #$60
  2321 6979 8D 08 D2		    sta AUDCTL
  2322 697C			loc_697C:
  2323 697C 60			    rts
  2324 697D			sub_697D:
  2325 697D 8D 52 29		    sta $2952
  2326 6980 20 88 69		    jsr sub_6988
  2327 6983 AD 52 29		    lda $2952
  2328 6986 38			    sec
  2329 6987 60			    rts
  2330 6988			sub_6988:
  2331 6988 EE 49 29		    inc $2949
  2332 698B AE 49 29		    ldx $2949
  2333 698E BD CA 6B		    lda $6BCA,x
  2334 6991 D0 22		    bne loc_69B5
  2335 6993 AE 45 29		    ldx $2945
  2336 6996 F0 04		    beq loc_699C
  2337 6998 E0 04		    cpx #$04
  2338 699A 90 0F		    bcc loc_69AB
  2339 699C			loc_699C:
  2340 699C AD 50 29		    lda $2950
  2341 699F D0 05		    bne loc_69A6
  2342 69A1 A2 03		    ldx #$03
  2343 69A3 4C A8 69		    jmp loc_69A8
  2344 69A6			loc_69A6:
  2345 69A6 A2 00		    ldx #$00
  2346 69A8			loc_69A8:
  2347 69A8 8E 45 29		    stx $2945
  2348 69AB			loc_69AB:
  2349 69AB BD C4 6B		    lda $6BC4,x
  2350 69AE 8D 49 29		    sta $2949
  2351 69B1 AA			    tax
  2352 69B2 BD CA 6B		    lda $6BCA,x
  2353 69B5			loc_69B5:
  2354 69B5 8D 4C 29		    sta $294C
  2355 69B8 EE 4A 29		    inc $294A
  2356 69BB AE 4A 29		    ldx $294A
  2357 69BE BD CA 6B		    lda $6BCA,x
  2358 69C1 D0 22		    bne loc_69E5
  2359 69C3 AE 46 29		    ldx $2946
  2360 69C6 F0 04		    beq loc_69CC
  2361 69C8 E0 04		    cpx #$04
  2362 69CA 90 0F		    bcc loc_69DB
  2363 69CC			loc_69CC:
  2364 69CC AD 50 29		    lda $2950
  2365 69CF D0 05		    bne loc_69D6
  2366 69D1 A2 03		    ldx #$03
  2367 69D3 4C D8 69		    jmp loc_69D8
  2368 69D6			loc_69D6:
  2369 69D6 A2 00		    ldx #$00
  2370 69D8			loc_69D8:
  2371 69D8 8E 46 29		    stx $2946
  2372 69DB			loc_69DB:
  2373 69DB BD C4 6B		    lda $6BC4,x
  2374 69DE 8D 4A 29		    sta $294A
  2375 69E1 AA			    tax
  2376 69E2 BD CA 6B		    lda $6BCA,x
  2377 69E5			loc_69E5:
  2378 69E5 8D 4D 29		    sta $294D
  2379 69E8 EE 4B 29		    inc $294B
  2380 69EB AE 4B 29		    ldx $294B
  2381 69EE BD F4 6B		    lda $6BF4,x
  2382 69F1 D0 24		    bne loc_6A17
  2383 69F3			loc_69F3:
  2384 69F3 AD 0A D2		    lda RANDOM
  2385 69F6 29 0F		    and #$0F
  2386 69F8 AA			    tax
  2387 69F9 E8			    inx
  2388 69FA EC 47 29		    cpx $2947
  2389 69FD F0 03		    beq loc_6A02
  2390 69FF EC 48 29		    cpx $2948
  2391 6A02			loc_6A02:
  2392 6A02 F0 EF		    beq loc_69F3
  2393 6A04 AD 47 29		    lda $2947
  2394 6A07 8D 48 29		    sta $2948
  2395 6A0A 8E 47 29		    stx $2947
  2396 6A0D BD E3 6B		    lda $6BE3,x
  2397 6A10 8D 4B 29		    sta $294B
  2398 6A13 AA			    tax
  2399 6A14 BD F4 6B		    lda $6BF4,x
  2400 6A17			loc_6A17:
  2401 6A17 8D 4E 29		    sta $294E
  2402 6A1A AE 4C 29		    ldx $294C
  2403 6A1D BD 9D 6B		    lda $6B9D,x
  2404 6A20 85 85		    sta $85
  2405 6A22 BD A5 6B		    lda $6BA5,x
  2406 6A25 85 86		    sta $86
  2407 6A27 AE 4D 29		    ldx $294D
  2408 6A2A BD 9D 6B		    lda $6B9D,x
  2409 6A2D 85 87		    sta $87
  2410 6A2F BD A5 6B		    lda $6BA5,x
  2411 6A32 85 88		    sta $88
  2412 6A34 A9 00		    lda #$00
  2413 6A36 8D 4F 29		    sta $294F
  2414 6A39 AD 4E 29		    lda $294E
  2415 6A3C C9 0C		    cmp #$0C
  2416 6A3E 90 05		    bcc loc_6A45
  2417 6A40 E9 0B		    sbc #$0B
  2418 6A42 EE 4F 29		    inc $294F
  2419 6A45			loc_6A45:
  2420 6A45 AA			    tax
  2421 6A46 BD AD 6B		    lda $6BAD,x
  2422 6A49 85 89		    sta $89
  2423 6A4B BD B8 6B		    lda $6BB8,x
  2424 6A4E 85 8A		    sta $8A
  2425 6A50 A9 00		    lda #$00
  2426 6A52 85 80		    sta $80
  2427 6A54 85 81		    sta $81
  2428 6A56 A9 FF		    lda #$FF
  2429 6A58 85 82		    sta $82
  2430 6A5A A9 E7		    lda #$E7
  2431 6A5C 85 83		    sta $83
  2432 6A5E AE 52 29		    ldx $2952
  2433 6A61 18			    clc
  2434 6A62 BD 51 07		    lda $0751,x
  2435 6A65 6D 53 29		    adc $2953
  2436 6A68 85 8B		    sta $8B
  2437 6A6A BD A7 07		    lda $07A7,x
  2438 6A6D 69 00		    adc #$00
  2439 6A6F 85 8C		    sta $8C
  2440 6A71 18			    clc
  2441 6A72 A5 8B		    lda $8B
  2442 6A74 69 30		    adc #$30
  2443 6A76 85 8D		    sta $8D
  2444 6A78 A5 8C		    lda $8C
  2445 6A7A 69 00		    adc #$00
  2446 6A7C 85 8E		    sta $8E
  2447 6A7E			loc_6A7E:
  2448 6A7E 8E 51 29		    stx $2951
  2449 6A81 20 C4 6A		    jsr sub_6AC4
  2450 6A84 AE 51 29		    ldx $2951
  2451 6A87 E8			    inx
  2452 6A88 E0 2C		    cpx #$2C
  2453 6A8A 90 F2		    bcc loc_6A7E
  2454 6A8C AD 49 29		    lda $2949
  2455 6A8F F0 0D		    beq loc_6A9E
  2456 6A91 C9 0D		    cmp #$0D
  2457 6A93 F0 09		    beq loc_6A9E
  2458 6A95 AD 4A 29		    lda $294A
  2459 6A98 F0 04		    beq loc_6A9E
  2460 6A9A C9 0D		    cmp #$0D
  2461 6A9C D0 25		    bne loc_6AC3
  2462 6A9E			loc_6A9E:
  2463 6A9E CE 50 29		    dec $2950
  2464 6AA1 10 17		    bpl loc_6ABA
  2465 6AA3 A9 00		    lda #$00
  2466 6AA5 8D 26 06		    sta $0626
  2467 6AA8 8D 2A 06		    sta $062A
  2468 6AAB 8D 01 D2		    sta AUDC1
  2469 6AAE 8D 03 D2		    sta AUDC2
  2470 6AB1 8D 05 D2		    sta AUDC3
  2471 6AB4 8D 07 D2		    sta AUDC4
  2472 6AB7 4C C3 3F		    jmp loc_3FC3
  2473 6ABA			loc_6ABA:
  2474 6ABA A2 1A		    ldx #$1A
  2475 6ABC 20 AA 94		    jsr sub_94AA
  2476 6ABF E8			    inx
  2477 6AC0 4C AA 94		    jmp sub_94AA
  2478 6AC3			loc_6AC3:
  2479 6AC3 60			    rts
  2480 6AC4			sub_6AC4:
  2481 6AC4 A2 10		    ldx #$10
  2482 6AC6 A9 00		    lda #$00
  2483 6AC8			loc_6AC8:
  2484 6AC8 85 8F		    sta $8F
  2485 6ACA CA			    dex
  2486 6ACB 10 FB		    bpl loc_6AC8
  2487 6ACD 20 04 6B		    jsr sub_6B04
  2488 6AD0 20 1D 6B		    jsr sub_6B1D
  2489 6AD3 20 35 6B		    jsr sub_6B35
  2490 6AD6 20 64 6B		    jsr sub_6B64
  2491 6AD9 A0 10		    ldy #$10
  2492 6ADB			loc_6ADB:
  2493 6ADB B9 8F 00		    lda $008F,y
  2494 6ADE 85 84		    sta $84
  2495 6AE0 AA			    tax
  2496 6AE1 BD 00 BE		    lda $BE00,x
  2497 6AE4 31 8B		    and ($8B),y
  2498 6AE6 05 84		    ora $84
  2499 6AE8 91 8D		    sta ($8D),y
  2500 6AEA 88			    dey
  2501 6AEB 10 EE		    bpl loc_6ADB
  2502 6AED 18			    clc
  2503 6AEE A5 8B		    lda $8B
  2504 6AF0 69 60		    adc #$60
  2505 6AF2 85 8B		    sta $8B
  2506 6AF4 90 03		    bcc loc_6AF9
  2507 6AF6 E6 8C		    inc $8C
  2508 6AF8 18			    clc
  2509 6AF9			loc_6AF9:
  2510 6AF9 69 30		    adc #$30
  2511 6AFB 85 8D		    sta $8D
  2512 6AFD A5 8C		    lda $8C
  2513 6AFF 69 00		    adc #$00
  2514 6B01 85 8E		    sta $8E
  2515 6B03 60			    rts
  2516 6B04			sub_6B04:
  2517 6B04 A4 80		    ldy $80
  2518 6B06 C0 AA		    cpy #$AA
  2519 6B08 90 03		    bcc loc_6B0D
  2520 6B0A E6 80		    inc $80
  2521 6B0C 60			    rts
  2522 6B0D			loc_6B0D:
  2523 6B0D A2 04		    ldx #$04
  2524 6B0F			loc_6B0F:
  2525 6B0F B1 85		    lda ($85),y
  2526 6B11 20 7D 6B		    jsr sub_6B7D
  2527 6B14 85 8F		    sta $8F
  2528 6B16 C8			    iny
  2529 6B17 CA			    dex
  2530 6B18 10 F5		    bpl loc_6B0F
  2531 6B1A 84 80		    sty $80
  2532 6B1C 60			    rts
  2533 6B1D			sub_6B1D:
  2534 6B1D A4 81		    ldy $81
  2535 6B1F C0 AA		    cpy #$AA
  2536 6B21 90 03		    bcc loc_6B26
  2537 6B23 E6 81		    inc $81
  2538 6B25 60			    rts
  2539 6B26			loc_6B26:
  2540 6B26 A2 0C		    ldx #$0C
  2541 6B28			loc_6B28:
  2542 6B28 B1 87		    lda ($87),y
  2543 6B2A 85 8F		    sta $8F
  2544 6B2C C8			    iny
  2545 6B2D E8			    inx
  2546 6B2E E0 11		    cpx #$11
  2547 6B30 90 F6		    bcc loc_6B28
  2548 6B32 84 81		    sty $81
  2549 6B34 60			    rts
  2550 6B35			sub_6B35:
  2551 6B35 A4 82		    ldy $82
  2552 6B37 C0 A8		    cpy #$A8
  2553 6B39 90 03		    bcc loc_6B3E
  2554 6B3B E6 82		    inc $82
  2555 6B3D 60			    rts
  2556 6B3E			loc_6B3E:
  2557 6B3E AD 4F 29		    lda $294F
  2558 6B41 D0 0F		    bne loc_6B52
  2559 6B43 A2 05		    ldx #$05
  2560 6B45			loc_6B45:
  2561 6B45 B1 89		    lda ($89),y
  2562 6B47 85 8F		    sta $8F
  2563 6B49 C8			    iny
  2564 6B4A E8			    inx
  2565 6B4B E0 0C		    cpx #$0C
  2566 6B4D 90 F6		    bcc loc_6B45
  2567 6B4F 84 82		    sty $82
  2568 6B51 60			    rts
  2569 6B52			loc_6B52:
  2570 6B52 A2 0B		    ldx #$0B
  2571 6B54			loc_6B54:
  2572 6B54 B1 89		    lda ($89),y
  2573 6B56 20 7D 6B		    jsr sub_6B7D
  2574 6B59 85 8F		    sta $8F
  2575 6B5B C8			    iny
  2576 6B5C CA			    dex
  2577 6B5D E0 05		    cpx #$05
  2578 6B5F B0 F3		    bcs loc_6B54
  2579 6B61 84 82		    sty $82
  2580 6B63 60			    rts
  2581 6B64			sub_6B64:
  2582 6B64 A4 83		    ldy $83
  2583 6B66 C0 A8		    cpy #$A8
  2584 6B68 90 03		    bcc loc_6B6D
  2585 6B6A E6 83		    inc $83
  2586 6B6C 60			    rts
  2587 6B6D			loc_6B6D:
  2588 6B6D A2 05		    ldx #$05
  2589 6B6F			loc_6B6F:
  2590 6B6F B9 CD 35		    lda $35CD,y
  2591 6B72 85 8F		    sta $8F
  2592 6B74 C8			    iny
  2593 6B75 E8			    inx
  2594 6B76 E0 0C		    cpx #$0C
  2595 6B78 90 F5		    bcc loc_6B6F
  2596 6B7A 84 83		    sty $83
  2597 6B7C 60			    rts
  2598 6B7D			sub_6B7D:
  2599 6B7D 2A			    rol
  2600 6B7E 2A			    rol
  2601 6B7F 66 84		    ror $84
  2602 6B81 6A			    ror
  2603 6B82 66 84		    ror $84
  2604 6B84 2A			    rol
  2605 6B85 2A			    rol
  2606 6B86 2A			    rol
  2607 6B87 66 84		    ror $84
  2608 6B89 6A			    ror
  2609 6B8A 66 84		    ror $84
  2610 6B8C 2A			    rol
  2611 6B8D 2A			    rol
  2612 6B8E 2A			    rol
  2613 6B8F 66 84		    ror $84
  2614 6B91 6A			    ror
  2615 6B92 66 84		    ror $84
  2616 6B94 2A			    rol
  2617 6B95 2A			    rol
  2618 6B96 2A			    rol
  2619 6B97 66 84		    ror $84
  2620 6B99 6A			    ror
  2621 6B9A A5 84		    lda $84
  2622 6B9C 6A			    ror
  2623 6B9D 60			    rts
  2624 6B9E 42 EC 96 40 EA 94 +     .byte $42,$EC,$96,$40,$EA,$94,$3E,$E8,$6C,$6C,$6D,$6E,$6E,$6F,$70,$70 ; $6B9E
  2625 6BAE 92 3A E2 8A 32 DA +     .byte $92,$3A,$E2,$8A,$32,$DA,$82,$2A,$D2,$7A,$22,$71,$72,$72,$73,$74 ; $6BAE
  2626 6BBE 74 75 76 76 77 78 +     .byte $74,$75,$76,$76,$77,$78,$00,$09,$0B,$0D,$0F,$12,$01,$01,$02,$03 ; $6BBE
  2627 6BCE 04 05 06 07 00 05 +     .byte $04,$05,$06,$07,$00,$05,$00,$04,$00,$08,$00,$06,$07,$00,$04,$04 ; $6BCE
  2628 6BDE 04 05 06 07 00 00 +     .byte $04,$05,$06,$07,$00,$00,$06,$0E,$16,$1C,$20,$23,$26,$2B,$2F,$32 ; $6BDE
  2629 6BEE 38 3C 3F 42 47 4B +     .byte $38,$3C,$3F,$42,$47,$4B,$0B,$0B,$0B,$0A,$09,$00,$08,$02,$03,$04 ; $6BEE
  2630 6BFE 04 03 02 00 09 0D +     .byte $04,$03,$02,$00,$09,$0D,$0E,$0F,$0F,$0E,$0D,$00,$07,$01,$06,$05 ; $6BFE
  2631 6C0E 0C 00 08 09 0A 00 +     .byte $0C,$00,$08,$09,$0A,$00,$09,$0C,$00,$09,$01,$00,$09,$02,$07,$0D ; $6C0E
  2632 6C1E 00 07 06 07 00 08 +     .byte $00,$07,$06,$07,$00,$08,$09,$00,$07,$01,$06,$05,$0C,$00,$08,$09 ; $6C1E
  2633 6C2E 0A 00 09 0C 00 09 +     .byte $0A,$00,$09,$0C,$00,$09,$01,$00,$09,$02,$07,$0D,$00,$07,$06,$07 ; $6C2E
  2634 6C3E 00 09 0A 00 00 AF +     .byte $00,$09,$0A,$00,$00,$AF,$F0,$00,$00,$02,$F2,$BF,$00,$00,$0B,$EF ; $6C3E
  2635 6C4E FA 80 00 2B BF AF +     .byte $FA,$80,$00,$2B,$BF,$AF,$FC,$00,$3E,$BE,$FF,$FC,$00,$3F,$BE,$FF ; $6C4E
  2636 6C5E FC 00 2D 7E FF FF +     .byte $FC,$00,$2D,$7E,$FF,$FF,$00,$0A,$BE,$FF,$FF,$00,$02,$AA,$D6,$FF ; $6C5E
  2637 6C6E 00 00 FA AA FF 80 +     .byte $00,$00,$FA,$AA,$FF,$80,$00,$FF,$AB,$FF,$80,$00,$3F,$EF,$FF,$80 ; $6C6E
  2638 6C7E 00 2F FF FE 40 00 +     .byte $00,$2F,$FF,$FE,$40,$00,$1B,$FF,$F9,$50,$00,$16,$AA,$A5,$50,$00 ; $6C7E
  2639 6C8E 15 55 55 50 00 05 +     .byte $15,$55,$55,$50,$00,$05,$55,$55,$50,$00,$05,$55,$55,$50,$00,$05 ; $6C8E
  2640 6C9E 55 55 54 00 01 55 +     .byte $55,$55,$54,$00,$01,$55,$55,$54,$A0,$01,$55,$55,$54,$A5,$01,$55 ; $6C9E
  2641 6CAE 55 54 A5 56 55 55 +     .byte $55,$54,$A5,$56,$55,$55,$54,$A5,$55,$95,$55,$54,$A5,$55,$95,$55 ; $6CAE
  2642 6CBE 54 A5 55 95 55 54 +     .byte $54,$A5,$55,$95,$55,$54,$A5,$55,$55,$55,$54,$A5,$55,$55,$55,$54 ; $6CBE
  2643 6CCE A5 55 55 55 54 A5 +     .byte $A5,$55,$55,$55,$54,$A5,$55,$55,$55,$50,$A5,$55,$55,$55,$50,$A5 ; $6CCE
  2644 6CDE 55 55 55 50 A0 55 +     .byte $55,$55,$55,$50,$A0,$55,$55,$55,$40,$A0,$01,$55,$55,$00,$00,$00 ; $6CDE
  2645 6CEE 00 00 00 00 00 00 +     .byte $00,$00,$00,$00,$00,$00,$00,$00,$02,$BF,$C0,$00,$00,$0B,$CA,$FC ; $6CEE
  2646 6CFE 00 00 2F AF EA 00 +     .byte $00,$00,$2F,$AF,$EA,$00,$00,$AE,$FE,$AF,$F0,$00,$FA,$FB,$FF,$F0 ; $6CFE
  2647 6D0E 00 FE FB FF F0 00 +     .byte $00,$FE,$FB,$FF,$F0,$00,$B5,$FB,$EE,$FC,$00,$2A,$FB,$FB,$FC,$00 ; $6D0E
  2648 6D1E 0A AB 5B FC 00 03 +     .byte $0A,$AB,$5B,$FC,$00,$03,$EA,$AB,$FE,$00,$03,$FE,$AF,$FE,$00,$00 ; $6D1E
  2649 6D2E FF BF FE 00 00 BF +     .byte $FF,$BF,$FE,$00,$00,$BF,$FF,$F9,$00,$00,$6F,$FF,$E5,$40,$00,$5A ; $6D2E
  2650 6D3E AA 95 40 00 55 55 +     .byte $AA,$95,$40,$00,$55,$55,$55,$40,$00,$15,$55,$55,$50,$00,$15,$55 ; $6D3E
  2651 6D4E 55 50 A0 05 55 55 +     .byte $55,$50,$A0,$05,$55,$55,$50,$A5,$09,$55,$55,$50,$A5,$59,$55,$55 ; $6D4E
  2652 6D5E 50 A5 56 55 55 50 +     .byte $50,$A5,$56,$55,$55,$50,$A5,$55,$95,$55,$50,$A5,$55,$95,$55,$50 ; $6D5E
  2653 6D6E A5 55 55 55 50 A5 +     .byte $A5,$55,$55,$55,$50,$A5,$55,$55,$55,$50,$A5,$55,$55,$55,$50,$A5 ; $6D6E
  2654 6D7E 55 55 55 50 A5 55 +     .byte $55,$55,$55,$50,$A5,$55,$55,$55,$50,$A5,$55,$55,$55,$40,$A0,$55 ; $6D7E
  2655 6D8E 55 55 00 A0 00 15 +     .byte $55,$55,$00,$A0,$00,$15,$54,$00,$00,$00,$00,$00,$00,$00,$00,$00 ; $6D8E
  2656 6D9E 00 00 00 00 00 00 +     .byte $00,$00,$00,$00,$00,$00,$00,$00,$AC,$00,$00,$00,$0A,$FA,$C0,$00 ; $6D9E
  2657 6DAE 00 2F AF FE 00 00 +     .byte $00,$2F,$AF,$FE,$00,$00,$AE,$FF,$EA,$00,$00,$FA,$FA,$AF,$C0,$00 ; $6DAE
  2658 6DBE FE FB FF C0 00 25 +     .byte $FE,$FB,$FF,$C0,$00,$25,$FB,$EE,$F0,$00,$0A,$FB,$FB,$F0,$00,$02 ; $6DBE
  2659 6DCE AB 5B F0 00 03 EA +     .byte $AB,$5B,$F0,$00,$03,$EA,$AB,$F0,$00,$03,$FE,$AF,$F0,$00,$00,$FF ; $6DCE
  2660 6DDE BF E0 00 00 BF FF +     .byte $BF,$E0,$00,$00,$BF,$FF,$94,$00,$00,$6A,$AA,$54,$00,$00,$55,$55 ; $6DDE
  2661 6DEE 55 00 00 15 55 55 +     .byte $55,$00,$00,$15,$55,$55,$00,$00,$15,$55,$55,$00,$A0,$05,$55,$55 ; $6DEE
  2662 6DFE 00 A5 09 55 55 00 +     .byte $00,$A5,$09,$55,$55,$00,$A5,$59,$55,$55,$40,$A5,$59,$55,$55,$40 ; $6DFE
  2663 6E0E A5 56 55 55 40 A5 +     .byte $A5,$56,$55,$55,$40,$A5,$56,$55,$55,$40,$A5,$55,$55,$55,$40,$A5 ; $6E0E
  2664 6E1E 55 55 55 40 A5 55 +     .byte $55,$55,$55,$40,$A5,$55,$55,$55,$40,$A5,$55,$55,$55,$40,$A5,$55 ; $6E1E
  2665 6E2E 55 55 40 A5 55 55 +     .byte $55,$55,$40,$A5,$55,$55,$55,$00,$A0,$55,$55,$54,$00,$A0,$00,$15 ; $6E2E
  2666 6E3E 50 00 00 00 00 00 +     .byte $50,$00,$00,$00,$00,$00,$00,$00,$00,$00,$00,$00,$00,$00,$00,$00 ; $6E3E
  2667 6E4E 00 00 00 00 00 00 +     .byte $00,$00,$00,$00,$00,$00,$00,$00,$00,$00,$00,$00,$00,$00,$00,$00 ; $6E4E
  2668 6E5E 00 03 F8 00 00 00 +     .byte $00,$03,$F8,$00,$00,$00,$0B,$AA,$80,$00,$00,$AE,$FF,$A0,$00,$00 ; $6E5E
  2669 6E6E EB AA FC 00 00 FB +     .byte $EB,$AA,$FC,$00,$00,$FB,$BF,$FC,$00,$00,$FB,$BE,$EF,$00,$00,$96 ; $6E6E
  2670 6E7E A5 BF 00 00 2A AA +     .byte $A5,$BF,$00,$00,$2A,$AA,$FF,$00,$00,$3E,$AB,$FF,$00,$00,$3F,$EB ; $6E7E
  2671 6E8E FF 00 00 0F FB FE +     .byte $FF,$00,$00,$0F,$FB,$FE,$00,$00,$0B,$FF,$F9,$40,$00,$06,$AA,$A5 ; $6E8E
  2672 6E9E 40 00 05 55 55 40 +     .byte $40,$00,$05,$55,$55,$40,$A0,$05,$55,$55,$40,$A5,$09,$55,$55,$40 ; $6E9E
  2673 6EAE A5 59 55 55 40 A5 +     .byte $A5,$59,$55,$55,$40,$A5,$59,$55,$55,$40,$A5,$59,$55,$55,$00,$A5 ; $6EAE
  2674 6EBE 59 55 55 00 A5 59 +     .byte $59,$55,$55,$00,$A5,$59,$55,$55,$00,$A5,$55,$55,$55,$00,$A5,$55 ; $6EBE
  2675 6ECE 55 55 00 A5 55 55 +     .byte $55,$55,$00,$A5,$55,$55,$55,$00,$A5,$55,$55,$55,$00,$A5,$55,$55 ; $6ECE
  2676 6EDE 54 00 A0 55 55 40 +     .byte $54,$00,$A0,$55,$55,$40,$00,$A0,$00,$00,$00,$00,$00,$00,$00,$00 ; $6EDE
  2677 6EEE 00 00 00 00 00 00 +     .byte $00,$00,$00,$00,$00,$00,$00,$00,$00,$00,$00,$00,$00,$00,$00,$00 ; $6EEE
  2678 6EFE 00 00 2E A0 00 00 +     .byte $00,$00,$2E,$A0,$00,$00,$03,$BE,$F8,$00,$00,$02,$BB,$EF,$C0,$00 ; $6EFE
  2679 6F0E 0D 7B BF C0 00 3F +     .byte $0D,$7B,$BF,$C0,$00,$3F,$BB,$BE,$F0,$00,$3A,$AA,$B6,$F0,$00,$3F ; $6F0E
  2680 6F1E EA AB F0 00 0F FA +     .byte $EA,$AB,$F0,$00,$0F,$FA,$BF,$F0,$00,$03,$FE,$BF,$F0,$00,$00,$FF ; $6F1E
  2681 6F2E BF E0 00 00 BF FF +     .byte $BF,$E0,$00,$00,$BF,$FF,$90,$00,$00,$6A,$AA,$50,$00,$00,$55,$55 ; $6F2E
  2682 6F3E 50 00 02 55 55 50 +     .byte $50,$00,$02,$55,$55,$50,$00,$02,$55,$55,$50,$00,$02,$55,$55,$50 ; $6F3E
  2683 6F4E A0 02 55 55 50 A5 +     .byte $A0,$02,$55,$55,$50,$A5,$56,$55,$55,$50,$A5,$55,$55,$55,$50,$A5 ; $6F4E
  2684 6F5E 55 55 55 50 A5 55 +     .byte $55,$55,$55,$50,$A5,$55,$55,$55,$40,$A5,$55,$55,$55,$40,$A5,$55 ; $6F5E
  2685 6F6E 55 55 40 A5 55 55 +     .byte $55,$55,$40,$A5,$55,$55,$55,$00,$A5,$55,$55,$55,$00,$A5,$55,$55 ; $6F6E
  2686 6F7E 54 00 A5 55 54 00 +     .byte $54,$00,$A5,$55,$54,$00,$00,$A5,$40,$00,$00,$00,$A0,$00,$00,$00 ; $6F7E
  2687 6F8E 00 A0 00 00 00 00 +     .byte $00,$A0,$00,$00,$00,$00,$00,$00,$00,$00,$00,$00,$00,$00,$00,$00 ; $6F8E
  2688 6F9E 00 00 2E A0 00 00 +     .byte $00,$00,$2E,$A0,$00,$00,$03,$BE,$F8,$00,$00,$02,$BB,$EF,$C0,$00 ; $6F9E
  2689 6FAE 0D 7B BF C0 00 3F +     .byte $0D,$7B,$BF,$C0,$00,$3F,$BB,$BE,$F0,$00,$3A,$AA,$B6,$F0,$00,$3F ; $6FAE
  2690 6FBE EA AB F0 00 0F FA +     .byte $EA,$AB,$F0,$00,$0F,$FA,$BF,$F0,$00,$03,$FE,$BF,$F0,$00,$00,$FF ; $6FBE
  2691 6FCE BF E0 00 00 BF FF +     .byte $BF,$E0,$00,$00,$BF,$FF,$80,$00,$00,$6A,$AA,$40,$00,$00,$55,$55 ; $6FCE
  2692 6FDE 40 00 00 55 55 40 +     .byte $40,$00,$00,$55,$55,$40,$00,$02,$55,$55,$40,$00,$02,$55,$55,$40 ; $6FDE
  2693 6FEE 00 02 55 55 50 00 +     .byte $00,$02,$55,$55,$50,$00,$02,$55,$55,$50,$A0,$16,$55,$55,$50,$A5 ; $6FEE
  2694 6FFE 56 55 55 50 A5 55 +     .byte $56,$55,$55,$50,$A5,$55,$55,$55,$50,$A5,$55,$55,$55,$50,$A5,$55 ; $6FFE
  2695 700E 55 55 40 A5 55 55 +     .byte $55,$55,$40,$A5,$55,$55,$55,$40,$A5,$55,$55,$55,$40,$A5,$55,$55 ; $700E
  2696 701E 55 00 A5 55 55 54 +     .byte $55,$00,$A5,$55,$55,$54,$00,$A5,$55,$55,$00,$00,$A5,$55,$40,$00 ; $701E
  2697 702E 00 A5 40 00 00 00 +     .byte $00,$A5,$40,$00,$00,$00,$A0,$00,$00,$00,$00,$A0,$00,$00,$00,$00 ; $702E
  2698 703E 00 00 00 00 00 03 +     .byte $00,$00,$00,$00,$00,$03,$BC,$00,$00,$00,$02,$BB,$C0,$00,$00,$0D ; $703E
  2699 704E 7B BC 00 00 3F BB +     .byte $7B,$BC,$00,$00,$3F,$BB,$BE,$00,$00,$3A,$AA,$B6,$00,$00,$3F,$EA ; $704E
  2700 705E AB C0 00 0F FA BF +     .byte $AB,$C0,$00,$0F,$FA,$BF,$C0,$00,$03,$FE,$BF,$C0,$00,$00,$FF,$BF ; $705E
  2701 706E C0 00 00 BF FF 80 +     .byte $C0,$00,$00,$BF,$FF,$80,$00,$00,$6A,$AA,$40,$00,$00,$55,$55,$40 ; $706E
  2702 707E 00 00 15 55 50 00 +     .byte $00,$00,$15,$55,$50,$00,$00,$15,$55,$50,$00,$00,$05,$55,$50,$00 ; $707E
  2703 708E 00 05 55 50 00 00 +     .byte $00,$05,$55,$50,$00,$00,$05,$55,$54,$00,$00,$05,$55,$54,$00,$00 ; $708E
  2704 709E 01 55 54 00 A0 19 +     .byte $01,$55,$54,$00,$A0,$19,$55,$54,$00,$A5,$59,$55,$54,$00,$A5,$59 ; $709E
  2705 70AE 55 54 00 A5 55 55 +     .byte $55,$54,$00,$A5,$55,$55,$54,$00,$A5,$55,$55,$54,$00,$A5,$55,$55 ; $70AE
  2706 70BE 50 00 A5 55 55 50 +     .byte $50,$00,$A5,$55,$55,$50,$00,$A5,$55,$55,$40,$00,$A5,$55,$54,$00 ; $70BE
  2707 70CE 00 A5 55 40 00 00 +     .byte $00,$A5,$55,$40,$00,$00,$A5,$54,$00,$00,$00,$A5,$40,$00,$00,$00 ; $70CE
  2708 70DE A0 00 00 00 00 A0 +     .byte $A0,$00,$00,$00,$00,$A0,$00,$00,$00,$00,$00,$00,$04,$00,$00,$01 ; $70DE
  2709 70EE 80 18 00 00 00 50 +     .byte $80,$18,$00,$00,$00,$50,$60,$00,$00,$01,$85,$80,$06,$10,$16,$01 ; $70EE
  2710 70FE 00 01 18 10 0F C0 +     .byte $00,$01,$18,$10,$0F,$C0,$00,$50,$00,$FF,$FC,$05,$90,$03,$FF,$FF ; $70FE
  2711 710E 02 40 0F FB FF C1 +     .byte $02,$40,$0F,$FB,$FF,$C1,$00,$3F,$EF,$FF,$FC,$00,$FF,$BF,$EF,$FF ; $710E
  2712 711E 50 FE FF BF FF C4 +     .byte $50,$FE,$FF,$BF,$FF,$C4,$3A,$FE,$FF,$BF,$C9,$FF,$EF,$FE,$FF,$F2 ; $711E
  2713 712E FD 5B FB FB F0 3F +     .byte $FD,$5B,$FB,$FB,$F0,$3F,$6F,$EF,$EB,$F9,$0E,$FE,$EF,$AB,$F4,$60 ; $712E
  2714 713E 3F EE BF D0 02 2F +     .byte $3F,$EE,$BF,$D0,$02,$2F,$FF,$FF,$40,$00,$1A,$FF,$E5,$62,$A0,$19 ; $713E
  2715 714E 59 55 A0 A5 01 56 +     .byte $59,$55,$A0,$A5,$01,$56,$65,$64,$A5,$66,$55,$65,$50,$A5,$96,$55 ; $714E
  2716 715E 66 90 A6 55 95 59 +     .byte $66,$90,$A6,$55,$95,$59,$68,$9A,$55,$55,$56,$54,$A5,$55,$55,$59 ; $715E
  2717 716E 54 A5 55 55 55 54 +     .byte $54,$A5,$55,$55,$55,$54,$A5,$55,$55,$55,$54,$A5,$55,$55,$55,$50 ; $716E
  2718 717E A5 55 55 55 40 A5 +     .byte $A5,$55,$55,$55,$40,$A5,$55,$55,$54,$00,$A0,$55,$55,$40,$00,$A0 ; $717E
  2719 718E 00 00 00 00 00 00 +     .byte $00,$00,$00,$00,$00,$00,$00,$00,$00,$00,$00,$00,$00,$00,$00,$00 ; $718E
  2720 719E 00 00 00 00 00 00 +     .byte $00,$00,$00,$00,$00,$00,$00,$FF,$00,$00,$00,$00,$00,$0F,$FA,$A0 ; $719E
  2721 71AE 00 FF 00 00 3F E9 +     .byte $00,$FF,$00,$00,$3F,$E9,$58,$0A,$AF,$F0,$00,$3F,$A5,$54,$25,$6B ; $71AE
  2722 71BE FC 00 3E 96 54 15 +     .byte $FC,$00,$3E,$96,$54,$15,$5A,$FC,$00,$0E,$56,$54,$15,$96,$BC,$00 ; $71BE
  2723 71CE 0B 55 58 15 95 B0 +     .byte $0B,$55,$58,$15,$95,$B0,$00,$02,$D5,$60,$25,$55,$EC,$82,$CB,$FA ; $71CE
  2724 71DE 80 09 57 BF EB FF +     .byte $80,$09,$57,$BF,$EB,$FF,$E8,$00,$02,$AF,$AE,$EB,$BF,$BF,$00,$00 ; $71DE
  2725 71EE BF F7 BE DF FE 00 +     .byte $BF,$F7,$BE,$DF,$FE,$00,$00,$EB,$FF,$FF,$FF,$E8,$00,$00,$3B,$FF ; $71EE
  2726 71FE FF FF EC 00 00 2E +     .byte $FF,$FF,$EC,$00,$00,$2E,$FB,$FF,$EF,$B8,$00,$00,$AF,$FE,$69,$BF ; $71FE
  2727 720E FA 00 15 AB E6 AA +     .byte $FA,$00,$15,$AB,$E6,$AA,$9B,$EA,$54,$55,$AB,$E9,$AA,$6B,$EA,$55 ; $720E
  2728 721E 55 AB D6 AA 97 EA +     .byte $55,$AB,$D6,$AA,$97,$EA,$55,$55,$6A,$E6,$69,$9B,$A9,$55,$55,$6A ; $721E
  2729 722E FE 69 BF A9 55 55 +     .byte $FE,$69,$BF,$A9,$55,$55,$6A,$BF,$FF,$FE,$A9,$55,$00,$00,$00,$00 ; $722E
  2730 723E 00 00 00 00 00 00 +     .byte $00,$00,$00,$00,$00,$00,$00,$00,$00,$00,$00,$FF,$00,$00,$FF,$F0 ; $723E
  2731 724E 00 0A AF F0 03 FA +     .byte $00,$0A,$AF,$F0,$03,$FA,$BC,$00,$25,$6F,$FC,$0F,$A9,$7F,$00,$15 ; $724E
  2732 725E 6B FC 0E 95 5F 00 +     .byte $6B,$FC,$0E,$95,$5F,$00,$15,$9B,$FC,$0E,$59,$5F,$00,$15,$9F,$F0 ; $725E
  2733 726E 09 59 5F 00 25 5F +     .byte $09,$59,$5F,$00,$25,$5F,$E0,$09,$55,$78,$00,$09,$7E,$BB,$EE,$55 ; $726E
  2734 727E E0 00 02 AF AE EE +     .byte $E0,$00,$02,$AF,$AE,$EE,$BA,$8C,$00,$00,$2B,$FE,$BF,$FE,$A3,$00 ; $727E
  2735 728E 00 FE EE BB FE FF +     .byte $00,$FE,$EE,$BB,$FE,$FF,$00,$00,$BF,$FB,$EF,$FF,$FB,$00,$00,$2F ; $728E
  2736 729E FF FF FE AF 00 00 +     .byte $FF,$FF,$FE,$AF,$00,$00,$3B,$EF,$FE,$FE,$FC,$00,$00,$2B,$F9,$9B ; $729E
  2737 72AE FB EC 00 00 AF D9 +     .byte $FB,$EC,$00,$00,$AF,$D9,$9B,$BF,$EA,$00,$15,$AB,$EA,$A6,$BF,$EA ; $72AE
  2738 72BE 54 55 AB D6 A9 7F +     .byte $54,$55,$AB,$D6,$A9,$7F,$AA,$55,$55,$AB,$EA,$AA,$BF,$AA,$55,$55 ; $72BE
  2739 72CE 6A E9 99 BE A9 55 +     .byte $6A,$E9,$99,$BE,$A9,$55,$55,$6A,$F9,$9B,$FE,$A9,$55,$55,$6A,$BF ; $72CE
  2740 72DE FF EA A9 55 00 00 +     .byte $FF,$EA,$A9,$55,$00,$00,$00,$00,$00,$00,$00,$00,$00,$00,$00,$00 ; $72DE
  2741 72EE 00 00 00 0F F0 03 +     .byte $00,$00,$00,$0F,$F0,$03,$FF,$C0,$00,$00,$AB,$FF,$0F,$EA,$F0,$00 ; $72EE
  2742 72FE 02 5B FF 3E AF FC +     .byte $02,$5B,$FF,$3E,$AF,$FC,$00,$01,$5B,$FF,$3A,$57,$FC,$00,$01,$6E ; $72FE
  2743 730E FF 39 67 FC 00 01 +     .byte $FF,$39,$67,$FC,$00,$01,$6F,$FF,$25,$67,$FC,$00,$02,$5F,$FE,$25 ; $730E
  2744 731E 57 E0 00 00 97 AB +     .byte $57,$E0,$00,$00,$97,$AB,$E9,$5F,$B0,$00,$00,$2A,$FE,$FA,$EA,$FF ; $731E
  2745 732E 00 00 02 BE FB FA +     .byte $00,$00,$02,$BE,$FB,$FA,$BF,$C0,$00,$0F,$FB,$BF,$FB,$FF,$C0,$00 ; $732E
  2746 733E 0B FF FF FF EF C0 +     .byte $0B,$FF,$FF,$FF,$EF,$C0,$00,$0E,$FF,$FF,$FA,$BF,$C0,$00,$0F,$EF ; $733E
  2747 734E EF FB FF C0 00 2B +     .byte $EF,$FB,$FF,$C0,$00,$2B,$F9,$BF,$EF,$BF,$C0,$00,$AB,$F9,$BB,$FF ; $734E
  2748 735E AA 00 15 AB FA 6B +     .byte $AA,$00,$15,$AB,$FA,$6B,$FF,$AA,$54,$55,$AB,$F6,$97,$FA,$AA,$55 ; $735E
  2749 736E 55 AB FA AB FA AA +     .byte $55,$AB,$FA,$AB,$FA,$AA,$55,$55,$6A,$F9,$9B,$FA,$A9,$55,$55,$6A ; $736E
  2750 737E FD BF FA A9 55 55 +     .byte $FD,$BF,$FA,$A9,$55,$55,$6A,$BF,$FE,$AA,$A9,$55,$00,$00,$00,$00 ; $737E
  2751 738E 00 00 00 00 00 00 +     .byte $00,$00,$00,$00,$00,$00,$00,$00,$00,$00,$00,$00,$0F,$FF,$00,$00 ; $738E
  2752 739E 00 00 00 3F AB C0 +     .byte $00,$00,$00,$3F,$AB,$C0,$00,$00,$00,$0C,$FA,$BF,$F0,$00,$00,$00 ; $739E
  2753 73AE 3E E9 5F F0 00 00 +     .byte $3E,$E9,$5F,$F0,$00,$00,$00,$3E,$E5,$6F,$F8,$00,$00,$00,$3E,$95 ; $73AE
  2754 73BE 6F F8 00 00 00 0F +     .byte $6F,$F8,$00,$00,$00,$0F,$95,$7F,$AF,$FC,$00,$00,$02,$A5,$DE,$FF ; $73BE
  2755 73CE FF C0 00 02 EA AB +     .byte $FF,$C0,$00,$02,$EA,$AB,$FB,$FF,$F0,$00,$02,$EF,$EA,$EF,$FF,$F0 ; $73CE
  2756 73DE 00 0B BF EF EF FF +     .byte $00,$0B,$BF,$EF,$EF,$FF,$F0,$00,$0F,$FF,$FF,$BF,$FF,$C0,$00,$3F ; $73DE
  2757 73EE FF EA FF FF C0 00 +     .byte $FF,$EA,$FF,$FF,$C0,$00,$3F,$BF,$EF,$FF,$FF,$C0,$00,$06,$FF,$BE ; $73EE
  2758 73FE FF FF 00 00 A6 EF +     .byte $FF,$FF,$00,$00,$A6,$EF,$FE,$FF,$FE,$00,$15,$A1,$AF,$FE,$FA,$AA ; $73FE
  2759 740E 54 55 AA 5F EA AA +     .byte $54,$55,$AA,$5F,$EA,$AA,$AA,$55,$55,$AA,$AF,$EA,$AA,$AA,$55,$55 ; $740E
  2760 741E 6A 6F EA AA A9 55 +     .byte $6A,$6F,$EA,$AA,$A9,$55,$55,$6E,$FF,$EA,$AA,$A9,$55,$55,$6B,$FA ; $741E
  2761 742E AA AA A9 55 00 3F +     .byte $AA,$AA,$A9,$55,$00,$3F,$C0,$00,$03,$FC,$00,$02,$AB,$FC,$00,$3F ; $742E
  2762 743E EA 80 09 5A FF 00 +     .byte $EA,$80,$09,$5A,$FF,$00,$FF,$A5,$60,$05,$56,$BF,$00,$FE,$95,$50 ; $743E
  2763 744E 05 65 AF 00 FA 59 +     .byte $05,$65,$AF,$00,$FA,$59,$50,$05,$65,$6C,$00,$39,$59,$50,$09,$55 ; $744E
  2764 745E 78 00 2D 55 60 02 +     .byte $78,$00,$2D,$55,$60,$02,$55,$E0,$00,$0B,$55,$80,$00,$AB,$E0,$00 ; $745E
  2765 746E 0B EA 00 00 2B E8 +     .byte $0B,$EA,$00,$00,$2B,$E8,$00,$2B,$E8,$00,$00,$2F,$FB,$82,$EF,$F8 ; $746E
  2766 747E 00 00 3B FF EB FF +     .byte $00,$00,$3B,$FF,$EB,$FF,$EC,$00,$00,$FE,$FE,$EB,$BF,$BF,$00,$00 ; $747E
  2767 748E BF F7 BE DF FE 00 +     .byte $BF,$F7,$BE,$DF,$FE,$00,$00,$2B,$FF,$FF,$FF,$E8,$00,$00,$3B,$FF ; $748E
  2768 749E FF FF EC 00 00 2E +     .byte $FF,$FF,$EC,$00,$00,$2E,$FB,$FF,$EF,$B8,$00,$00,$AF,$FE,$69,$BF ; $749E
  2769 74AE FA 00 15 AB E6 69 +     .byte $FA,$00,$15,$AB,$E6,$69,$9B,$EA,$54,$55,$AB,$EA,$AA,$AB,$EA,$55 ; $74AE
  2770 74BE 55 AB E6 69 9B EA +     .byte $55,$AB,$E6,$69,$9B,$EA,$55,$55,$6A,$FE,$69,$BF,$A9,$55,$55,$6A ; $74BE
  2771 74CE FF FF FF A9 55 55 +     .byte $FF,$FF,$FF,$A9,$55,$55,$6A,$BF,$FF,$FE,$A9,$55,$00,$3F,$C0,$00 ; $74CE
  2772 74DE 03 FC 00 02 AB FC +     .byte $03,$FC,$00,$02,$AB,$FC,$00,$3F,$EA,$80,$09,$5A,$FF,$00,$FF,$A5 ; $74DE
  2773 74EE 60 05 56 BF 00 FE +     .byte $60,$05,$56,$BF,$00,$FE,$95,$50,$05,$65,$AF,$00,$FA,$59,$50,$05 ; $74EE
  2774 74FE 65 6C 00 39 59 50 +     .byte $65,$6C,$00,$39,$59,$50,$09,$55,$78,$00,$2D,$55,$60,$02,$55,$E0 ; $74FE
  2775 750E 00 0B 55 80 00 AB +     .byte $00,$0B,$55,$80,$00,$AB,$E0,$00,$0B,$EA,$00,$00,$2B,$E8,$00,$2B ; $750E
  2776 751E E8 00 00 2F FB 82 +     .byte $E8,$00,$00,$2F,$FB,$82,$EF,$F8,$00,$00,$3B,$FF,$EB,$FF,$EC,$00 ; $751E
  2777 752E 00 FE FE EB BF BF +     .byte $00,$FE,$FE,$EB,$BF,$BF,$00,$00,$BF,$F7,$BE,$DF,$FE,$00,$00,$2B ; $752E
  2778 753E FB FF EF E8 00 00 +     .byte $FB,$FF,$EF,$E8,$00,$00,$3B,$FE,$69,$BF,$EC,$00,$00,$2E,$E6,$69 ; $753E
  2779 754E 9B B8 00 00 AF E9 +     .byte $9B,$B8,$00,$00,$AF,$E9,$AA,$6B,$FA,$00,$15,$AB,$FA,$AA,$AF,$EA ; $754E
  2780 755E 54 55 AB 96 AA 96 +     .byte $54,$55,$AB,$96,$AA,$96,$EA,$55,$55,$AB,$EA,$AA,$AB,$EA,$55,$55 ; $755E
  2781 756E 6A E6 69 9B A9 55 +     .byte $6A,$E6,$69,$9B,$A9,$55,$55,$6A,$FE,$69,$BF,$A9,$55,$55,$6A,$BF ; $756E
  2782 757E FF FE A9 55 00 00 +     .byte $FF,$FE,$A9,$55,$00,$00,$00,$00,$00,$00,$00,$00,$00,$00,$00,$00 ; $757E
  2783 758E 00 00 00 FF 00 00 +     .byte $00,$00,$00,$FF,$00,$00,$00,$FF,$00,$0A,$AF,$F0,$00,$0F,$FA,$A0 ; $758E
  2784 759E 25 6B FC 00 3F E9 +     .byte $25,$6B,$FC,$00,$3F,$E9,$58,$15,$5A,$FC,$00,$3F,$A5,$54,$15,$96 ; $759E
  2785 75AE BC 00 3E 96 54 15 +     .byte $BC,$00,$3E,$96,$54,$15,$95,$B0,$00,$0E,$56,$54,$25,$55,$E0,$00 ; $75AE
  2786 75BE 0B 55 58 09 57 80 +     .byte $0B,$55,$58,$09,$57,$80,$00,$02,$D5,$60,$02,$AF,$E3,$82,$CB,$FA ; $75BE
  2787 75CE 80 00 2B FF EB FF +     .byte $80,$00,$2B,$FF,$EB,$FF,$E8,$00,$00,$FE,$FE,$EB,$BF,$BF,$00,$00 ; $75CE
  2788 75DE BF F7 BE DF FE 00 +     .byte $BF,$F7,$BE,$DF,$FE,$00,$00,$2B,$FF,$FF,$FF,$E8,$00,$00,$3B,$FB ; $75DE
  2789 75EE FF EF EC 00 00 2E +     .byte $FF,$EF,$EC,$00,$00,$2E,$FE,$69,$BF,$B8,$00,$00,$AF,$E6,$69,$9B ; $75EE
  2790 75FE FA 00 15 AB E9 AA +     .byte $FA,$00,$15,$AB,$E9,$AA,$6B,$EA,$54,$55,$AB,$D6,$AA,$97,$EA,$55 ; $75FE
  2791 760E 55 AB EA AA AB EA +     .byte $55,$AB,$EA,$AA,$AB,$EA,$55,$55,$6A,$E6,$69,$9B,$A9,$55,$55,$6A ; $760E
  2792 761E FE 69 BF A9 55 55 +     .byte $FE,$69,$BF,$A9,$55,$55,$6A,$BF,$FF,$FE,$A9,$55,$00,$00,$00,$00 ; $761E
  2793 762E 00 00 00 00 00 00 +     .byte $00,$00,$00,$00,$00,$00,$00,$00,$00,$00,$00,$00,$00,$00,$00,$00 ; $762E
  2794 763E 00 00 00 00 00 00 +     .byte $00,$00,$00,$00,$00,$00,$00,$00,$00,$FF,$00,$00,$00,$FF,$00,$0A ; $763E
  2795 764E AF F0 00 0F FA A0 +     .byte $AF,$F0,$00,$0F,$FA,$A0,$25,$6B,$FC,$00,$3F,$E9,$58,$15,$5A,$FC ; $764E
  2796 765E 00 3F A5 54 15 96 +     .byte $00,$3F,$A5,$54,$15,$96,$BC,$00,$3E,$96,$54,$15,$95,$B0,$00,$0E ; $765E
  2797 766E 56 54 25 55 EC 82 +     .byte $56,$54,$25,$55,$EC,$82,$3B,$55,$58,$09,$57,$BF,$EB,$FE,$D5,$60 ; $766E
  2798 767E 02 AF AE EB BA FA +     .byte $02,$AF,$AE,$EB,$BA,$FA,$80,$00,$BF,$F7,$BE,$DF,$FE,$00,$00,$EB ; $767E
  2799 768E FF FF FF EB 00 00 +     .byte $FF,$FF,$FF,$EB,$00,$00,$3B,$FF,$FF,$FF,$EC,$00,$00,$2E,$FF,$FF ; $768E
  2800 769E FF B8 00 00 AF FB +     .byte $FF,$B8,$00,$00,$AF,$FB,$FF,$EF,$FA,$00,$15,$AB,$FE,$69,$BF,$EA ; $769E
  2801 76AE 54 55 AB E6 69 9B +     .byte $54,$55,$AB,$E6,$69,$9B,$EA,$55,$55,$AB,$EA,$AA,$AB,$EA,$55,$55 ; $76AE
  2802 76BE 6A E6 69 9B A9 55 +     .byte $6A,$E6,$69,$9B,$A9,$55,$55,$6A,$FE,$69,$BF,$A9,$55,$55,$6A,$BF ; $76BE
  2803 76CE FF FE A9 55 00 00 +     .byte $FF,$FE,$A9,$55,$00,$00,$00,$00,$00,$00,$00,$00,$00,$00,$00,$00 ; $76CE
  2804 76DE 00 00 00 00 00 00 +     .byte $00,$00,$00,$00,$00,$00,$00,$00,$00,$00,$00,$00,$00,$00,$00,$00 ; $76DE
  2805 76EE 00 FF 00 00 00 FF +     .byte $00,$FF,$00,$00,$00,$FF,$00,$0A,$AF,$F0,$00,$0F,$FA,$A0,$25,$6B ; $76EE
  2806 76FE FC 00 3F E9 58 15 +     .byte $FC,$00,$3F,$E9,$58,$15,$5A,$FC,$00,$3F,$A5,$54,$15,$96,$BC,$00 ; $76FE
  2807 770E 3E 96 54 15 95 B0 +     .byte $3E,$96,$54,$15,$95,$B0,$00,$0E,$56,$54,$25,$55,$EC,$82,$3B,$55 ; $770E
  2808 771E 58 09 57 BF EB FE +     .byte $58,$09,$57,$BF,$EB,$FE,$D5,$60,$02,$AF,$AE,$EB,$BA,$FA,$80,$00 ; $771E
  2809 772E BF F7 BE DF FE 00 +     .byte $BF,$F7,$BE,$DF,$FE,$00,$00,$EB,$FF,$FF,$FF,$EB,$00,$00,$3B,$FF ; $772E
  2810 773E FF FF EC 00 00 2E +     .byte $FF,$FF,$EC,$00,$00,$2E,$FF,$FF,$FF,$B8,$00,$00,$AF,$FB,$FF,$EF ; $773E
  2811 774E FA 00 15 AB EE 69 +     .byte $FA,$00,$15,$AB,$EE,$69,$BB,$EA,$54,$55,$AB,$EA,$AA,$AB,$EA,$55 ; $774E
  2812 775E 55 AA E6 69 9B AA +     .byte $55,$AA,$E6,$69,$9B,$AA,$55,$55,$6A,$FE,$69,$BF,$A9,$55,$55,$6A ; $775E
  2813 776E BF FF FE A9 55 55 +     .byte $BF,$FF,$FE,$A9,$55,$55,$6A,$AA,$AA,$AA,$A9,$55,$00,$00,$00,$00 ; $776E
  2814 777E 00 00 00 00 00 00 +     .byte $00,$00,$00,$00,$00,$00,$00,$00,$00,$00,$00,$00,$00,$00,$00,$00 ; $777E
  2815 778E 00 00 00 00 00 00 +     .byte $00,$00,$00,$00,$00,$00,$00,$00,$00,$FF,$00,$00,$00,$FF,$00,$0F ; $778E
  2816 779E FF F0 00 0F FF F0 +     .byte $FF,$F0,$00,$0F,$FF,$F0,$3F,$FF,$FC,$00,$3F,$FF,$FC,$3F,$FF,$FC ; $779E
  2817 77AE 00 3F FF FC 2A AF +     .byte $00,$3F,$FF,$FC,$2A,$AF,$FC,$00,$3F,$FA,$A8,$3E,$AB,$F0,$00,$0F ; $77AE
  2818 77BE EA BC 2F FE AC 82 +     .byte $EA,$BC,$2F,$FE,$AC,$82,$3A,$BF,$F8,$0B,$FF,$BF,$EB,$FE,$FF,$E0 ; $77BE
  2819 77CE 02 AF AE EB BA FA +     .byte $02,$AF,$AE,$EB,$BA,$FA,$80,$00,$BF,$F7,$BE,$DF,$FE,$00,$00,$EB ; $77CE
  2820 77DE FF FF FF EB 00 00 +     .byte $FF,$FF,$FF,$EB,$00,$00,$3B,$FF,$FF,$FF,$EC,$00,$00,$2E,$FF,$FF ; $77DE
  2821 77EE FF B8 00 00 AF FB +     .byte $FF,$B8,$00,$00,$AF,$FB,$FF,$EF,$FA,$00,$15,$AB,$EE,$69,$BB,$EA ; $77EE
  2822 77FE 54 55 AB EA AA AB +     .byte $54,$55,$AB,$EA,$AA,$AB,$EA,$55,$55,$AA,$E6,$69,$9B,$AA,$55,$55 ; $77FE
  2823 780E 6A FE 69 BF A9 55 +     .byte $6A,$FE,$69,$BF,$A9,$55,$55,$6A,$BF,$FF,$FE,$A9,$55,$55,$6A,$AA ; $780E
  2824 781E AA AA A9 55 00 00 +     .byte $AA,$AA,$A9,$55,$00,$00,$00,$00,$00,$00,$00,$00,$00,$00,$00,$00 ; $781E
  2825 782E 00 00 00 00 00 00 +     .byte $00,$00,$00,$00,$00,$00,$00,$00,$00,$00,$00,$00,$00,$00,$00,$00 ; $782E
  2826 783E 00 00 00 00 00 00 +     .byte $00,$00,$00,$00,$00,$00,$00,$00,$00,$00,$00,$00,$00,$00,$00,$FF ; $783E
  2827 784E AF 00 FA FF 00 0F +     .byte $AF,$00,$FA,$FF,$00,$0F,$FF,$FB,$C3,$EF,$FF,$F0,$3F,$FF,$FE,$FF ; $784E
  2828 785E BF FF FC 3F FF FE +     .byte $BF,$FF,$FC,$3F,$FF,$FE,$FF,$BF,$FF,$FC,$3F,$FF,$FE,$FF,$BF,$FF ; $785E
  2829 786E FC 3F FF FB FF EF +     .byte $FC,$3F,$FF,$FB,$FF,$EF,$FF,$FC,$2F,$FF,$FB,$FF,$EF,$FF,$F8,$0B ; $786E
  2830 787E FF EF FF FB FF E0 +     .byte $FF,$EF,$FF,$FB,$FF,$E0,$02,$AA,$BF,$BE,$FE,$AA,$80,$00,$AA,$F7 ; $787E
  2831 788E EB DF AA 00 00 3B +     .byte $EB,$DF,$AA,$00,$00,$3B,$FE,$EB,$BF,$EC,$00,$00,$AE,$FF,$BE,$FF ; $788E
  2832 789E BA 00 15 AB FF FF +     .byte $BA,$00,$15,$AB,$FF,$FF,$FF,$EA,$54,$55,$AB,$FB,$FF,$EF,$EA,$55 ; $789E
  2833 78AE 55 AA E6 69 9B AA +     .byte $55,$AA,$E6,$69,$9B,$AA,$55,$55,$6A,$E6,$AA,$9B,$A9,$55,$55,$6A ; $78AE
  2834 78BE BF FF FE A9 55 55 +     .byte $BF,$FF,$FE,$A9,$55,$55,$6A,$AA,$AA,$AA,$A9,$55,$55,$5A,$C3,$AA ; $78BE
  2835 78CE A5 55 55 56 C3 AA +     .byte $A5,$55,$55,$56,$C3,$AA,$95,$C3,$55,$6A,$AA,$A9,$F3,$55,$56,$59 ; $78CE
  2836 78DE 65 56 59 55 95 56 +     .byte $65,$56,$59,$55,$95,$56,$59,$66,$55,$A5,$55,$95,$55,$A5,$6A,$96 ; $78DE
  2837 78EE A9 6A 95 C8 55 59 +     .byte $A9,$6A,$95,$C8,$55,$59,$5A,$56,$59,$59,$55,$55,$59,$65,$96,$59 ; $78EE
  2838 78FE 66 55 56 A9 6A 95 +     .byte $66,$55,$56,$A9,$6A,$95,$A5,$6A,$95,$C7,$55,$C0  ; $78FE
  2839 790A			sub_790A:
  2840 790A A9 00		    lda #$00
  2841 790C AC 6B 28		    ldy $286B
  2842 790F F0 0D		    beq loc_791E
  2843 7911 84 BE		    sty $BE
  2844 7913 AC 6A 28		    ldy $286A
  2845 7916			loc_7916:
  2846 7916 99 32 0E		    sta $0E32,y
  2847 7919 C8			    iny
  2848 791A C6 BE		    dec $BE
  2849 791C D0 F8		    bne loc_7916
  2850 791E			loc_791E:
  2851 791E 8D 75 28		    sta $2875
  2852 7921 85 CE		    sta $CE
  2853 7923 A9 01		    lda #$01
  2854 7925 85 BE		    sta $BE
  2855 7927 8E 6C 28		    stx $286C
  2856 792A AD 51 28		    lda $2851
  2857 792D AA			    tax
  2858 792E 29 03		    and #$03
  2859 7930 8D 6D 28		    sta $286D
  2860 7933 8A			    txa
  2861 7934 4A			    lsr
  2862 7935 4A			    lsr
  2863 7936 38			    sec
  2864 7937 E9 10		    sbc #$10
  2865 7939 B0 05		    bcs loc_7940
  2866 793B AD D0 28		    lda $28D0
  2867 793E 90 21		    bcc loc_7961
  2868 7940			loc_7940:
  2869 7940 C9 1F		    cmp #$1F
  2870 7942 90 05		    bcc loc_7949
  2871 7944 AD EF 28		    lda $28EF
  2872 7947 B0 18		    bcs loc_7961
  2873 7949			loc_7949:
  2874 7949 A8			    tay
  2875 794A A2 03		    ldx #$03
  2876 794C A9 00		    lda #$00
  2877 794E			loc_794E:
  2878 794E 18			    clc
  2879 794F 79 D0 28		    adc $28D0,y
  2880 7952 EC 6D 28		    cpx $286D
  2881 7955 D0 01		    bne loc_7958
  2882 7957 C8			    iny
  2883 7958			loc_7958:
  2884 7958 CA			    dex
  2885 7959 10 F3		    bpl loc_794E
  2886 795B C9 80		    cmp #$80
  2887 795D 6A			    ror
  2888 795E C9 80		    cmp #$80
  2889 7960 6A			    ror
  2890 7961			loc_7961:
  2891 7961 8D 6E 28		    sta $286E
  2892 7964 AE 6C 28		    ldx $286C
  2893 7967 E0 1A		    cpx #$1A
  2894 7969 90 10		    bcc loc_797B
  2895 796B D0 0B		    bne loc_7978
  2896 796D			loc_796D:
  2897 796D A9 00		    lda #$00
  2898 796F 8D 4E 28		    sta $284E
  2899 7972 A9 01		    lda #$01
  2900 7974 8D 4F 28		    sta $284F
  2901 7977 60			    rts
  2902 7978			loc_7978:
  2903 7978 4C DB 79		    jmp loc_79DB
  2904 797B			loc_797B:
  2905 797B 8E 4F 28		    stx $284F
  2906 797E BD 64 7A		    lda $7A64,x
  2907 7981 18			    clc
  2908 7982 6D 52 28		    adc $2852
  2909 7985 18			    clc
  2910 7986 6D 6E 28		    adc $286E
  2911 7989 10 02		    bpl loc_798D
  2912 798B A9 58		    lda #$58
  2913 798D			loc_798D:
  2914 798D AA			    tax
  2915 798E AD 4E 28		    lda $284E
  2916 7991 C9 08		    cmp #$08
  2917 7993 90 02		    bcc loc_7997
  2918 7995 A9 07		    lda #$07
  2919 7997			loc_7997:
  2920 7997 A8			    tay
  2921 7998 B9 DA 7A		    lda $7ADA,y
  2922 799B			loc_799B:
  2923 799B A8			    tay
  2924 799C 8E 6A 28		    stx $286A
  2925 799F			loc_799F:
  2926 799F A5 BE		    lda $BE
  2927 79A1 85 BF		    sta $BF
  2928 79A3 B9 7F 7A		    lda $7A7F,y
  2929 79A6 D0 23		    bne loc_79CB
  2930 79A8 38			    sec
  2931 79A9 8A			    txa
  2932 79AA ED 6A 28		    sbc $286A
  2933 79AD 8D 6B 28		    sta $286B
  2934 79B0 EE 4E 28		    inc $284E
  2935 79B3 38			    sec
  2936 79B4 AD 51 28		    lda $2851
  2937 79B7 ED 75 28		    sbc $2875
  2938 79BA 85 CC		    sta $CC
  2939 79BC 8D 02 D0		    sta HPOSP2
  2940 79BF AD 50 28		    lda $2850
  2941 79C2 8D 14 D0		    sta COLPM2
  2942 79C5 A5 CE		    lda $CE
  2943 79C7 8D 0A D0		    sta SIZEP2
  2944 79CA 60			    rts
  2945 79CB			loc_79CB:
  2946 79CB E0 56		    cpx #$56
  2947 79CD B0 04		    bcs loc_79D3
  2948 79CF 9D 32 0E		    sta $0E32,x
  2949 79D2 E8			    inx
  2950 79D3			loc_79D3:
  2951 79D3 C6 BF		    dec $BF
  2952 79D5 D0 F4		    bne loc_79CB
  2953 79D7 C8			    iny
  2954 79D8 4C 9F 79		    jmp loc_799F
  2955 79DB			loc_79DB:
  2956 79DB AE 4F 28		    ldx $284F
  2957 79DE AD 71 28		    lda $2871
  2958 79E1 D0 1D		    bne loc_7A00
  2959 79E3 A9 0E		    lda #$0E
  2960 79E5 8D 50 28		    sta $2850
  2961 79E8 AC 4F 28		    ldy $284F
  2962 79EB C0 09		    cpy #$09
  2963 79ED 90 02		    bcc loc_79F1
  2964 79EF A0 08		    ldy #$08
  2965 79F1			loc_79F1:
  2966 79F1 B9 01 7B		    lda $7B01,y
  2967 79F4 8D 73 28		    sta $2873
  2968 79F7 B9 F9 7A		    lda $7AF9,y
  2969 79FA 8D 74 28		    sta $2874
  2970 79FD 8D 71 28		    sta $2871
  2971 7A00			loc_7A00:
  2972 7A00 CD 73 28		    cmp $2873
  2973 7A03 90 0A		    bcc loc_7A0F
  2974 7A05 A0 3E		    ldy #$3E
  2975 7A07 8C 50 28		    sty $2850
  2976 7A0A A0 FF		    ldy #$FF
  2977 7A0C 8C 72 28		    sty $2872
  2978 7A0F			loc_7A0F:
  2979 7A0F 18			    clc
  2980 7A10 6D 72 28		    adc $2872
  2981 7A13 8D 71 28		    sta $2871
  2982 7A16 A8			    tay
  2983 7A17 BD 64 7A		    lda $7A64,x
  2984 7A1A 38			    sec
  2985 7A1B F9 ED 7A		    sbc $7AED,y
  2986 7A1E 18			    clc
  2987 7A1F 6D 52 28		    adc $2852
  2988 7A22 18			    clc
  2989 7A23 6D 6E 28		    adc $286E
  2990 7A26 10 02		    bpl loc_7A2A
  2991 7A28 A9 58		    lda #$58
  2992 7A2A			loc_7A2A:
  2993 7A2A AA			    tax
  2994 7A2B AD 72 28		    lda $2872
  2995 7A2E 10 0B		    bpl loc_7A3B
  2996 7A30 CE 50 28		    dec $2850
  2997 7A33 CC 74 28		    cpy $2874
  2998 7A36 B0 03		    bcs loc_7A3B
  2999 7A38 4C 6D 79		    jmp loc_796D
  3000 7A3B			loc_7A3B:
  3001 7A3B 98			    tya
  3002 7A3C C9 07		    cmp #$07
  3003 7A3E 90 1D		    bcc loc_7A5D
  3004 7A40 C9 0A		    cmp #$0A
  3005 7A42 90 0D		    bcc loc_7A51
  3006 7A44 A0 0C		    ldy #$0C
  3007 7A46 8C 75 28		    sty $2875
  3008 7A49 A0 03		    ldy #$03
  3009 7A4B 84 CE		    sty $CE
  3010 7A4D C8			    iny
  3011 7A4E 4C 5B 7A		    jmp loc_7A5B
  3012 7A51			loc_7A51:
  3013 7A51 A0 04		    ldy #$04
  3014 7A53 8C 75 28		    sty $2875
  3015 7A56 A0 01		    ldy #$01
  3016 7A58 84 CE		    sty $CE
  3017 7A5A C8			    iny
  3018 7A5B			loc_7A5B:
  3019 7A5B 84 BE		    sty $BE
  3020 7A5D			loc_7A5D:
  3021 7A5D A8			    tay
  3022 7A5E B9 E1 7A		    lda $7AE1,y
  3023 7A61 4C 9B 79		    jmp loc_799B
  3024 7A64 52 51 44 3E 3A 38 +     .byte $52,$51,$44,$3E,$3A,$38,$36,$35,$34,$33,$32,$31,$31,$30,$30,$30 ; $7A64
  3025 7A74 2F 2F 2F 2F 2F 2E +     .byte $2F,$2F,$2F,$2F,$2F,$2E,$2E,$2E,$2E,$2E,$2E,$08,$1C,$1C,$3E,$7F ; $7A74
  3026 7A84 00 08 1C 3E 3E 3E +     .byte $00,$08,$1C,$3E,$3E,$3E,$3E,$3E,$3E,$3E,$3E,$3E,$3E,$3E,$1C,$00 ; $7A84
  3027 7A94 08 1C 1C 1C 1C 1C +     .byte $08,$1C,$1C,$1C,$1C,$1C,$00,$0C,$0C,$0C,$0C,$00,$08,$08,$08,$00 ; $7A94
  3028 7AA4 08 08 00 08 00 18 +     .byte $08,$08,$00,$08,$00,$18,$18,$00,$1C,$1C,$1C,$1C,$00,$18,$3C,$3C ; $7AA4
  3029 7AB4 3C 3C 18 00 1C 3E +     .byte $3C,$3C,$18,$00,$1C,$3E,$3E,$3E,$3E,$3E,$3E,$1C,$00,$18,$3C,$3C ; $7AB4
  3030 7AC4 7E 7E 7E 7E 3C 3C +     .byte $7E,$7E,$7E,$7E,$3C,$3C,$18,$00,$18,$3C,$7E,$7E,$FF,$FF,$FF,$FF ; $7AC4
  3031 7AD4 FF FF 7E 7E 3C 18 +     .byte $FF,$FF,$7E,$7E,$3C,$18,$00,$00,$06,$15,$1C,$21,$25,$28,$2A,$2D ; $7AD4
  3032 7AE4 32 39 42 4D 39 42 +     .byte $32,$39,$42,$4D,$39,$42,$4D,$39,$42,$4D,$01,$02,$03,$04,$05,$07 ; $7AE4
  3033 7AF4 08 0A 0E 10 14 1C +     .byte $08,$0A,$0E,$10,$14,$1C,$07,$07,$06,$05,$04,$03,$02,$01,$0C,$0C ; $7AF4
  3034 7B04 0B 0A 09 08 07 06	    .byte $0B,$0A,$09,$08,$07,$06                          ; $7B04
  3035 7B0A			build_line_table:
  3036 7B0A A0 00		    ldy #$00
  3037 7B0C A5 C4		    lda $C4
  3038 7B0E 8D 51 07		    sta $0751
  3039 7B11 A5 C5		    lda $C5
  3040 7B13 8D A7 07		    sta $07A7
  3041 7B16			loc_7B16:
  3042 7B16 18			    clc
  3043 7B17 B9 51 07		    lda $0751,y
  3044 7B1A 65 C2		    adc $C2
  3045 7B1C 99 52 07		    sta $0752,y
  3046 7B1F B9 A7 07		    lda $07A7,y
  3047 7B22 69 00		    adc #$00
  3048 7B24 99 A8 07		    sta $07A8,y
  3049 7B27 C8			    iny
  3050 7B28 C0 55		    cpy #$55
  3051 7B2A D0 EA		    bne loc_7B16
  3052 7B2C 60			    rts
  3053 7B2D			sub_7B2D:
  3054 7B2D A2 00		    ldx #$00
  3055 7B2F A0 2F		    ldy #$2F
  3056 7B31			loc_7B31:
  3057 7B31 B9 51 07		    lda $0751,y
  3058 7B34 9D 54 29		    sta $2954,x
  3059 7B37 B9 A7 07		    lda $07A7,y
  3060 7B3A 9D 84 29		    sta $2984,x
  3061 7B3D E8			    inx
  3062 7B3E 88			    dey
  3063 7B3F 10 F0		    bpl loc_7B31
  3064 7B41 60			    rts
  3065 7B42			setup_display:
  3066 7B42 A9 30		    lda #$30
  3067 7B44			loc_7B44:
  3068 7B44 CD 0B D4		    cmp VCOUNT
  3069 7B47 D0 FB		    bne loc_7B44
  3070 7B49 60			    rts
  3071 7B4A			enable_display:
  3072 7B4A AD 0B D4		    lda VCOUNT
  3073 7B4D C9 7A		    cmp #$7A
  3074 7B4F 90 F9		    bcc enable_display
  3075 7B51 60			    rts
  3076 7B52			sub_7B52:
  3077 7B52 A0 00		    ldy #$00
  3078 7B54 98			    tya
  3079 7B55			loc_7B55:
  3080 7B55 99 00 0A		    sta pilot_map,y
  3081 7B58 88			    dey
  3082 7B59 D0 FA		    bne loc_7B55
  3083 7B5B A0 08		    ldy #$08
  3084 7B5D AD 1B 06		    lda $061B
  3085 7B60 C9 01		    cmp #$01
  3086 7B62 D0 02		    bne loc_7B66
  3087 7B64 A0 10		    ldy #$10
  3088 7B66			loc_7B66:
  3089 7B66 20 9E 7B		    jsr sub_7B9E
  3090 7B69 88			    dey
  3091 7B6A D0 FA		    bne loc_7B66
  3092 7B6C AD 1B 06		    lda $061B
  3093 7B6F C9 04		    cmp #$04
  3094 7B71 90 08		    bcc loc_7B7B
  3095 7B73 A0 04		    ldy #$04
  3096 7B75			loc_7B75:
  3097 7B75 20 97 7B		    jsr sub_7B97
  3098 7B78 88			    dey
  3099 7B79 D0 FA		    bne loc_7B75
  3100 7B7B			loc_7B7B:
  3101 7B7B A2 00		    ldx #$00
  3102 7B7D			loc_7B7D:
  3103 7B7D AD 0A D2		    lda RANDOM
  3104 7B80 CD 17 06		    cmp $0617
  3105 7B83 B0 0A		    bcs loc_7B8F
  3106 7B85 BD 00 09		    lda terrain_height_buf,x
  3107 7B88 10 05		    bpl loc_7B8F
  3108 7B8A A9 64		    lda #$64
  3109 7B8C 9D 00 0A		    sta pilot_map,x
  3110 7B8F			loc_7B8F:
  3111 7B8F 18			    clc
  3112 7B90 8A			    txa
  3113 7B91 69 43		    adc #$43
  3114 7B93 AA			    tax
  3115 7B94 D0 E7		    bne loc_7B7D
  3116 7B96 60			    rts
  3117 7B97			sub_7B97:
  3118 7B97 A9 01		    lda #$01
  3119 7B99 8D 1F 28		    sta $281F
  3120 7B9C D0 05		    bne loc_7BA3
  3121 7B9E			sub_7B9E:
  3122 7B9E A9 C8		    lda #$C8
  3123 7BA0 8D 1F 28		    sta $281F
  3124 7BA3			loc_7BA3:
  3125 7BA3 A2 00		    ldx #$00
  3126 7BA5 8E A2 28		    stx $28A2
  3127 7BA8			loc_7BA8:
  3128 7BA8 8E 21 28		    stx $2821
  3129 7BAB BD 00 0A		    lda pilot_map,x
  3130 7BAE D0 28		    bne loc_7BD8
  3131 7BB0 BD 00 09		    lda terrain_height_buf,x
  3132 7BB3 8D 22 28		    sta $2822
  3133 7BB6 C9 30		    cmp #$30
  3134 7BB8 B0 1E		    bcs loc_7BD8
  3135 7BBA CD A2 28		    cmp $28A2
  3136 7BBD 90 19		    bcc loc_7BD8
  3137 7BBF A2 2C		    ldx #$2C
  3138 7BC1			loc_7BC1:
  3139 7BC1 BD 70 22		    lda $2270,x
  3140 7BC4 CD 21 28		    cmp $2821
  3141 7BC7 F0 0F		    beq loc_7BD8
  3142 7BC9 CA			    dex
  3143 7BCA 10 F5		    bpl loc_7BC1
  3144 7BCC AD 22 28		    lda $2822
  3145 7BCF 8D A2 28		    sta $28A2
  3146 7BD2 AD 21 28		    lda $2821
  3147 7BD5 8D A1 28		    sta $28A1
  3148 7BD8			loc_7BD8:
  3149 7BD8 18			    clc
  3150 7BD9 AD 21 28		    lda $2821
  3151 7BDC 69 43		    adc #$43
  3152 7BDE AA			    tax
  3153 7BDF D0 C7		    bne loc_7BA8
  3154 7BE1 AD A2 28		    lda $28A2
  3155 7BE4 F0 09		    beq loc_7BEF
  3156 7BE6 AE A1 28		    ldx $28A1
  3157 7BE9 AD 1F 28		    lda $281F
  3158 7BEC 9D 00 0A		    sta pilot_map,x
  3159 7BEF			loc_7BEF:
  3160 7BEF 60			    rts
  3161 7BF0			sub_7BF0:
  3162 7BF0 A2 00		    ldx #$00
  3163 7BF2			loc_7BF2:
  3164 7BF2 8E 21 28		    stx $2821
  3165 7BF5 BD 00 0A		    lda pilot_map,x
  3166 7BF8 C9 01		    cmp #$01
  3167 7BFA D0 16		    bne loc_7C12
  3168 7BFC A2 2C		    ldx #$2C
  3169 7BFE			loc_7BFE:
  3170 7BFE BD 70 22		    lda $2270,x
  3171 7C01 CD 21 28		    cmp $2821
  3172 7C04 F0 0C		    beq loc_7C12
  3173 7C06 CA			    dex
  3174 7C07 10 F5		    bpl loc_7BFE
  3175 7C09 AE 21 28		    ldx $2821
  3176 7C0C A9 80		    lda #$80
  3177 7C0E 9D 00 0A		    sta pilot_map,x
  3178 7C11 60			    rts
  3179 7C12			loc_7C12:
  3180 7C12 18			    clc
  3181 7C13 AD 21 28		    lda $2821
  3182 7C16 69 43		    adc #$43
  3183 7C18 AA			    tax
  3184 7C19 D0 D7		    bne loc_7BF2
  3185 7C1B 60			    rts
  3186 7C1C			mirror_font:
  3187 7C1C A9 00		    lda #$00
  3188 7C1E 85 84		    sta $84
  3189 7C20 A9 10		    lda #$10
  3190 7C22 85 80		    sta $80
  3191 7C24 A9 08		    lda #$08
  3192 7C26 85 E0		    sta FR1
  3193 7C28			loc_7C28:
  3194 7C28 A9 00		    lda #$00
  3195 7C2A 85 81		    sta $81
  3196 7C2C A9 04		    lda #$04
  3197 7C2E 85 82		    sta $82
  3198 7C30			loc_7C30:
  3199 7C30 A4 84		    ldy $84
  3200 7C32 B9 3B 50		    lda $503B,y
  3201 7C35 85 C2		    sta $C2
  3202 7C37 B9 3C 50		    lda $503C,y
  3203 7C3A 85 C3		    sta $C3
  3204 7C3C 38			    sec
  3205 7C3D A5 80		    lda $80
  3206 7C3F E5 81		    sbc $81
  3207 7C41 A8			    tay
  3208 7C42 B9 3B 50		    lda $503B,y
  3209 7C45 85 C4		    sta $C4
  3210 7C47 B9 3C 50		    lda $503C,y
  3211 7C4A 85 C5		    sta $C5
  3212 7C4C A0 00		    ldy #$00
  3213 7C4E			loc_7C4E:
  3214 7C4E B1 C2		    lda ($C2),y
  3215 7C50 A2 08		    ldx #$08
  3216 7C52			loc_7C52:
  3217 7C52 0A			    asl
  3218 7C53 66 85		    ror $85
  3219 7C55 CA			    dex
  3220 7C56 D0 FA		    bne loc_7C52
  3221 7C58 A5 85		    lda $85
  3222 7C5A 91 C4		    sta ($C4),y
  3223 7C5C F0 03		    beq loc_7C61
  3224 7C5E C8			    iny
  3225 7C5F 10 ED		    bpl loc_7C4E
  3226 7C61			loc_7C61:
  3227 7C61 E6 84		    inc $84
  3228 7C63 E6 84		    inc $84
  3229 7C65 E6 81		    inc $81
  3230 7C67 E6 81		    inc $81
  3231 7C69 C6 82		    dec $82
  3232 7C6B D0 C3		    bne loc_7C30
  3233 7C6D 18			    clc
  3234 7C6E A5 80		    lda $80
  3235 7C70 69 12		    adc #$12
  3236 7C72 85 80		    sta $80
  3237 7C74 18			    clc
  3238 7C75 A5 84		    lda $84
  3239 7C77 69 0A		    adc #$0A
  3240 7C79 85 84		    sta $84
  3241 7C7B C6 E0		    dec FR1
  3242 7C7D D0 A9		    bne loc_7C28
  3243 7C7F 60			    rts
  3244 7C80			init_game:
  3245 7C80 A9 00		    lda #$00
  3246 7C82 85 B8		    sta $B8
  3247 7C84 A9 B5		    lda #$B5
  3248 7C86 85 C2		    sta $C2
  3249 7C88 A9 32		    lda #$32
  3250 7C8A 85 C3		    sta $C3
  3251 7C8C A9 47		    lda #$47
  3252 7C8E 85 C4		    sta $C4
  3253 7C90 A9 00		    lda #$00
  3254 7C92 85 C5		    sta $C5
  3255 7C94 20 D7 7C		    jsr sub_7CD7
  3256 7C97 A9 00		    lda #$00
  3257 7C99 85 C2		    sta $C2
  3258 7C9B A9 0B		    lda #$0B
  3259 7C9D 85 C3		    sta $C3
  3260 7C9F A9 FF		    lda #$FF
  3261 7CA1 85 C4		    sta $C4
  3262 7CA3 A9 04		    lda #$04
  3263 7CA5 85 C5		    sta $C5
  3264 7CA7 4C D7 7C		    jmp sub_7CD7
  3265 7CAA			clear_screen:
  3266 7CAA A0 00		    ldy #$00
  3267 7CAC A9 FF		    lda #$FF
  3268 7CAE			loc_7CAE:
  3269 7CAE 99 08 26		    sta $2608,y
  3270 7CB1 88			    dey
  3271 7CB2 D0 FA		    bne loc_7CAE
  3272 7CB4 A9 70		    lda #$70
  3273 7CB6 85 C2		    sta $C2
  3274 7CB8 A9 10		    lda #$10
  3275 7CBA 85 C3		    sta $C3
  3276 7CBC A9 9F		    lda #$9F
  3277 7CBE 85 C4		    sta $C4
  3278 7CC0 A9 11		    lda #$11
  3279 7CC2 85 C5		    sta $C5
  3280 7CC4 4C D7 7C		    jmp sub_7CD7
  3281 7CC7			sub_7CC7:
  3282 7CC7 A9 00		    lda #$00
  3283 7CC9 85 C2		    sta $C2
  3284 7CCB A9 20		    lda #$20
  3285 7CCD 85 C3		    sta $C3
  3286 7CCF A9 73		    lda #$73
  3287 7CD1 85 C4		    sta $C4
  3288 7CD3 A9 0F		    lda #$0F
  3289 7CD5 85 C5		    sta $C5
  3290 7CD7			sub_7CD7:
  3291 7CD7 A0 00		    ldy #$00
  3292 7CD9			loc_7CD9:
  3293 7CD9 A5 B8		    lda $B8
  3294 7CDB 91 C2		    sta ($C2),y
  3295 7CDD E6 C2		    inc $C2
  3296 7CDF D0 02		    bne loc_7CE3
  3297 7CE1 E6 C3		    inc $C3
  3298 7CE3			loc_7CE3:
  3299 7CE3 C6 C4		    dec $C4
  3300 7CE5 A9 FF		    lda #$FF
  3301 7CE7 C5 C4		    cmp $C4
  3302 7CE9 D0 07		    bne loc_7CF2
  3303 7CEB C6 C5		    dec $C5
  3304 7CED C5 C5		    cmp $C5
  3305 7CEF D0 01		    bne loc_7CF2
  3306 7CF1 60			    rts
  3307 7CF2			loc_7CF2:
  3308 7CF2 4C D9 7C		    jmp loc_7CD9
  3309 7CF5			sub_7CF5:
  3310 7CF5 A9 0E		    lda #$0E
  3311 7CF7 85 BC		    sta $BC
  3312 7CF9 A9 52		    lda #$52
  3313 7CFB 85 BD		    sta $BD
  3314 7CFD A9 32		    lda #$32
  3315 7CFF 85 BE		    sta $BE
  3316 7D01 A9 0C		    lda #$0C
  3317 7D03 85 BF		    sta $BF
  3318 7D05 20 18 7D		    jsr sub_7D18
  3319 7D08 A9 1D		    lda #$1D
  3320 7D0A 85 BC		    sta $BC
  3321 7D0C A9 52		    lda #$52
  3322 7D0E 85 BD		    sta $BD
  3323 7D10 A9 32		    lda #$32
  3324 7D12 85 BE		    sta $BE
  3325 7D14 A9 0D		    lda #$0D
  3326 7D16 85 BF		    sta $BF
  3327 7D18			sub_7D18:
  3328 7D18 A0 00		    ldy #$00
  3329 7D1A			loc_7D1A:
  3330 7D1A B1 BC		    lda ($BC),y
  3331 7D1C D0 01		    bne loc_7D1F
  3332 7D1E 60			    rts
  3333 7D1F			loc_7D1F:
  3334 7D1F 20 71 7D		    jsr sub_7D71
  3335 7D22 A4 C0		    ldy $C0
  3336 7D24 C8			    iny
  3337 7D25 D0 F3		    bne loc_7D1A
  3338 7D27			sub_7D27:
  3339 7D27 A0 2F		    ldy #$2F
  3340 7D29 A9 AA		    lda #$AA
  3341 7D2B			loc_7D2B:
  3342 7D2B 99 FD 32		    sta $32FD,y
  3343 7D2E 88			    dey
  3344 7D2F 10 FA		    bpl loc_7D2B
  3345 7D31 A9 2D		    lda #$2D
  3346 7D33 85 BE		    sta $BE
  3347 7D35 A9 33		    lda #$33
  3348 7D37 85 BF		    sta $BF
  3349 7D39 A9 22		    lda #$22
  3350 7D3B 85 BC		    sta $BC
  3351 7D3D A9 51		    lda #$51
  3352 7D3F 85 BD		    sta $BD
  3353 7D41 20 54 7D		    jsr sub_7D54
  3354 7D44 A9 CD		    lda #$CD
  3355 7D46 85 BE		    sta $BE
  3356 7D48 A9 35		    lda #$35
  3357 7D4A 85 BF		    sta $BF
  3358 7D4C A9 CA		    lda #$CA
  3359 7D4E 85 BC		    sta $BC
  3360 7D50 A9 78		    lda #$78
  3361 7D52 85 BD		    sta $BD
  3362 7D54			sub_7D54:
  3363 7D54 A0 00		    ldy #$00
  3364 7D56			loc_7D56:
  3365 7D56 B1 BC		    lda ($BC),y
  3366 7D58 C9 C0		    cmp #$C0
  3367 7D5A B0 08		    bcs loc_7D64
  3368 7D5C 84 C0		    sty $C0
  3369 7D5E 20 7E 7D		    jsr sub_7D7E
  3370 7D61 4C 6C 7D		    jmp loc_7D6C
  3371 7D64			loc_7D64:
  3372 7D64 29 3F		    and #$3F
  3373 7D66 D0 01		    bne loc_7D69
  3374 7D68 60			    rts
  3375 7D69			loc_7D69:
  3376 7D69 20 71 7D		    jsr sub_7D71
  3377 7D6C			loc_7D6C:
  3378 7D6C A4 C0		    ldy $C0
  3379 7D6E C8			    iny
  3380 7D6F D0 E5		    bne loc_7D56
  3381 7D71			sub_7D71:
  3382 7D71 AA			    tax
  3383 7D72 C8			    iny
  3384 7D73 B1 BC		    lda ($BC),y
  3385 7D75 84 C0		    sty $C0
  3386 7D77			loc_7D77:
  3387 7D77 20 7E 7D		    jsr sub_7D7E
  3388 7D7A CA			    dex
  3389 7D7B D0 FA		    bne loc_7D77
  3390 7D7D 60			    rts
  3391 7D7E			sub_7D7E:
  3392 7D7E A0 00		    ldy #$00
  3393 7D80 91 BE		    sta ($BE),y
  3394 7D82 E6 BE		    inc $BE
  3395 7D84 D0 02		    bne loc_7D88
  3396 7D86 E6 BF		    inc $BF
  3397 7D88			loc_7D88:
  3398 7D88 60			    rts
  3399 7D89			sub_7D89:
  3400 7D89 A9 0F		    lda #$0F
  3401 7D8B 85 BC		    sta $BC
  3402 7D8D A9 18		    lda #$18
  3403 7D8F 85 BD		    sta $BD
  3404 7D91 A0 C0		    ldy #$C0
  3405 7D93			loc_7D93:
  3406 7D93 B9 0C 35		    lda $350C,y
  3407 7D96 91 BC		    sta ($BC),y
  3408 7D98 88			    dey
  3409 7D99 D0 F8		    bne loc_7D93
  3410 7D9B 60			    rts
  3411 7D9C			wait_frames:
  3412 7D9C 48			    pha
  3413 7D9D			loc_7D9D:
  3414 7D9D A9 00		    lda #$00
  3415 7D9F 85 14		    sta $14
  3416 7DA1 AD 09 06		    lda $0609
  3417 7DA4			loc_7DA4:
  3418 7DA4 C5 14		    cmp $14
  3419 7DA6 D0 FC		    bne loc_7DA4
  3420 7DA8 68			    pla
  3421 7DA9 60			    rts
  3422 7DAA			wait_60_frames:
  3423 7DAA 48			    pha
  3424 7DAB A9 3C		    lda #$3C
  3425 7DAD D0 03		    bne loc_7DB2
  3426 7DAF			wait_1_frame:
  3427 7DAF 48			    pha
  3428 7DB0 A9 01		    lda #$01
  3429 7DB2			loc_7DB2:
  3430 7DB2 8D 09 06		    sta $0609
  3431 7DB5 D0 E6		    bne loc_7D9D
  3432 7DB7			wait_2_frames:
  3433 7DB7 48			    pha
  3434 7DB8 A9 02		    lda #$02
  3435 7DBA D0 F6		    bne loc_7DB2
  3436 7DBC			wait_5_frames:
  3437 7DBC 48			    pha
  3438 7DBD A9 05		    lda #$05
  3439 7DBF D0 F1		    bne loc_7DB2
  3440 7DC1			wait_10_frames:
  3441 7DC1 48			    pha
  3442 7DC2 A9 0A		    lda #$0A
  3443 7DC4 D0 EC		    bne loc_7DB2
  3444 7DC6			wait_20_frames:
  3445 7DC6 48			    pha
  3446 7DC7 A9 14		    lda #$14
  3447 7DC9 D0 E7		    bne loc_7DB2
  3448 7DCB			sub_7DCB:
  3449 7DCB A0 FF		    ldy #$FF
  3450 7DCD 38			    sec
  3451 7DCE			loc_7DCE:
  3452 7DCE C8			    iny
  3453 7DCF E9 0A		    sbc #$0A
  3454 7DD1 B0 FB		    bcs loc_7DCE
  3455 7DD3 69 0A		    adc #$0A
  3456 7DD5 85 C2		    sta $C2
  3457 7DD7 98			    tya
  3458 7DD8 0A			    asl
  3459 7DD9 0A			    asl
  3460 7DDA 0A			    asl
  3461 7DDB 0A			    asl
  3462 7DDC 05 C2		    ora $C2
  3463 7DDE 60			    rts
  3464 7DDF			sub_7DDF:
  3465 7DDF A9 00		    lda #$00
  3466 7DE1 85 C4		    sta $C4
  3467 7DE3			loc_7DE3:
  3468 7DE3 EE 20 06		    inc $0620
  3469 7DE6 18			    clc
  3470 7DE7 A5 C4		    lda $C4
  3471 7DE9 69 01		    adc #$01
  3472 7DEB 85 C4		    sta $C4
  3473 7DED AD 20 06		    lda $0620
  3474 7DF0 CD 1B 06		    cmp $061B
  3475 7DF3 D0 EE		    bne loc_7DE3
  3476 7DF5 60			    rts
  3477 7DF6			sub_7DF6:
  3478 7DF6 F8			    sed
  3479 7DF7 38			    sec
  3480 7DF8 AD 40 06		    lda $0640
  3481 7DFB E9 01		    sbc #$01
  3482 7DFD 8D 40 06		    sta $0640
  3483 7E00 D8			    cld
  3484 7E01 20 27 43		    jsr sub_432A
  3485 7E04			sub_7E04:
  3486 7E04 20 8E 4C		    jsr sub_4C91
  3487 7E07 A2 10		    ldx #$10
  3488 7E09 20 AA 94		    jsr sub_94AA
  3489 7E0C 4C C1 7D		    jmp wait_10_frames
  3490 7E0F			sub_7E0F:
  3491 7E0F 20 CB 7D		    jsr sub_7DCB
  3492 7E12 8D 40 06		    sta $0640
  3493 7E15 20 27 43		    jsr sub_432A
  3494 7E18 4C C6 7D		    jmp wait_20_frames
  3495 7E1B			sub_7E1B:
  3496 7E1B AE 1B 06		    ldx $061B
  3497 7E1E 8A			    txa
  3498 7E1F 4A			    lsr
  3499 7E20 18			    clc
  3500 7E21 69 02		    adc #$02
  3501 7E23 C9 14		    cmp #$14
  3502 7E25 90 02		    bcc loc_7E29
  3503 7E27 A9 14		    lda #$14
  3504 7E29			loc_7E29:
  3505 7E29 48			    pha
  3506 7E2A 8D 3B 06		    sta $063B
  3507 7E2D 20 CB 7D		    jsr sub_7DCB
  3508 7E30 8D 40 06		    sta $0640
  3509 7E33 68			    pla
  3510 7E34 A8			    tay
  3511 7E35 4A			    lsr
  3512 7E36 18			    clc
  3513 7E37 69 01		    adc #$01
  3514 7E39 8D 13 06		    sta $0613
  3515 7E3C 98			    tya
  3516 7E3D 38			    sec
  3517 7E3E E9 05		    sbc #$05
  3518 7E40 10 02		    bpl loc_7E44
  3519 7E42 A9 00		    lda #$00
  3520 7E44			loc_7E44:
  3521 7E44 8D 14 06		    sta $0614
  3522 7E47 8A			    txa
  3523 7E48 C9 01		    cmp #$01
  3524 7E4A D0 05		    bne loc_7E51
  3525 7E4C A9 00		    lda #$00
  3526 7E4E 4C 59 7E		    jmp loc_7E59
  3527 7E51			loc_7E51:
  3528 7E51 C9 2B		    cmp #$2B
  3529 7E53 90 02		    bcc loc_7E57
  3530 7E55 A9 2B		    lda #$2B
  3531 7E57			loc_7E57:
  3532 7E57 0A			    asl
  3533 7E58 0A			    asl
  3534 7E59			loc_7E59:
  3535 7E59 8D 17 06		    sta $0617
  3536 7E5C 8A			    txa
  3537 7E5D C9 04		    cmp #$04
  3538 7E5F B0 05		    bcs loc_7E66
  3539 7E61 A9 00		    lda #$00
  3540 7E63 4C 74 7E		    jmp loc_7E74
  3541 7E66			loc_7E66:
  3542 7E66 C9 23		    cmp #$23
  3543 7E68 90 02		    bcc loc_7E6C
  3544 7E6A A9 22		    lda #$22
  3545 7E6C			loc_7E6C:
  3546 7E6C 0A			    asl
  3547 7E6D 85 C2		    sta $C2
  3548 7E6F 38			    sec
  3549 7E70 A9 58		    lda #$58
  3550 7E72 E5 C2		    sbc $C2
  3551 7E74			loc_7E74:
  3552 7E74 8D 15 06		    sta $0615
  3553 7E77 8D 16 06		    sta $0616
  3554 7E7A 8A			    txa
  3555 7E7B C9 28		    cmp #$28
  3556 7E7D 90 02		    bcc loc_7E81
  3557 7E7F A9 28		    lda #$28
  3558 7E81			loc_7E81:
  3559 7E81 85 C2		    sta $C2
  3560 7E83 A9 2C		    lda #$2C
  3561 7E85 38			    sec
  3562 7E86 E5 C2		    sbc $C2
  3563 7E88 4A			    lsr
  3564 7E89 8D 18 06		    sta $0618
  3565 7E8C 86 C2		    stx $C2
  3566 7E8E A9 2A		    lda #$2A
  3567 7E90 38			    sec
  3568 7E91 E5 C2		    sbc $C2
  3569 7E93 30 05		    bmi loc_7E9A
  3570 7E95 4A			    lsr
  3571 7E96 C9 04		    cmp #$04
  3572 7E98 B0 02		    bcs loc_7E9C
  3573 7E9A			loc_7E9A:
  3574 7E9A A9 04		    lda #$04
  3575 7E9C			loc_7E9C:
  3576 7E9C 8D 0B 06		    sta $060B
  3577 7E9F 38			    sec
  3578 7EA0 A9 1A		    lda #$1A
  3579 7EA2 E5 C2		    sbc $C2
  3580 7EA4 30 01		    bmi loc_7EA7
  3581 7EA6 4A			    lsr
  3582 7EA7			loc_7EA7:
  3583 7EA7 8D 0D 06		    sta $060D
  3584 7EAA 30 04		    bmi loc_7EB0
  3585 7EAC C9 02		    cmp #$02
  3586 7EAE B0 02		    bcs loc_7EB2
  3587 7EB0			loc_7EB0:
  3588 7EB0 A9 02		    lda #$02
  3589 7EB2			loc_7EB2:
  3590 7EB2 C9 08		    cmp #$08
  3591 7EB4 90 05		    bcc loc_7EBB
  3592 7EB6 A9 FF		    lda #$FF
  3593 7EB8 4C C0 7E		    jmp loc_7EC0
  3594 7EBB			loc_7EBB:
  3595 7EBB 0A			    asl
  3596 7EBC 0A			    asl
  3597 7EBD 0A			    asl
  3598 7EBE 0A			    asl
  3599 7EBF 0A			    asl
  3600 7EC0			loc_7EC0:
  3601 7EC0 8D 0E 06		    sta $060E
  3602 7EC3 8A			    txa
  3603 7EC4 4A			    lsr
  3604 7EC5 4A			    lsr
  3605 7EC6 18			    clc
  3606 7EC7 69 04		    adc #$04
  3607 7EC9 C9 0F		    cmp #$0F
  3608 7ECB 90 02		    bcc loc_7ECF
  3609 7ECD A9 0F		    lda #$0F
  3610 7ECF			loc_7ECF:
  3611 7ECF 8D 0F 06		    sta $060F
  3612 7ED2 46 C2		    lsr $C2
  3613 7ED4 46 C2		    lsr $C2
  3614 7ED6 38			    sec
  3615 7ED7 A9 08		    lda #$08
  3616 7ED9 E5 C2		    sbc $C2
  3617 7EDB 10 02		    bpl loc_7EDF
  3618 7EDD A9 00		    lda #$00
  3619 7EDF			loc_7EDF:
  3620 7EDF 8D 19 06		    sta $0619
  3621 7EE2 8A			    txa
  3622 7EE3 C9 10		    cmp #$10
  3623 7EE5 90 0E		    bcc loc_7EF5
  3624 7EE7 38			    sec
  3625 7EE8 E9 10		    sbc #$10
  3626 7EEA C9 20		    cmp #$20
  3627 7EEC 90 02		    bcc loc_7EF0
  3628 7EEE A9 1F		    lda #$1F
  3629 7EF0			loc_7EF0:
  3630 7EF0 8D 8B 08		    sta $088B
  3631 7EF3 A9 00		    lda #$00
  3632 7EF5			loc_7EF5:
  3633 7EF5 8D 08 06		    sta $0608
  3634 7EF8 60			    rts
  3635 7EF9			sub_7EF9:
  3636 7EF9 A0 08		    ldy #$08
  3637 7EFB			loc_7EFB:
  3638 7EFB B9 F8 7F		    lda $7FF8,y
  3639 7EFE 99 00 30		    sta $3000,y
  3640 7F01 99 20 31		    sta $3120,y
  3641 7F04 99 6B 31		    sta $316B,y
  3642 7F07 99 10 32		    sta $3210,y
  3643 7F0A B9 F2 7F		    lda $7FF2,y
  3644 7F0D 99 0B 31		    sta $310B,y
  3645 7F10 99 56 31		    sta $3156,y
  3646 7F13 88			    dey
  3647 7F14 10 E5		    bpl loc_7EFB
  3648 7F16 A0 0E		    ldy #$0E
  3649 7F18			loc_7F18:
  3650 7F18 B9 01 80		    lda $8001,y
  3651 7F1B 99 11 31		    sta $3111,y
  3652 7F1E 99 5C 31		    sta $315C,y
  3653 7F21 99 01 32		    sta $3201,y
  3654 7F24 99 A6 32		    sta $32A6,y
  3655 7F27 88			    dey
  3656 7F28 10 EE		    bpl loc_7F18
  3657 7F2A A0 87		    ldy #$87
  3658 7F2C A9 4D		    lda #$4D
  3659 7F2E			loc_7F2E:
  3660 7F2E 99 74 31		    sta $3174,y
  3661 7F31 99 19 32		    sta $3219,y
  3662 7F34 88			    dey
  3663 7F35 C0 FF		    cpy #$FF
  3664 7F37 D0 F5		    bne loc_7F2E
  3665 7F39 8D 29 31		    sta $3129
  3666 7F3C A9 00		    lda #$00
  3667 7F3E 8D 2A 31		    sta $312A
  3668 7F41 A9 10		    lda #$10
  3669 7F43 8D 2B 31		    sta $312B
  3670 7F46 A0 7E		    ldy #$7E
  3671 7F48 A9 4F		    lda #$4F
  3672 7F4A			loc_7F4A:
  3673 7F4A 99 09 30		    sta $3009,y
  3674 7F4D 99 8A 30		    sta $308A,y
  3675 7F50 88			    dey
  3676 7F51 88			    dey
  3677 7F52 88			    dey
  3678 7F53 10 F5		    bpl loc_7F4A
  3679 7F55 A0 28		    ldy #$28
  3680 7F57 A9 0D		    lda #$0D
  3681 7F59			loc_7F59:
  3682 7F59 99 2C 31		    sta $312C,y
  3683 7F5C 88			    dey
  3684 7F5D 10 FA		    bpl loc_7F59
  3685 7F5F A9 CF		    lda #$CF
  3686 7F61 8D 6F 30		    sta $306F
  3687 7F64 8D ED 30		    sta $30ED
  3688 7F67 8D F9 30		    sta $30F9
  3689 7F6A 8D 05 31		    sta $3105
  3690 7F6D A9 8D		    lda #$8D
  3691 7F6F 8D 08 30		    sta $3008
  3692 7F72 8D 28 31		    sta $3128
  3693 7F75 8D 3C 31		    sta $313C
  3694 7F78 8D 51 31		    sta $3151
  3695 7F7B 8D 55 31		    sta $3155
  3696 7F7E A9 84		    lda #$84
  3697 7F80 8D 07 30		    sta $3007
  3698 7F83 A9 CD		    lda #$CD
  3699 7F85 8D F2 31		    sta $31F2
  3700 7F88 8D FE 31		    sta $31FE
  3701 7F8B 8D 97 32		    sta $3297
  3702 7F8E 8D A3 32		    sta $32A3
  3703 7F91 A9 00		    lda #$00
  3704 7F93 8D 1E 31		    sta $311E
  3705 7F96 A9 30		    lda #$30
  3706 7F98 8D 1F 31		    sta $311F
  3707 7F9B A9 20		    lda #$20
  3708 7F9D 8D 69 31		    sta $3169
  3709 7FA0 A9 31		    lda #$31
  3710 7FA2 8D 6A 31		    sta $316A
  3711 7FA5 A9 6B		    lda #$6B
  3712 7FA7 8D 0E 32		    sta $320E
  3713 7FAA A9 31		    lda #$31
  3714 7FAC 8D 0F 32		    sta $320F
  3715 7FAF A9 10		    lda #$10
  3716 7FB1 8D B3 32		    sta $32B3
  3717 7FB4 A9 32		    lda #$32
  3718 7FB6 8D B4 32		    sta $32B4
  3719 7FB9 A9 60		    lda #$60
  3720 7FBB 85 C2		    sta $C2
  3721 7FBD A9 70		    lda #$70
  3722 7FBF 85 C4		    sta $C4
  3723 7FC1 A9 10		    lda #$10
  3724 7FC3 85 C5		    sta $C5
  3725 7FC5 20 0A 7B		    jsr build_line_table
  3726 7FC8 A9 75		    lda #$75
  3727 7FCA 85 C6		    sta $C6
  3728 7FCC A9 31		    lda #$31
  3729 7FCE 85 C7		    sta $C7
  3730 7FD0 A9 00		    lda #$00
  3731 7FD2 8D DB 08		    sta $08DB
  3732 7FD5 A9 2F		    lda #$2F
  3733 7FD7 85 86		    sta $86
  3734 7FD9 20 FA 5D		    jsr sub_5DFA
  3735 7FDC A9 A0		    lda #$A0
  3736 7FDE 85 C4		    sta $C4
  3737 7FE0 A9 10		    lda #$10
  3738 7FE2 85 C5		    sta $C5
  3739 7FE4 20 0A 7B		    jsr build_line_table
  3740 7FE7 A9 1A		    lda #$1A
  3741 7FE9 85 C6		    sta $C6
  3742 7FEB A9 32		    lda #$32
  3743 7FED 85 C7		    sta $C7
  3744 7FEF 4C FA 5D		    jmp sub_5DFA
  3745 7FF2 CD 0D 35 0D 0D 8D +     .byte $CD,$0D,$35,$0D,$0D,$8D,$70,$70,$30,$C6,$B5,$32,$30,$04,$90,$44 ; $7FF2
  3746 8002 2D 33 04 04 04 04 +     .byte $2D,$33,$04,$04,$04,$04,$04,$04,$84,$04,$04,$41  ; $8002
  3747 800E			sub_800E:
  3748 800E A2 00		    ldx #$00
  3749 8010			loc_8010:
  3750 8010 8A			    txa
  3751 8011 A0 04		    ldy #$04
  3752 8013 84 C2		    sty $C2
  3753 8015			loc_8015:
  3754 8015 48			    pha
  3755 8016 29 03		    and #$03
  3756 8018 A8			    tay
  3757 8019 B9 3A 80		    lda $803A,y
  3758 801C 4A			    lsr
  3759 801D 7E 00 BE		    ror $BE00,x
  3760 8020 4A			    lsr
  3761 8021 7E 00 BE		    ror $BE00,x
  3762 8024 B9 3E 80		    lda $803E,y
  3763 8027 4A			    lsr
  3764 8028 7E 00 BF		    ror $BF00,x
  3765 802B 4A			    lsr
  3766 802C 7E 00 BF		    ror $BF00,x
  3767 802F 68			    pla
  3768 8030 4A			    lsr
  3769 8031 4A			    lsr
  3770 8032 C6 C2		    dec $C2
  3771 8034 D0 DF		    bne loc_8015
  3772 8036 E8			    inx
  3773 8037 D0 D7		    bne loc_8010
  3774 8039 60			    rts
  3775 803A 03 00 00 00 00 00 +     .byte $03,$00,$00,$00,$00,$00,$00,$03                  ; $803A
  3776 8042			sub_8042:
  3777 8042 A0 00		    ldy #$00
  3778 8044 A9 80		    lda #$80
  3779 8046			loc_8046:
  3780 8046 99 00 BC		    sta $BC00,y
  3781 8049 4A			    lsr
  3782 804A 4A			    lsr
  3783 804B 90 01		    bcc loc_804E
  3784 804D 6A			    ror
  3785 804E			loc_804E:
  3786 804E C8			    iny
  3787 804F D0 F5		    bne loc_8046
  3788 8051 98			    tya
  3789 8052			loc_8052:
  3790 8052 99 00 BD		    sta $BD00,y
  3791 8055 C8			    iny
  3792 8056 D0 FA		    bne loc_8052
  3793 8058 60			    rts
  3794 8059			gameplay_vbi:
  3795 				    ; Reset DLI counter, clear player sizes
  3796 8059 A9 00		    lda #$00
  3797 805B 85 C8		    sta $C8
  3798 805D 8D 08 D0		    sta SIZEP0
  3799 8060 8D 09 D0		    sta SIZEP1
  3800 				    ; Set CHBASE to  (ROM charset for HUD text)
  3801 8063 A9 E0		    lda #$E0
  3802 8065 8D 09 D4		    sta CHBASE
  3803 				    ; Set sky/background colors from palette at -
  3804 8068 A5 D5		    lda FR0M
  3805 806A 8D 1A D0		    sta COLBK
  3806 806D 8D 12 D0		    sta COLPM0
  3807 8070 8D 13 D0		    sta COLPM1
  3808 8073 AD 50 28		    lda $2850
  3809 8076 8D 14 D0		    sta COLPM2
  3810 8079 A5 D9		    lda QTEMP
  3811 807B 8D 16 D0		    sta COLPF0
  3812 807E A5 D8		    lda $D8
  3813 8080 8D 17 D0		    sta COLPF1
  3814 8083 A5 DA		    lda FRE
  3815 8085 8D 15 D0		    sta COLPM3
  3816 8088 A5 CC		    lda $CC
  3817 808A 8D 02 D0		    sta HPOSP2
  3818 808D A5 CE		    lda $CE
  3819 808F 8D 0A D0		    sta SIZEP2
  3820 8092 AD 77 28		    lda $2877
  3821 8095 8D 03 D0		    sta HPOSP3
  3822 8098 AD 6F 02		    lda GPRIOR
  3823 809B 8D 1B D0		    sta PRIOR
  3824 				    ; Frame counter + attract mode color cycling
  3825 809E E6 14		    inc $14
  3826 80A0 D0 23		    bne loc_80C5
  3827 80A2 AD 32 06		    lda $0632
  3828 80A5 0D A5 28		    ora $28A5
  3829 80A8 F0 1B		    beq loc_80C5
  3830 80AA E6 12		    inc RTCLOK
  3831 80AC EE 31 06		    inc $0631
  3832 80AF 10 14		    bpl loc_80C5
  3833 80B1 A9 80		    lda #$80
  3834 80B3 8D 31 06		    sta $0631
  3835 80B6 A0 0E		    ldy #$0E
  3836 80B8			loc_80B8:
  3837 80B8 B9 41 07		    lda $0741,y
  3838 80BB 45 12		    eor RTCLOK
  3839 80BD 29 F6		    and #$F6
  3840 80BF 99 D0 00		    sta $00D0,y
  3841 80C2 88			    dey
  3842 80C3 10 F3		    bpl loc_80B8
  3843 80C5			loc_80C5:
  3844 				    ; Position 3 missiles for targeting crosshair (spaced 12+5 px)
  3845 80C5 18			    clc
  3846 80C6 AD 44 28		    lda $2844
  3847 80C9 8D 07 D0		    sta HPOSM3
  3848 80CC 69 0C		    adc #$0C
  3849 80CE 8D 06 D0		    sta HPOSM2
  3850 80D1 69 05		    adc #$05
  3851 80D3 8D 05 D0		    sta HPOSM1
  3852 80D6 A9 CC		    lda #$CC
  3853 80D8 8D 0C D0		    sta SIZEM
  3854 				    ; Display list swap based on game state 
  3855 80DB AD 26 06		    lda $0626
  3856 80DE F0 25		    beq loc_8105
  3857 80E0 A5 A7		    lda $A7
  3858 80E2 F0 21		    beq loc_8105
  3859 80E4 A5 A7		    lda $A7
  3860 80E6 C9 01		    cmp #$01
  3861 80E8 D0 0D		    bne loc_80F7
  3862 80EA A9 6B		    lda #$6B
  3863 80EC 8D 02 D4		    sta DLISTL
  3864 80EF A9 31		    lda #$31
  3865 80F1 8D 03 D4		    sta DLISTH
  3866 80F4 4C 01 81		    jmp loc_8101
  3867 80F7			loc_80F7:
  3868 80F7 A9 10		    lda #$10
  3869 80F9 8D 02 D4		    sta DLISTL
  3870 80FC A9 32		    lda #$32
  3871 80FE 8D 03 D4		    sta DLISTH
  3872 8101			loc_8101:
  3873 8101 A9 00		    lda #$00
  3874 8103 85 A7		    sta $A7
  3875 8105			loc_8105:
  3876 8105 CE 42 06		    dec $0642
  3877 8108 D0 03		    bne loc_810D
  3878 810A 4C 9B 81		    jmp loc_819B
  3879 810D			loc_810D:
  3880 810D A5 DA		    lda FRE
  3881 810F 4A			    lsr
  3882 8110 90 07		    bcc loc_8119
  3883 8112 E9 01		    sbc #$01
  3884 8114 C9 4B		    cmp #$4B
  3885 8116 4C 1D 81		    jmp loc_811D
  3886 8119			loc_8119:
  3887 8119 69 01		    adc #$01
  3888 811B C9 4E		    cmp #$4E
  3889 811D			loc_811D:
  3890 811D 2A			    rol
  3891 811E 85 DA		    sta FRE
  3892 8120 AE 4E 28		    ldx $284E
  3893 8123 F0 08		    beq loc_812D
  3894 8125 AD 32 06		    lda $0632
  3895 8128 D0 03		    bne loc_812D
  3896 812A 20 0A 79		    jsr sub_790A
  3897 812D			loc_812D:
  3898 812D AD 26 06		    lda $0626
  3899 8130 F0 46		    beq loc_8178
  3900 8132 AD 23 28		    lda $2823
  3901 8135 30 06		    bmi loc_813D
  3902 8137 20 C2 45		    jsr sub_45C5
  3903 813A 4C 47 81		    jmp loc_8147
  3904 813D			loc_813D:
  3905 813D C9 FF		    cmp #$FF
  3906 813F D0 03		    bne loc_8144
  3907 8141 20 C2 45		    jsr sub_45C5
  3908 8144			loc_8144:
  3909 8144 20 89 47		    jsr sub_478C
  3910 8147			loc_8147:
  3911 8147 20 27 43		    jsr sub_432A
  3912 814A AD 82 28		    lda $2882
  3913 814D 10 21		    bpl loc_8170
  3914 814F CE 1B 28		    dec $281B
  3915 8152 A9 08		    lda #$08
  3916 8154 2C 1B 28		    bit $281B
  3917 8157 D0 0D		    bne loc_8166
  3918 8159 A9 35		    lda #$35
  3919 815B 8D 56 33		    sta $3356
  3920 815E A9 36		    lda #$36
  3921 8160 8D 57 33		    sta $3357
  3922 8163 4C 70 81		    jmp loc_8170
  3923 8166			loc_8166:
  3924 8166 A9 B5		    lda #$B5
  3925 8168 8D 56 33		    sta $3356
  3926 816B A9 B6		    lda #$B6
  3927 816D 8D 57 33		    sta $3357
  3928 8170			loc_8170:
  3929 8170 AD 7F 28		    lda $287F
  3930 8173 F0 03		    beq loc_8178
  3931 8175 20 7A 44		    jsr sub_447D
  3932 8178			loc_8178:
  3933 8178 AD 36 06		    lda $0636
  3934 817B 30 0B		    bmi loc_8188
  3935 817D CE 36 06		    dec $0636
  3936 8180 10 03		    bpl loc_8185
  3937 8182 20 36 4B		    jsr sub_4B39
  3938 8185			loc_8185:
  3939 8185 4C 90 81		    jmp loc_8190
  3940 8188			loc_8188:
  3941 8188 AC 35 06		    ldy $0635
  3942 818B F0 03		    beq loc_8190
  3943 818D 20 E4 4A		    jsr sub_4AE7
  3944 8190			loc_8190:
  3945 8190 AD 39 06		    lda $0639
  3946 8193 F0 03		    beq loc_8198
  3947 8195 20 8E 4C		    jsr sub_4C91
  3948 8198			loc_8198:
  3949 8198 4C 9F 82		    jmp loc_829F
  3950 819B			loc_819B:
  3951 819B 20 45 45		    jsr sub_4548
  3952 819E A9 02		    lda #$02
  3953 81A0 8D 42 06		    sta $0642
  3954 81A3 AC 1C 06		    ldy $061C
  3955 81A6 F0 0C		    beq loc_81B4
  3956 81A8 AC 3C 28		    ldy $283C
  3957 81AB D0 26		    bne loc_81D3
  3958 81AD AC 26 06		    ldy $0626
  3959 81B0 D0 48		    bne loc_81FA
  3960 81B2 F0 5A		    beq loc_820E
  3961 81B4			loc_81B4:
  3962 81B4 AC 32 06		    ldy $0632
  3963 81B7 D0 44		    bne loc_81FD
  3964 81B9 CD 26 06		    cmp $0626
  3965 81BC D0 50		    bne loc_820E
  3966 81BE AD 10 D0		    lda TRIG0
  3967 81C1 D0 37		    bne loc_81FA
  3968 81C3 AD A5 28		    lda $28A5
  3969 81C6 F0 0B		    beq loc_81D3
  3970 81C8 8D 36 06		    sta $0636
  3971 81CB A9 4F		    lda #$4F
  3972 81CD 8D 35 06		    sta $0635
  3973 81D0 4C FA 81		    jmp loc_81FA
  3974 81D3			loc_81D3:
  3975 81D3 AD 4E 28		    lda $284E
  3976 81D6 D0 22		    bne loc_81FA
  3977 81D8 A9 7C		    lda #$7C
  3978 81DA 8D 51 28		    sta $2851
  3979 81DD A9 00		    lda #$00
  3980 81DF 8D 71 28		    sta $2871
  3981 81E2 8D 52 28		    sta $2852
  3982 81E5 8D 3C 28		    sta $283C
  3983 81E8 A9 78		    lda #$78
  3984 81EA 8D 50 28		    sta $2850
  3985 81ED A9 0C		    lda #$0C
  3986 81EF 8D 73 28		    sta $2873
  3987 81F2 A9 01		    lda #$01
  3988 81F4 8D 72 28		    sta $2872
  3989 81F7 8D 4E 28		    sta $284E
  3990 81FA			loc_81FA:
  3991 81FA 20 3E 44		    jsr sub_4441
  3992 81FD			loc_81FD:
  3993 81FD A2 FF		    ldx #$FF
  3994 81FF 58			    cli
  3995 8200 78			    sei
  3996 8201 8A			    txa
  3997 8202 30 0A		    bmi loc_820E
  3998 8204 20 53 49		    jsr sub_4956
  3999 8207 A6 E0		    ldx FR1
  4000 8209 F0 03		    beq loc_820E
  4001 820B 20 AA 94		    jsr sub_94AA
  4002 820E			loc_820E:
  4003 				    ; Dispatch rendering pipeline if gameplay active
  4004 820E AD 26 06		    lda $0626
  4005 8211 D0 03		    bne loc_8216
  4006 8213 4C 9F 82		    jmp loc_829F
  4007 8216			loc_8216:
  4008 8216 20 30 85		    jsr sub_8530
  4009 8219 20 A9 97		    jsr sub_97A9
  4010 821C AD AC 28		    lda $28AC
  4011 821F D0 4D		    bne loc_826E
  4012 8221 AD 31 06		    lda $0631
  4013 8224 30 48		    bmi loc_826E
  4014 8226 38			    sec
  4015 8227 AD A0 28		    lda $28A0
  4016 822A E9 32		    sbc #$32
  4017 822C 90 0A		    bcc loc_8238
  4018 822E 4A			    lsr
  4019 822F C9 07		    cmp #$07
  4020 8231 90 02		    bcc loc_8235
  4021 8233 A9 06		    lda #$06
  4022 8235			loc_8235:
  4023 8235 4C 3A 82		    jmp loc_823A
  4024 8238			loc_8238:
  4025 8238 A9 00		    lda #$00
  4026 823A			loc_823A:
  4027 823A 18			    clc
  4028 823B 6D 89 08		    adc $0889
  4029 823E A8			    tay
  4030 823F B9 FD 07		    lda $07FD,y
  4031 8242 85 DB		    sta $DB
  4032 8244 B9 20 08		    lda $0820,y
  4033 8247 85 DD		    sta $DD
  4034 8249 B9 43 08		    lda $0843,y
  4035 824C 85 DC		    sta $DC
  4036 824E B9 66 08		    lda $0866,y
  4037 8251 85 DE		    sta $DE
  4038 8253 AD 08 06		    lda $0608
  4039 8256 D0 03		    bne loc_825B
  4040 8258 CE 8A 08		    dec $088A
  4041 825B			loc_825B:
  4042 825B D0 11		    bne loc_826E
  4043 825D EE 8B 08		    inc $088B
  4044 8260 AD 8B 08		    lda $088B
  4045 8263 4A			    lsr
  4046 8264 4A			    lsr
  4047 8265 29 0F		    and #$0F
  4048 8267 A8			    tay
  4049 8268 B9 4D 52		    lda $524D,y
  4050 826B 8D 89 08		    sta $0889
  4051 826E			loc_826E:
  4052 826E 20 BD 43		    jsr sub_43C0
  4053 8271 20 F2 43		    jsr sub_43F5
  4054 8274 20 0B 43		    jsr sub_430E
  4055 8277 20 E3 46		    jsr sub_46E6
  4056 827A 20 F8 47		    jsr sub_47FB
  4057 827D CE 5E 06		    dec $065E
  4058 8280 D0 1D		    bne loc_829F
  4059 8282 AD 4D 28		    lda $284D
  4060 8285 F0 08		    beq loc_828F
  4061 8287 CE 4D 28		    dec $284D
  4062 828A D0 03		    bne loc_828F
  4063 828C 20 A9 65		    jsr sub_65A9
  4064 828F			loc_828F:
  4065 828F AD 1D 06		    lda $061D
  4066 8292 F0 06		    beq loc_829A
  4067 8294 EE 38 06		    inc $0638
  4068 8297 20 8E 4C		    jsr sub_4C91
  4069 829A			loc_829A:
  4070 829A A9 1E		    lda #$1E
  4071 829C 8D 5E 06		    sta $065E
  4072 829F			loc_829F:
  4073 829F AD 32 06		    lda $0632
  4074 82A2 D0 0E		    bne loc_82B2
  4075 82A4 20 B5 82		    jsr sub_82B5
  4076 82A7 20 19 91		    jsr sub_9119
  4077 82AA			vbi_deferred:
  4078 82AA AD 54 06		    lda $0654
  4079 82AD F0 03		    beq loc_82B2
  4080 82AF 20 6E 96		    jsr sub_966E
  4081 82B2			loc_82B2:
  4082 82B2 4C 62 E4		    jmp loc_E462
  4083 82B5			sub_82B5:
  4084 82B5 AD 42 28		    lda $2842
  4085 82B8 D0 01		    bne loc_82BB
  4086 82BA 60			    rts
  4087 82BB			loc_82BB:
  4088 82BB AD 5F 06		    lda $065F
  4089 82BE C9 02		    cmp #$02
  4090 82C0 F0 44		    beq loc_8306
  4091 82C2 AD 2A 28		    lda $282A
  4092 82C5 30 3F		    bmi loc_8306
  4093 82C7 49 7F		    eor #$7F
  4094 82C9 4A			    lsr
  4095 82CA 4A			    lsr
  4096 82CB 38			    sec
  4097 82CC E9 10		    sbc #$10
  4098 82CE 8D 42 28		    sta $2842
  4099 82D1 AD 2D 28		    lda $282D
  4100 82D4 85 BE		    sta $BE
  4101 82D6 AD 2C 28		    lda $282C
  4102 82D9 20 29 83		    jsr sub_8329
  4103 82DC 85 BC		    sta $BC
  4104 82DE AD 30 28		    lda $2830
  4105 82E1 85 BE		    sta $BE
  4106 82E3 AD 2F 28		    lda $282F
  4107 82E6 20 29 83		    jsr sub_8329
  4108 82E9 18			    clc
  4109 82EA 65 BC		    adc $BC
  4110 82EC 85 BC		    sta $BC
  4111 82EE 38			    sec
  4112 82EF A9 0F		    lda #$0F
  4113 82F1 E5 BC		    sbc $BC
  4114 82F3 18			    clc
  4115 82F4 6D 42 28		    adc $2842
  4116 82F7 10 02		    bpl loc_82FB
  4117 82F9 A9 00		    lda #$00
  4118 82FB			loc_82FB:
  4119 82FB 4A			    lsr
  4120 82FC 4A			    lsr
  4121 82FD 18			    clc
  4122 82FE 69 02		    adc #$02
  4123 8300 8D 42 28		    sta $2842
  4124 8303 4C 0F 83		    jmp loc_830F
  4125 8306			loc_8306:
  4126 8306 A5 14		    lda $14
  4127 8308 29 0F		    and #$0F
  4128 830A D0 03		    bne loc_830F
  4129 830C CE 42 28		    dec $2842
  4130 830F			loc_830F:
  4131 830F AD 42 28		    lda $2842
  4132 8312 8D 75 06		    sta $0675
  4133 8315 A9 A0		    lda #$A0
  4134 8317 8D 67 06		    sta $0667
  4135 831A A5 14		    lda $14
  4136 831C 29 05		    and #$05
  4137 831E 18			    clc
  4138 831F 69 02		    adc #$02
  4139 8321 8D 83 06		    sta $0683
  4140 8324 A0 08		    ldy #$08
  4141 8326 4C 90 92		    jmp sub_9290
  4142 8329			sub_8329:
  4143 8329 46 BE		    lsr $BE
  4144 832B 6A			    ror
  4145 832C 46 BE		    lsr $BE
  4146 832E 6A			    ror
  4147 832F 46 BE		    lsr $BE
  4148 8331 6A			    ror
  4149 8332 46 BE		    lsr $BE
  4150 8334 6A			    ror
  4151 8335 38			    sec
  4152 8336 E9 08		    sbc #$08
  4153 8338 10 05		    bpl loc_833F
  4154 833A 49 FF		    eor #$FF
  4155 833C 18			    clc
  4156 833D 69 01		    adc #$01
  4157 833F			loc_833F:
  4158 833F 60			    rts
  4159 8340			sub_8340:
  4160 8340 A9 00		    lda #$00
  4161 8342 8D 42 28		    sta $2842
  4162 8345 4C 0F 83		    jmp loc_830F
  4163 8348 4C 48 83 A9 00 85 +     .byte $4C,$48,$83,$A9,$00,$85,$C8,$A9,$E0,$8D,$09,$D4,$A5,$D9,$8D,$16 ; $8348
  4164 8358 D0 AD C7 02 8D 19 +     .byte $D0,$AD,$C7,$02,$8D,$19,$D0,$AD,$C8,$02,$8D,$1A,$D0,$A9,$78,$8D ; $8358
  4165 8368 17 D0 AD C0 02 8D +     .byte $17,$D0,$AD,$C0,$02,$8D,$12,$D0,$AD,$C1,$02,$8D,$13,$D0,$AD,$C2 ; $8368
  4166 8378 02 8D 14 D0 AD C3 +     .byte $02,$8D,$14,$D0,$AD,$C3,$02,$8D,$15,$D0,$A5,$B6,$8D,$01,$D0,$AD ; $8378
  4167 8388 6F 02 8D 1B D0 A9 +     .byte $6F,$02,$8D,$1B,$D0,$A9,$3B,$8D,$06,$D0,$A9,$39,$8D,$07,$D0,$A9 ; $8388
  4168 8398 C5 8D 04 D0 A9 C3 +     .byte $C5,$8D,$04,$D0,$A9,$C3,$8D,$05,$D0,$E6,$14,$E6,$12,$D0,$02,$E6 ; $8398
  4169 83A8 4D 20 F8 83 20 BD +     .byte $4D,$20,$F8,$83,$20,$BD,$83,$4E,$42,$06,$D0,$06,$20,$48,$45,$EE ; $83A8
  4170 83B8 42 06 4C A7 82 AD +     .byte $42,$06,$4C,$A7,$82,$AD,$DD,$08,$F0,$03,$4C,$A1,$5E,$AD,$D8,$08 ; $83B8
  4171 83C8 F0 03 4C 45 5E AD +     .byte $F0,$03,$4C,$45,$5E,$AD,$D9,$08,$F0,$03,$4C,$16,$5F,$AD,$DB,$08 ; $83C8
  4172 83D8 F0 03 4C EB 5D CE +     .byte $F0,$03,$4C,$EB,$5D,$CE,$CC,$08,$D0,$15,$A9,$02,$8D,$CC,$08,$AD ; $83D8
  4173 83E8 DC 08 F0 03 20 32 +     .byte $DC,$08,$F0,$03,$20,$32,$5E,$AD,$DA,$08,$F0,$03,$4C,$50,$5D,$60 ; $83E8
  4174 83F8			update_pmg:
  4175 83F8 A2 FF		    ldx #$FF
  4176 83FA 58			    cli
  4177 83FB 78			    sei
  4178 83FC 8A			    txa
  4179 83FD 30 07		    bmi loc_8406
  4180 83FF C9 34		    cmp #$34
  4181 8401 D0 03		    bne loc_8406
  4182 8403 4C 85 49		    jmp loc_4988
  4183 8406			loc_8406:
  4184 8406 8E 23 06		    stx $0623
  4185 8409 60			    rts
  4186 840A			vbi_handler:
  4187 840A AD 2F 02		    lda SDMCTL
  4188 840D 8D 00 D4		    sta DMACTL
  4189 8410 E6 14		    inc $14
  4190 8412 EE 22 06		    inc $0622
  4191 8415 D0 04		    bne loc_841B
  4192 8417 E6 4D		    inc ATRACT
  4193 8419 E6 13		    inc $13
  4194 841B			loc_841B:
  4195 841B A4 4D		    ldy ATRACT
  4196 841D 10 04		    bpl loc_8423
  4197 841F A0 80		    ldy #$80
  4198 8421 84 4D		    sty ATRACT
  4199 8423			loc_8423:
  4200 8423 A2 04		    ldx #$04
  4201 8425			loc_8425:
  4202 8425 BD C4 02		    lda COLOR0,x
  4203 8428 C0 80		    cpy #$80
  4204 842A 90 04		    bcc loc_8430
  4205 842C 45 13		    eor $13
  4206 842E 29 F6		    and #$F6
  4207 8430			loc_8430:
  4208 8430 9D 16 D0		    sta COLPF0,x
  4209 8433 CA			    dex
  4210 8434 10 EF		    bpl loc_8425
  4211 8436 20 F8 83		    jsr update_pmg
  4212 8439 4C AA 82		    jmp vbi_deferred
  4213 843C			init_terrain:
  4214 				    ; Fill 256-byte terrain buffer with random unresolved heights (bit 7 set)
  4215 843C A0 00		    ldy #$00
  4216 843E A2 00		    ldx #$00
  4217 8440			loc_8440:
  4218 8440 AD 0A D2		    lda RANDOM
  4219 8443 29 3F		    and #$3F
  4220 8445 09 80		    ora #$80
  4221 8447 9D 00 09		    sta terrain_height_buf,x
  4222 844A E8			    inx
  4223 844B 88			    dey
  4224 844C D0 F2		    bne loc_8440
  4225 				    ; Start fractal subdivision: depth=1, random seed position
  4226 844E A0 01		    ldy #$01
  4227 8450 84 98		    sty $98
  4228 8452 AD 0A D2		    lda RANDOM
  4229 8455 85 9C		    sta $9C
  4230 8457 AA			    tax
  4231 8458 AD 0A D2		    lda RANDOM
  4232 845B 29 3F		    and #$3F
  4233 845D 9D 00 09		    sta terrain_height_buf,x
  4234 8460			loc_8460:
  4235 				    ; Main subdivision loop: check neighbors, random walk, place heights
  4236 8460 A5 98		    lda $98
  4237 8462 85 99		    sta $99
  4238 8464 20 E6 84		    jsr terrain_step
  4239 8467 A5 98		    lda $98
  4240 8469 C5 99		    cmp $99
  4241 846B F0 48		    beq loc_84B5
  4242 846D			loc_846D:
  4243 846D 2C 0A D2		    bit RANDOM
  4244 8470 50 0E		    bvc loc_8480
  4245 8472 30 06		    bmi loc_847A
  4246 8474 A9 10		    lda #$10
  4247 8476 A2 FF		    ldx #$FF
  4248 8478 D0 12		    bne loc_848C
  4249 847A			loc_847A:
  4250 847A A9 F0		    lda #$F0
  4251 847C A2 01		    ldx #$01
  4252 847E D0 0C		    bne loc_848C
  4253 8480			loc_8480:
  4254 8480 30 06		    bmi loc_8488
  4255 8482 A9 01		    lda #$01
  4256 8484 A2 10		    ldx #$10
  4257 8486 D0 04		    bne loc_848C
  4258 8488			loc_8488:
  4259 8488 A9 FF		    lda #$FF
  4260 848A A2 F0		    ldx #$F0
  4261 848C			loc_848C:
  4262 848C 85 9A		    sta $9A
  4263 848E 86 9B		    stx $9B
  4264 8490 20 C4 84		    jsr sub_84C4
  4265 8493 10 D8		    bpl loc_846D
  4266 8495 A5 9C		    lda $9C
  4267 8497 18			    clc
  4268 8498 65 9A		    adc $9A
  4269 849A AA			    tax
  4270 849B AD 0A D2		    lda RANDOM
  4271 849E 29 3F		    and #$3F
  4272 84A0 9D 00 09		    sta terrain_height_buf,x
  4273 84A3 8A			    txa
  4274 84A4 18			    clc
  4275 84A5 65 9A		    adc $9A
  4276 84A7 AA			    tax
  4277 84A8 AD 0A D2		    lda RANDOM
  4278 84AB 29 3F		    and #$3F
  4279 84AD 9D 00 09		    sta terrain_height_buf,x
  4280 84B0 86 9C		    stx $9C
  4281 84B2 4C 60 84		    jmp loc_8460
  4282 84B5			loc_84B5:
  4283 				    ; Depth decreased — pop from recursion stack at 4BE or return if done
  4284 84B5 C6 98		    dec $98
  4285 84B7 D0 01		    bne loc_84BA
  4286 84B9 60			    rts
  4287 84BA			loc_84BA:
  4288 84BA A6 98		    ldx $98
  4289 84BC BD BE 24		    lda terrain_stack,x
  4290 84BF 85 9C		    sta $9C
  4291 84C1 4C 60 84		    jmp loc_8460
  4292 84C4			sub_84C4:
  4293 				    ; L-shaped neighbor chain check — returns negative if all unresolved
  4294 84C4 A5 9C		    lda $9C
  4295 84C6 18			    clc
  4296 84C7 65 9A		    adc $9A
  4297 84C9 AA			    tax
  4298 84CA BD 00 09		    lda terrain_height_buf,x
  4299 84CD 10 14		    bpl loc_84E3
  4300 84CF 8A			    txa
  4301 84D0 18			    clc
  4302 84D1 65 9A		    adc $9A
  4303 84D3 A8			    tay
  4304 84D4 B9 00 09		    lda terrain_height_buf,y
  4305 84D7 10 0A		    bpl loc_84E3
  4306 84D9 8A			    txa
  4307 84DA 18			    clc
  4308 84DB 65 9B		    adc $9B
  4309 84DD AA			    tax
  4310 84DE BD 00 09		    lda terrain_height_buf,x
  4311 84E1 30 02		    bmi loc_84E5
  4312 84E3			loc_84E3:
  4313 84E3 A9 00		    lda #$00
  4314 84E5			loc_84E5:
  4315 84E5 60			    rts
  4316 84E6			terrain_step:
  4317 				    ; Check 4 cardinal neighbors: (+1,+16) (-1,-16) (+16,-1) (-16,+1)
  4318 84E6 A9 01		    lda #$01
  4319 84E8 85 9A		    sta $9A
  4320 84EA A9 10		    lda #$10
  4321 84EC 85 9B		    sta $9B
  4322 84EE 20 C4 84		    jsr sub_84C4
  4323 84F1 10 03		    bpl loc_84F6
  4324 84F3 20 26 85		    jsr sub_8526
  4325 84F6			loc_84F6:
  4326 84F6 A9 FF		    lda #$FF
  4327 84F8 85 9A		    sta $9A
  4328 84FA A9 F0		    lda #$F0
  4329 84FC 85 9B		    sta $9B
  4330 84FE 20 C4 84		    jsr sub_84C4
  4331 8501 10 03		    bpl loc_8506
  4332 8503 20 26 85		    jsr sub_8526
  4333 8506			loc_8506:
  4334 8506 A9 10		    lda #$10
  4335 8508 85 9A		    sta $9A
  4336 850A A9 FF		    lda #$FF
  4337 850C 85 9B		    sta $9B
  4338 850E 20 C4 84		    jsr sub_84C4
  4339 8511 10 03		    bpl loc_8516
  4340 8513 20 26 85		    jsr sub_8526
  4341 8516			loc_8516:
  4342 8516 A9 F0		    lda #$F0
  4343 8518 85 9A		    sta $9A
  4344 851A A9 01		    lda #$01
  4345 851C 85 9B		    sta $9B
  4346 851E 20 C4 84		    jsr sub_84C4
  4347 8521 10 02		    bpl loc_8525
  4348 8523 30 01		    bmi sub_8526
  4349 8525			loc_8525:
  4350 8525 60			    rts
  4351 8526			sub_8526:
  4352 				    ; Push current seed to recursion stack, increment depth
  4353 8526 A6 98		    ldx $98
  4354 8528 A5 9C		    lda $9C
  4355 852A 9D BE 24		    sta terrain_stack,x
  4356 852D E6 98		    inc $98
  4357 852F 60			    rts
    24
    25 				; === Segment 4: $8530-$B7E6 Game code + data: rendering, tables, level data ===
    26 8530 30 85 E6 B7		    org [a($8530),a($B7E6)],$8530
    27 8530			    icl 'seg_04_8530.asm'
Source: seg_04_8530.asm
     1 				; =============================================================
     2 				; Segment 4: $8530-$B7E6 — Game code + data: rendering, tables, level data
     3 				; =============================================================
     4 				; XEX load range: $8530-$B7E6 (12983 bytes)
     5
     6 8530			    org $8530
     7
     8 8530			sub_8530:
     9 8530 AD 26 06		    lda $0626
    10 8533 C9 02		    cmp #$02
    11 8535 D0 05		    bne loc_853C
    12 8537 AD A5 28		    lda $28A5
    13 853A F0 03		    beq loc_853F
    14 853C			loc_853C:
    15 853C 4C A7 85		    jmp loc_85A7
    16 853F			loc_853F:
    17 853F AD 87 28		    lda $2887
    18 8542 4A			    lsr
    19 8543 4A			    lsr
    20 8544 69 20		    adc #$20
    21 8546 8D 86 28		    sta $2886
    22 8549 AD 00 D3		    lda PORTA
    23 854C AA			    tax
    24 854D 29 04		    and #$04
    25 854F D0 0B		    bne loc_855C
    26 8551 AD 86 28		    lda $2886
    27 8554 49 FF		    eor #$FF
    28 8556 8D 86 28		    sta $2886
    29 8559 4C 66 85		    jmp loc_8566
    30 855C			loc_855C:
    31 855C 8A			    txa
    32 855D 29 08		    and #$08
    33 855F F0 05		    beq loc_8566
    34 8561 A9 00		    lda #$00
    35 8563 8D 86 28		    sta $2886
    36 8566			loc_8566:
    37 8566 AD 3D 29		    lda $293D
    38 8569 D0 05		    bne loc_8570
    39 856B A9 D0		    lda #$D0
    40 856D 4C A4 85		    jmp loc_85A4
    41 8570			loc_8570:
    42 8570 8A			    txa
    43 8571 29 01		    and #$01
    44 8573 D0 13		    bne loc_8588
    45 8575 A9 D0		    lda #$D0
    46 8577 AC 8E 28		    ldy $288E
    47 857A C0 F4		    cpy #$F4
    48 857C D0 07		    bne loc_8585
    49 857E AC 8D 28		    ldy $288D
    50 8581 D0 02		    bne loc_8585
    51 8583 A9 FF		    lda #$FF
    52 8585			loc_8585:
    53 8585 4C A4 85		    jmp loc_85A4
    54 8588			loc_8588:
    55 8588 8A			    txa
    56 8589 29 02		    and #$02
    57 858B D0 15		    bne loc_85A2
    58 858D A9 30		    lda #$30
    59 858F AC 8E 28		    ldy $288E
    60 8592 C0 0B		    cpy #$0B
    61 8594 D0 09		    bne loc_859F
    62 8596 AC 8D 28		    ldy $288D
    63 8599 C0 FF		    cpy #$FF
    64 859B D0 02		    bne loc_859F
    65 859D A9 01		    lda #$01
    66 859F			loc_859F:
    67 859F 4C A4 85		    jmp loc_85A4
    68 85A2			loc_85A2:
    69 85A2 A9 00		    lda #$00
    70 85A4			loc_85A4:
    71 85A4 8D 88 28		    sta $2888
    72 85A7			loc_85A7:
    73 85A7 AD 1C 06		    lda $061C
    74 85AA F0 03		    beq loc_85AF
    75 85AC 20 C9 8E		    jsr sub_8EC9
    76 85AF			loc_85AF:
    77 85AF AD 5F 06		    lda $065F
    78 85B2 C9 02		    cmp #$02
    79 85B4 D0 2C		    bne loc_85E2
    80 85B6 A9 30		    lda #$30
    81 85B8 8D 88 28		    sta $2888
    82 85BB AD 8C 28		    lda $288C
    83 85BE 8D 86 28		    sta $2886
    84 85C1 AD 8B 28		    lda $288B
    85 85C4 0A			    asl
    86 85C5 2E 86 28		    rol $2886
    87 85C8 0A			    asl
    88 85C9 2E 86 28		    rol $2886
    89 85CC 38			    sec
    90 85CD A9 00		    lda #$00
    91 85CF ED 86 28		    sbc $2886
    92 85D2 8D 86 28		    sta $2886
    93 85D5 A9 F0		    lda #$F0
    94 85D7 8D 87 28		    sta $2887
    95 85DA A9 00		    lda #$00
    96 85DC 20 69 47		    jsr sub_476C
    97 85DF 4C 36 86		    jmp loc_8636
    98 85E2			loc_85E2:
    99 85E2 AC A4 28		    ldy $28A4
   100 85E5 D0 36		    bne loc_861D
   101 85E7 C9 00		    cmp #$00
   102 85E9 D0 06		    bne loc_85F1
   103 85EB 20 DC 8B		    jsr sub_8BDC
   104 85EE 4C 1A 86		    jmp loc_861A
   105 85F1			loc_85F1:
   106 85F1 A9 01		    lda #$01
   107 85F3 CD 78 06		    cmp $0678
   108 85F6 F0 16		    beq loc_860E
   109 85F8 A9 00		    lda #$00
   110 85FA 8D 6E 06		    sta $066E
   111 85FD 8D 6F 06		    sta $066F
   112 8600 A0 01		    ldy #$01
   113 8602 20 90 92		    jsr sub_9290
   114 8605 C8			    iny
   115 8606 20 90 92		    jsr sub_9290
   116 8609 A9 01		    lda #$01
   117 860B 20 94 8E		    jsr sub_8E94
   118 860E			loc_860E:
   119 860E AD 8B 28		    lda $288B
   120 8611 8D 89 28		    sta $2889
   121 8614 AD 8C 28		    lda $288C
   122 8617 8D 8A 28		    sta $288A
   123 861A			loc_861A:
   124 861A 4C 36 86		    jmp loc_8636
   125 861D			loc_861D:
   126 861D AD 40 28		    lda $2840
   127 8620 D0 0F		    bne loc_8631
   128 8622 A0 01		    ldy #$01
   129 8624 8C 6E 06		    sty $066E
   130 8627 8C 6F 06		    sty $066F
   131 862A 20 90 92		    jsr sub_9290
   132 862D C8			    iny
   133 862E 20 90 92		    jsr sub_9290
   134 8631			loc_8631:
   135 8631 A9 34		    lda #$34
   136 8633 8D 55 33		    sta $3355
   137 8636			loc_8636:
   138 8636 AD A5 28		    lda $28A5
   139 8639 F0 16		    beq loc_8651
   140 863B A9 B4		    lda #$B4
   141 863D 8D 55 33		    sta $3355
   142 8640 A9 00		    lda #$00
   143 8642 8D 6E 06		    sta $066E
   144 8645 8D 6F 06		    sta $066F
   145 8648 A0 01		    ldy #$01
   146 864A 20 90 92		    jsr sub_9290
   147 864D C8			    iny
   148 864E 4C 90 92		    jmp sub_9290
   149 8651			loc_8651:
   150 8651 AD 86 28		    lda $2886
   151 8654 D0 36		    bne loc_868C
   152 8656 AD 8C 28		    lda $288C
   153 8659 85 BC		    sta $BC
   154 865B AD 8B 28		    lda $288B
   155 865E A0 05		    ldy #$05
   156 8660			loc_8660:
   157 8660 0A			    asl
   158 8661 26 BC		    rol $BC
   159 8663 88			    dey
   160 8664 D0 FA		    bne loc_8660
   161 8666 90 10		    bcc loc_8678
   162 8668 AD 8B 28		    lda $288B
   163 866B E5 BC		    sbc $BC
   164 866D 8D 8B 28		    sta $288B
   165 8670 90 03		    bcc loc_8675
   166 8672 EE 8C 28		    inc $288C
   167 8675			loc_8675:
   168 8675 4C 89 86		    jmp loc_8689
   169 8678			loc_8678:
   170 8678 AD 8B 28		    lda $288B
   171 867B E5 BC		    sbc $BC
   172 867D B0 0A		    bcs loc_8689
   173 867F CE 8C 28		    dec $288C
   174 8682 10 05		    bpl loc_8689
   175 8684 A9 00		    lda #$00
   176 8686 8D 8C 28		    sta $288C
   177 8689			loc_8689:
   178 8689 8D 8B 28		    sta $288B
   179 868C			loc_868C:
   180 868C AD A4 28		    lda $28A4
   181 868F D0 39		    bne loc_86CA
   182 8691 AD 88 28		    lda $2888
   183 8694 D0 34		    bne loc_86CA
   184 8696 AD 8E 28		    lda $288E
   185 8699 85 BC		    sta $BC
   186 869B AD 8D 28		    lda $288D
   187 869E 0A			    asl
   188 869F 26 BC		    rol $BC
   189 86A1 0A			    asl
   190 86A2 26 BC		    rol $BC
   191 86A4 90 10		    bcc loc_86B6
   192 86A6 AD 8D 28		    lda $288D
   193 86A9 E5 BC		    sbc $BC
   194 86AB 8D 8D 28		    sta $288D
   195 86AE 90 03		    bcc loc_86B3
   196 86B0 EE 8E 28		    inc $288E
   197 86B3			loc_86B3:
   198 86B3 4C CA 86		    jmp loc_86CA
   199 86B6			loc_86B6:
   200 86B6 AD 8D 28		    lda $288D
   201 86B9 E5 BC		    sbc $BC
   202 86BB B0 0A		    bcs loc_86C7
   203 86BD CE 8E 28		    dec $288E
   204 86C0 10 05		    bpl loc_86C7
   205 86C2 A9 00		    lda #$00
   206 86C4 8D 8E 28		    sta $288E
   207 86C7			loc_86C7:
   208 86C7 8D 8D 28		    sta $288D
   209 86CA			loc_86CA:
   210 86CA A0 01		    ldy #$01
   211 86CC AD 87 28		    lda $2887
   212 86CF D0 05		    bne loc_86D6
   213 86D1 A0 03		    ldy #$03
   214 86D3 4C FB 86		    jmp loc_86FB
   215 86D6			loc_86D6:
   216 86D6 38			    sec
   217 86D7 ED 8E 28		    sbc $288E
   218 86DA ED 8E 28		    sbc $288E
   219 86DD 85 BC		    sta $BC
   220 86DF 18			    clc
   221 86E0 AD 87 28		    lda $2887
   222 86E3 4A			    lsr
   223 86E4 09 07		    ora #$07
   224 86E6 2D 0A D2		    and RANDOM
   225 86E9 65 BC		    adc $BC
   226 86EB 90 02		    bcc loc_86EF
   227 86ED A9 FF		    lda #$FF
   228 86EF			loc_86EF:
   229 86EF 18			    clc
   230 86F0 6D 97 28		    adc $2897
   231 86F3 8D 97 28		    sta $2897
   232 86F6 90 03		    bcc loc_86FB
   233 86F8 EE 98 28		    inc $2898
   234 86FB			loc_86FB:
   235 86FB AD 3D 29		    lda $293D
   236 86FE F0 3A		    beq loc_873A
   237 8700 18			    clc
   238 8701 AD 98 28		    lda $2898
   239 8704 69 02		    adc #$02
   240 8706 85 BC		    sta $BC
   241 8708 A9 00		    lda #$00
   242 870A 2A			    rol
   243 870B 85 BD		    sta $BD
   244 870D AD 97 28		    lda $2897
   245 8710			loc_8710:
   246 8710 0A			    asl
   247 8711 26 BC		    rol $BC
   248 8713 26 BD		    rol $BD
   249 8715 88			    dey
   250 8716 D0 F8		    bne loc_8710
   251 8718 AD 97 28		    lda $2897
   252 871B E5 BC		    sbc $BC
   253 871D 8D 97 28		    sta $2897
   254 8720 AD 98 28		    lda $2898
   255 8723 E5 BD		    sbc $BD
   256 8725 8D 98 28		    sta $2898
   257 8728 B0 10		    bcs loc_873A
   258 872A A9 00		    lda #$00
   259 872C 8D 97 28		    sta $2897
   260 872F 8D 98 28		    sta $2898
   261 8732 CD 78 06		    cmp $0678
   262 8735 F0 03		    beq loc_873A
   263 8737 20 94 8E		    jsr sub_8E94
   264 873A			loc_873A:
   265 873A 18			    clc
   266 873B AD 8B 28		    lda $288B
   267 873E 6D 86 28		    adc $2886
   268 8741 8D 8B 28		    sta $288B
   269 8744 2C 86 28		    bit $2886
   270 8747 10 19		    bpl loc_8762
   271 8749 B0 14		    bcs loc_875F
   272 874B CE 8C 28		    dec $288C
   273 874E 10 0F		    bpl loc_875F
   274 8750 AD 8C 28		    lda $288C
   275 8753 C9 FB		    cmp #$FB
   276 8755 B0 08		    bcs loc_875F
   277 8757 EE 8C 28		    inc $288C
   278 875A A9 00		    lda #$00
   279 875C 8D 8B 28		    sta $288B
   280 875F			loc_875F:
   281 875F 4C 78 87		    jmp loc_8778
   282 8762			loc_8762:
   283 8762 90 14		    bcc loc_8778
   284 8764 EE 8C 28		    inc $288C
   285 8767 30 0F		    bmi loc_8778
   286 8769 AD 8C 28		    lda $288C
   287 876C C9 05		    cmp #$05
   288 876E 90 08		    bcc loc_8778
   289 8770 CE 8C 28		    dec $288C
   290 8773 A9 FF		    lda #$FF
   291 8775 8D 8B 28		    sta $288B
   292 8778			loc_8778:
   293 8778 18			    clc
   294 8779 AD 8D 28		    lda $288D
   295 877C 6D 88 28		    adc $2888
   296 877F 8D 8D 28		    sta $288D
   297 8782 2C 88 28		    bit $2888
   298 8785 10 19		    bpl loc_87A0
   299 8787 B0 14		    bcs loc_879D
   300 8789 CE 8E 28		    dec $288E
   301 878C 10 0F		    bpl loc_879D
   302 878E AD 8E 28		    lda $288E
   303 8791 C9 F4		    cmp #$F4
   304 8793 B0 08		    bcs loc_879D
   305 8795 EE 8E 28		    inc $288E
   306 8798 A9 00		    lda #$00
   307 879A 8D 8D 28		    sta $288D
   308 879D			loc_879D:
   309 879D 4C B6 87		    jmp loc_87B6
   310 87A0			loc_87A0:
   311 87A0 90 14		    bcc loc_87B6
   312 87A2 EE 8E 28		    inc $288E
   313 87A5 30 0F		    bmi loc_87B6
   314 87A7 AD 8E 28		    lda $288E
   315 87AA C9 0C		    cmp #$0C
   316 87AC 90 08		    bcc loc_87B6
   317 87AE CE 8E 28		    dec $288E
   318 87B1 A9 FF		    lda #$FF
   319 87B3 8D 8D 28		    sta $288D
   320 87B6			loc_87B6:
   321 87B6 AD 8E 28		    lda $288E
   322 87B9 8D 84 28		    sta $2884
   323 87BC AD 8D 28		    lda $288D
   324 87BF 0A			    asl
   325 87C0 2E 84 28		    rol $2884
   326 87C3 0A			    asl
   327 87C4 2E 84 28		    rol $2884
   328 87C7 0A			    asl
   329 87C8 2E 84 28		    rol $2884
   330 87CB AD 84 28		    lda $2884
   331 87CE 90 04		    bcc loc_87D4
   332 87D0 49 FF		    eor #$FF
   333 87D2 69 00		    adc #$00
   334 87D4			loc_87D4:
   335 87D4 8D F0 28		    sta $28F0
   336 87D7 AD 98 28		    lda $2898
   337 87DA 8D F1 28		    sta $28F1
   338 87DD 20 F9 8F		    jsr sub_8FF9
   339 87E0 A0 00		    ldy #$00
   340 87E2 2C 84 28		    bit $2884
   341 87E5 10 09		    bpl loc_87F0
   342 87E7 88			    dey
   343 87E8 49 FF		    eor #$FF
   344 87EA 18			    clc
   345 87EB 69 01		    adc #$01
   346 87ED 90 01		    bcc loc_87F0
   347 87EF C8			    iny
   348 87F0			loc_87F0:
   349 87F0 8C 96 28		    sty $2896
   350 87F3 0A			    asl
   351 87F4 2E 96 28		    rol $2896
   352 87F7 0A			    asl
   353 87F8 2E 96 28		    rol $2896
   354 87FB 0A			    asl
   355 87FC 2E 96 28		    rol $2896
   356 87FF 8D 95 28		    sta $2895
   357 8802 AD 8B 28		    lda $288B
   358 8805 85 BC		    sta $BC
   359 8807 AD 8C 28		    lda $288C
   360 880A A0 04		    ldy #$04
   361 880C			loc_880C:
   362 880C C9 80		    cmp #$80
   363 880E 6A			    ror
   364 880F 66 BC		    ror $BC
   365 8811 88			    dey
   366 8812 D0 F8		    bne loc_880C
   367 8814 85 BD		    sta $BD
   368 8816 18			    clc
   369 8817 AD 99 28		    lda $2899
   370 881A 65 BC		    adc $BC
   371 881C 8D 99 28		    sta $2899
   372 881F AD 9A 28		    lda $289A
   373 8822 65 BD		    adc $BD
   374 8824 29 3F		    and #$3F
   375 8826 8D 9A 28		    sta $289A
   376 8829 20 67 8F		    jsr sub_8F67
   377 882C 18			    clc
   378 882D AD 9B 28		    lda $289B
   379 8830 6D 91 28		    adc $2891
   380 8833 8D 9B 28		    sta $289B
   381 8836 AD 9C 28		    lda $289C
   382 8839 6D 92 28		    adc $2892
   383 883C 8D 9C 28		    sta $289C
   384 883F AD 92 28		    lda $2892
   385 8842 18			    clc
   386 8843 AD 9D 28		    lda $289D
   387 8846 6D 93 28		    adc $2893
   388 8849 8D 9D 28		    sta $289D
   389 884C AD 9E 28		    lda $289E
   390 884F 6D 94 28		    adc $2894
   391 8852 8D 9E 28		    sta $289E
   392 8855 18			    clc
   393 8856 AD 9F 28		    lda $289F
   394 8859 6D 95 28		    adc $2895
   395 885C 8D 9F 28		    sta $289F
   396 885F AD A0 28		    lda $28A0
   397 8862 6D 96 28		    adc $2896
   398 8865 C9 FF		    cmp #$FF
   399 8867 D0 02		    bne loc_886B
   400 8869 A9 00		    lda #$00
   401 886B			loc_886B:
   402 886B C9 50		    cmp #$50
   403 886D 90 18		    bcc loc_8887
   404 886F A0 FF		    ldy #$FF
   405 8871 AE 5F 06		    ldx $065F
   406 8874 E0 02		    cpx #$02
   407 8876 D0 0A		    bne loc_8882
   408 8878 C9 60		    cmp #$60
   409 887A 90 03		    bcc loc_887F
   410 887C 8C 3F 28		    sty $283F
   411 887F			loc_887F:
   412 887F 4C 87 88		    jmp loc_8887
   413 8882			loc_8882:
   414 8882 8C 9F 28		    sty $289F
   415 8885 A9 4F		    lda #$4F
   416 8887			loc_8887:
   417 8887 8D A0 28		    sta $28A0
   418 888A AD 8D 28		    lda $288D
   419 888D 2A			    rol
   420 888E AD 8E 28		    lda $288E
   421 8891 69 0C		    adc #$0C
   422 8893 8D 7A 28		    sta $287A
   423 8896 AD 89 28		    lda $2889
   424 8899 2A			    rol
   425 889A AD 8A 28		    lda $288A
   426 889D 69 05		    adc #$05
   427 889F 8D 78 28		    sta $2878
   428 88A2 38			    sec
   429 88A3 A9 3A		    lda #$3A
   430 88A5 AC 41 28		    ldy $2841
   431 88A8 D0 06		    bne loc_88B0
   432 88AA ED 9A 28		    sbc $289A
   433 88AD 4C B2 88		    jmp loc_88B2
   434 88B0			loc_88B0:
   435 88B0 E5 14		    sbc $14
   436 88B2			loc_88B2:
   437 88B2 29 3F		    and #$3F
   438 88B4 A8			    tay
   439 88B5 29 03		    and #$03
   440 88B7 8D 3A 28		    sta $283A
   441 88BA 98			    tya
   442 88BB 4A			    lsr
   443 88BC 4A			    lsr
   444 88BD 8D 1E 28		    sta $281E
   445 88C0 AD 97 28		    lda $2897
   446 88C3 0A			    asl
   447 88C4 AD 98 28		    lda $2898
   448 88C7 2A			    rol
   449 88C8 49 FF		    eor #$FF
   450 88CA 8D 88 06		    sta $0688
   451 88CD 38			    sec
   452 88CE E9 04		    sbc #$04
   453 88D0 8D 89 06		    sta $0689
   454 88D3 20 A2 8E		    jsr sub_8EA2
   455 88D6 A0 0C		    ldy #$0C
   456 88D8 AD 87 28		    lda $2887
   457 88DB C9 F0		    cmp #$F0
   458 88DD F0 1F		    beq loc_88FE
   459 88DF AD 25 06		    lda $0625
   460 88E2 D0 15		    bne loc_88F9
   461 88E4 8D 3D 29		    sta $293D
   462 88E7 AE 3C 29		    ldx $293C
   463 88EA F0 35		    beq loc_8921
   464 88EC CE 3C 29		    dec $293C
   465 88EF EC 0A D2		    cpx RANDOM
   466 88F2 90 2D		    bcc loc_8921
   467 88F4 A9 FF		    lda #$FF
   468 88F6 4C FE 88		    jmp loc_88FE
   469 88F9			loc_88F9:
   470 88F9 A9 FF		    lda #$FF
   471 88FB 8D 3C 29		    sta $293C
   472 88FE			loc_88FE:
   473 88FE 8D 3D 29		    sta $293D
   474 8901 AE 87 28		    ldx $2887
   475 8904 D0 04		    bne loc_890A
   476 8906 8A			    txa
   477 8907 4C 21 89		    jmp loc_8921
   478 890A			loc_890A:
   479 890A E0 F0		    cpx #$F0
   480 890C B0 05		    bcs loc_8913
   481 890E A9 04		    lda #$04
   482 8910 4C 21 89		    jmp loc_8921
   483 8913			loc_8913:
   484 8913 AD A0 28		    lda $28A0
   485 8916 4A			    lsr
   486 8917 4A			    lsr
   487 8918 4A			    lsr
   488 8919 49 0F		    eor #$0F
   489 891B C9 04		    cmp #$04
   490 891D B0 02		    bcs loc_8921
   491 891F A9 04		    lda #$04
   492 8921			loc_8921:
   493 8921 99 6D 06		    sta $066D,y
   494 8924 AD 97 28		    lda $2897
   495 8927 0A			    asl
   496 8928 AD 98 28		    lda $2898
   497 892B 2A			    rol
   498 892C 49 FF		    eor #$FF
   499 892E C9 0C		    cmp #$0C
   500 8930 B0 02		    bcs loc_8934
   501 8932 A9 0C		    lda #$0C
   502 8934			loc_8934:
   503 8934 99 7B 06		    sta $067B,y
   504 8937 20 90 92		    jsr sub_9290
   505 893A AD 3E 29		    lda $293E
   506 893D 8D 55 28		    sta $2855
   507 8940 AD 3F 29		    lda $293F
   508 8943 C9 80		    cmp #$80
   509 8945 6A			    ror
   510 8946 6E 55 28		    ror $2855
   511 8949 8D 56 28		    sta $2856
   512 894C A0 00		    ldy #$00
   513 894E AD 40 29		    lda $2940
   514 8951 8D 57 28		    sta $2857
   515 8954 10 01		    bpl loc_8957
   516 8956 88			    dey
   517 8957			loc_8957:
   518 8957 98			    tya
   519 8958 A0 03		    ldy #$03
   520 895A			loc_895A:
   521 895A 0E 57 28		    asl $2857
   522 895D 2A			    rol
   523 895E 88			    dey
   524 895F D0 F9		    bne loc_895A
   525 8961 8D 58 28		    sta $2858
   526 8964 A0 00		    ldy #$00
   527 8966 AD 3F 29		    lda $293F
   528 8969 C9 80		    cmp #$80
   529 896B 6A			    ror
   530 896C 10 01		    bpl loc_896F
   531 896E 88			    dey
   532 896F			loc_896F:
   533 896F 18			    clc
   534 8970 6D 31 28		    adc $2831
   535 8973 8D 31 28		    sta $2831
   536 8976 98			    tya
   537 8977 6D 32 28		    adc $2832
   538 897A 8D 32 28		    sta $2832
   539 897D A0 00		    ldy #$00
   540 897F AD 40 29		    lda $2940
   541 8982 C9 80		    cmp #$80
   542 8984 6A			    ror
   543 8985 C9 80		    cmp #$80
   544 8987 6A			    ror
   545 8988 C9 80		    cmp #$80
   546 898A 6A			    ror
   547 898B 10 01		    bpl loc_898E
   548 898D 88			    dey
   549 898E			loc_898E:
   550 898E 18			    clc
   551 898F 6D 33 28		    adc $2833
   552 8992 8D 33 28		    sta $2833
   553 8995 98			    tya
   554 8996 6D 34 28		    adc $2834
   555 8999 8D 34 28		    sta $2834
   556 899C AD 4E 28		    lda $284E
   557 899F D0 03		    bne loc_89A4
   558 89A1 4C D9 89		    jmp loc_89D9
   559 89A4			loc_89A4:
   560 89A4 30 0D		    bmi loc_89B3
   561 89A6 C9 01		    cmp #$01
   562 89A8 D0 06		    bne loc_89B0
   563 89AA 20 38 8C		    jsr sub_8C38
   564 89AD 4C B3 89		    jmp loc_89B3
   565 89B0			loc_89B0:
   566 89B0 20 CB 8C		    jsr sub_8CCB
   567 89B3			loc_89B3:
   568 89B3 38			    sec
   569 89B4 AD 53 28		    lda $2853
   570 89B7 ED 55 28		    sbc $2855
   571 89BA 8D 53 28		    sta $2853
   572 89BD AD 51 28		    lda $2851
   573 89C0 ED 56 28		    sbc $2856
   574 89C3 8D 51 28		    sta $2851
   575 89C6 18			    clc
   576 89C7 AD 54 28		    lda $2854
   577 89CA 6D 57 28		    adc $2857
   578 89CD 8D 54 28		    sta $2854
   579 89D0 AD 52 28		    lda $2852
   580 89D3 6D 58 28		    adc $2858
   581 89D6 8D 52 28		    sta $2852
   582 89D9			loc_89D9:
   583 89D9 AE 2A 28		    ldx $282A
   584 89DC 30 3D		    bmi loc_8A1B
   585 89DE CA			    dex
   586 89DF 8E 2A 28		    stx $282A
   587 89E2 10 14		    bpl loc_89F8
   588 89E4 AD 29 28		    lda $2829
   589 89E7 D0 06		    bne loc_89EF
   590 89E9 20 6B 8E		    jsr sub_8E6B
   591 89EC 4C F5 89		    jmp loc_89F5
   592 89EF			loc_89EF:
   593 89EF 20 6B 8E		    jsr sub_8E6B
   594 89F2 20 2D 8B		    jsr sub_8B2D
   595 89F5			loc_89F5:
   596 89F5 4C 1B 8A		    jmp loc_8A1B
   597 89F8			loc_89F8:
   598 89F8 8A			    txa
   599 89F9 4A			    lsr
   600 89FA 4A			    lsr
   601 89FB 8D 23 28		    sta $2823
   602 89FE E0 5A		    cpx #$5A
   603 8A00 F0 13		    beq loc_8A15
   604 8A02 AD 1B 06		    lda $061B
   605 8A05 C9 1F		    cmp #$1F
   606 8A07 90 0F		    bcc loc_8A18
   607 8A09 E0 3C		    cpx #$3C
   608 8A0B F0 08		    beq loc_8A15
   609 8A0D C9 3D		    cmp #$3D
   610 8A0F 90 07		    bcc loc_8A18
   611 8A11 E0 28		    cpx #$28
   612 8A13 D0 03		    bne loc_8A18
   613 8A15			loc_8A15:
   614 8A15 20 65 A6		    jsr sub_A665
   615 8A18			loc_8A18:
   616 8A18 20 65 8A		    jsr sub_8A65
   617 8A1B			loc_8A1B:
   618 8A1B AC 43 29		    ldy $2943
   619 8A1E C8			    iny
   620 8A1F C0 07		    cpy #$07
   621 8A21 90 02		    bcc loc_8A25
   622 8A23 A0 00		    ldy #$00
   623 8A25			loc_8A25:
   624 8A25 8C 43 29		    sty $2943
   625 8A28 B9 AD 28		    lda $28AD,y
   626 8A2B 8D 3E 29		    sta $293E
   627 8A2E AD 8B 28		    lda $288B
   628 8A31 99 AD 28		    sta $28AD,y
   629 8A34 B9 B4 28		    lda $28B4,y
   630 8A37 8D 3F 29		    sta $293F
   631 8A3A AD 8C 28		    lda $288C
   632 8A3D 99 B4 28		    sta $28B4,y
   633 8A40 B9 BB 28		    lda $28BB,y
   634 8A43 8D 40 29		    sta $2940
   635 8A46 AD 88 28		    lda $2888
   636 8A49 99 BB 28		    sta $28BB,y
   637 8A4C B9 C2 28		    lda $28C2,y
   638 8A4F 8D 41 29		    sta $2941
   639 8A52 AD 78 28		    lda $2878
   640 8A55 99 C2 28		    sta $28C2,y
   641 8A58 B9 C9 28		    lda $28C9,y
   642 8A5B 8D 42 29		    sta $2942
   643 8A5E AD 7A 28		    lda $287A
   644 8A61 99 C9 28		    sta $28C9,y
   645 8A64 60			    rts
   646 8A65			sub_8A65:
   647 8A65 38			    sec
   648 8A66 AD 2B 28		    lda $282B
   649 8A69 ED 55 28		    sbc $2855
   650 8A6C 8D 2B 28		    sta $282B
   651 8A6F AD 2C 28		    lda $282C
   652 8A72 ED 56 28		    sbc $2856
   653 8A75 8D 2C 28		    sta $282C
   654 8A78 AD 56 28		    lda $2856
   655 8A7B 10 08		    bpl loc_8A85
   656 8A7D 90 03		    bcc loc_8A82
   657 8A7F EE 2D 28		    inc $282D
   658 8A82			loc_8A82:
   659 8A82 4C 8A 8A		    jmp loc_8A8A
   660 8A85			loc_8A85:
   661 8A85 B0 03		    bcs loc_8A8A
   662 8A87 CE 2D 28		    dec $282D
   663 8A8A			loc_8A8A:
   664 8A8A 18			    clc
   665 8A8B AD 2E 28		    lda $282E
   666 8A8E 6D 57 28		    adc $2857
   667 8A91 8D 2E 28		    sta $282E
   668 8A94 AD 2F 28		    lda $282F
   669 8A97 6D 58 28		    adc $2858
   670 8A9A 8D 2F 28		    sta $282F
   671 8A9D AD 58 28		    lda $2858
   672 8AA0 30 08		    bmi loc_8AAA
   673 8AA2 90 03		    bcc loc_8AA7
   674 8AA4 EE 30 28		    inc $2830
   675 8AA7			loc_8AA7:
   676 8AA7 4C AF 8A		    jmp loc_8AAF
   677 8AAA			loc_8AAA:
   678 8AAA B0 03		    bcs loc_8AAF
   679 8AAC CE 30 28		    dec $2830
   680 8AAF			loc_8AAF:
   681 8AAF 38			    sec
   682 8AB0 AD 2B 28		    lda $282B
   683 8AB3 ED 31 28		    sbc $2831
   684 8AB6 8D 2B 28		    sta $282B
   685 8AB9 AD 2C 28		    lda $282C
   686 8ABC ED 32 28		    sbc $2832
   687 8ABF 8D 2C 28		    sta $282C
   688 8AC2 AD 32 28		    lda $2832
   689 8AC5 10 08		    bpl loc_8ACF
   690 8AC7 90 03		    bcc loc_8ACC
   691 8AC9 EE 2D 28		    inc $282D
   692 8ACC			loc_8ACC:
   693 8ACC 4C D4 8A		    jmp loc_8AD4
   694 8ACF			loc_8ACF:
   695 8ACF B0 03		    bcs loc_8AD4
   696 8AD1 CE 2D 28		    dec $282D
   697 8AD4			loc_8AD4:
   698 8AD4 18			    clc
   699 8AD5 AD 2E 28		    lda $282E
   700 8AD8 6D 33 28		    adc $2833
   701 8ADB 8D 2E 28		    sta $282E
   702 8ADE AD 2F 28		    lda $282F
   703 8AE1 6D 34 28		    adc $2834
   704 8AE4 8D 2F 28		    sta $282F
   705 8AE7 AD 34 28		    lda $2834
   706 8AEA 30 08		    bmi loc_8AF4
   707 8AEC 90 03		    bcc loc_8AF1
   708 8AEE EE 30 28		    inc $2830
   709 8AF1			loc_8AF1:
   710 8AF1 4C F9 8A		    jmp loc_8AF9
   711 8AF4			loc_8AF4:
   712 8AF4 B0 03		    bcs loc_8AF9
   713 8AF6 CE 30 28		    dec $2830
   714 8AF9			loc_8AF9:
   715 8AF9 AD 2D 28		    lda $282D
   716 8AFC D0 29		    bne loc_8B27
   717 8AFE AD 30 28		    lda $2830
   718 8B01 D0 24		    bne loc_8B27
   719 8B03 AE 2A 28		    ldx $282A
   720 8B06 BD 5C 8B		    lda $8B5C,x
   721 8B09 AC A0 28		    ldy $28A0
   722 8B0C C0 30		    cpy #$30
   723 8B0E 90 02		    bcc loc_8B12
   724 8B10 A9 00		    lda #$00
   725 8B12			loc_8B12:
   726 8B12 C0 20		    cpy #$20
   727 8B14 90 03		    bcc loc_8B19
   728 8B16 C9 80		    cmp #$80
   729 8B18 6A			    ror
   730 8B19			loc_8B19:
   731 8B19 18			    clc
   732 8B1A 6D 2F 28		    adc $282F
   733 8B1D 8D 24 28		    sta $2824
   734 8B20 AD 2C 28		    lda $282C
   735 8B23 8D 27 28		    sta $2827
   736 8B26 60			    rts
   737 8B27			loc_8B27:
   738 8B27 A9 00		    lda #$00
   739 8B29 8D 27 28		    sta $2827
   740 8B2C 60			    rts
   741 8B2D			sub_8B2D:
   742 8B2D AD 2D 28		    lda $282D
   743 8B30 D0 29		    bne loc_8B5B
   744 8B32 AD 30 28		    lda $2830
   745 8B35 D0 24		    bne loc_8B5B
   746 8B37 AD 2C 28		    lda $282C
   747 8B3A C9 34		    cmp #$34
   748 8B3C 90 1D		    bcc loc_8B5B
   749 8B3E C9 AC		    cmp #$AC
   750 8B40 B0 19		    bcs loc_8B5B
   751 8B42 AD 2F 28		    lda $282F
   752 8B45 C9 1A		    cmp #$1A
   753 8B47 90 12		    bcc loc_8B5B
   754 8B49 C9 6A		    cmp #$6A
   755 8B4B B0 0E		    bcs loc_8B5B
   756 8B4D A9 20		    lda #$20
   757 8B4F 8D 7F 28		    sta $287F
   758 8B52 20 40 83		    jsr sub_8340
   759 8B55 20 39 AB		    jsr sub_AB39
   760 8B58 4C 77 3F		    jmp loc_3F77
   761 8B5B			loc_8B5B:
   762 8B5B 60			    rts
   763 8B5C 00 00 00 00 00 00 +     .byte $00,$00,$00,$00,$00,$00,$00,$00,$00,$00,$00,$00,$00,$00,$00,$FF ; $8B5C
   764 8B6C FF FF FF FF FF FF +     .byte $FF,$FF,$FF,$FF,$FF,$FF,$FF,$FF,$FF,$FF,$FF,$FF,$FE,$FE,$FE,$FE ; $8B6C
   765 8B7C FE FE FE FE FE FE +     .byte $FE,$FE,$FE,$FE,$FE,$FE,$FE,$FD,$FD,$FD,$FD,$FD,$FD,$FD,$FD,$FD ; $8B7C
   766 8B8C FC FC FC FC FC FC +     .byte $FC,$FC,$FC,$FC,$FC,$FC,$FC,$FB,$FB,$FB,$FB,$FB,$FB,$FA,$FA,$FA ; $8B8C
   767 8B9C FA FA F9 F9 F9 F9 +     .byte $FA,$FA,$F9,$F9,$F9,$F9,$F8,$F8,$F8,$F7,$F7,$F7,$F6,$F6,$F6,$F5 ; $8B9C
   768 8BAC F5 F4 F4 F4 F3 F3 +     .byte $F5,$F4,$F4,$F4,$F3,$F3,$F2,$F2,$F1,$F1,$F0,$F0,$EF,$EF,$EE,$EE ; $8BAC
   769 8BBC ED EC EC EB EB EA +     .byte $ED,$EC,$EC,$EB,$EB,$EA,$E9,$E9,$E8,$E7,$E7,$E6,$E5,$E5,$E4,$E3 ; $8BBC
   770 8BCC E2 E2 E1 E0 DF DE +     .byte $E2,$E2,$E1,$E0,$DF,$DE,$DE,$DD,$DC,$DB,$DA,$D9,$D9,$D8,$D7,$D6 ; $8BCC
   771 8BDC			sub_8BDC:
   772 8BDC AD 8A 28		    lda $288A
   773 8BDF 10 11		    bpl loc_8BF2
   774 8BE1 18			    clc
   775 8BE2 AD 89 28		    lda $2889
   776 8BE5 69 14		    adc #$14
   777 8BE7 8D 89 28		    sta $2889
   778 8BEA 90 03		    bcc loc_8BEF
   779 8BEC EE 8A 28		    inc $288A
   780 8BEF			loc_8BEF:
   781 8BEF 4C 09 8C		    jmp loc_8C09
   782 8BF2			loc_8BF2:
   783 8BF2 38			    sec
   784 8BF3 AD 89 28		    lda $2889
   785 8BF6 E9 14		    sbc #$14
   786 8BF8 A8			    tay
   787 8BF9 AD 8A 28		    lda $288A
   788 8BFC E9 00		    sbc #$00
   789 8BFE B0 03		    bcs loc_8C03
   790 8C00 A9 00		    lda #$00
   791 8C02 A8			    tay
   792 8C03			loc_8C03:
   793 8C03 8D 8A 28		    sta $288A
   794 8C06 8C 89 28		    sty $2889
   795 8C09			loc_8C09:
   796 8C09 AD 1D 06		    lda $061D
   797 8C0C F0 14		    beq loc_8C22
   798 8C0E 38			    sec
   799 8C0F AD 9F 28		    lda $289F
   800 8C12 E9 30		    sbc #$30
   801 8C14 8D 9F 28		    sta $289F
   802 8C17 AD A0 28		    lda $28A0
   803 8C1A E9 00		    sbc #$00
   804 8C1C 8D A0 28		    sta $28A0
   805 8C1F 4C 37 8C		    jmp loc_8C37
   806 8C22			loc_8C22:
   807 8C22 AD A4 28		    lda $28A4
   808 8C25 D0 10		    bne loc_8C37
   809 8C27 AD 7A 06		    lda $067A
   810 8C2A D0 0B		    bne loc_8C37
   811 8C2C EE A4 28		    inc $28A4
   812 8C2F AD 2A 28		    lda $282A
   813 8C32 30 03		    bmi loc_8C37
   814 8C34 4C 6B 8E		    jmp sub_8E6B
   815 8C37			loc_8C37:
   816 8C37 60			    rts
   817 8C38			sub_8C38:
   818 8C38 A9 00		    lda #$00
   819 8C3A 8D 59 28		    sta $2859
   820 8C3D 8D 5C 28		    sta $285C
   821 8C40 AD 22 29		    lda $2922
   822 8C43 8D 5A 28		    sta $285A
   823 8C46 AD 23 29		    lda $2923
   824 8C49 8D 5B 28		    sta $285B
   825 8C4C AD 24 29		    lda $2924
   826 8C4F 8D 5D 28		    sta $285D
   827 8C52 AD 25 29		    lda $2925
   828 8C55 8D 5E 28		    sta $285E
   829 8C58 AD 26 29		    lda $2926
   830 8C5B 8D 5F 28		    sta $285F
   831 8C5E 18			    clc
   832 8C5F AD 27 29		    lda $2927
   833 8C62 69 08		    adc #$08
   834 8C64 90 02		    bcc loc_8C68
   835 8C66 A9 FF		    lda #$FF
   836 8C68			loc_8C68:
   837 8C68 8D 60 28		    sta $2860
   838 8C6B A0 00		    ldy #$00
   839 8C6D AD 28 29		    lda $2928
   840 8C70 8D 61 28		    sta $2861
   841 8C73 AD 29 29		    lda $2929
   842 8C76 8D 62 28		    sta $2862
   843 8C79 10 01		    bpl loc_8C7C
   844 8C7B 88			    dey
   845 8C7C			loc_8C7C:
   846 8C7C 98			    tya
   847 8C7D 0E 61 28		    asl $2861
   848 8C80 2E 62 28		    rol $2862
   849 8C83 2A			    rol
   850 8C84 0E 61 28		    asl $2861
   851 8C87 2E 62 28		    rol $2862
   852 8C8A 2A			    rol
   853 8C8B 8D 63 28		    sta $2863
   854 8C8E A0 00		    ldy #$00
   855 8C90 AD 2A 29		    lda $292A
   856 8C93 8D 64 28		    sta $2864
   857 8C96 AD 2B 29		    lda $292B
   858 8C99 8D 65 28		    sta $2865
   859 8C9C 10 01		    bpl loc_8C9F
   860 8C9E 88			    dey
   861 8C9F			loc_8C9F:
   862 8C9F 98			    tya
   863 8CA0 0E 64 28		    asl $2864
   864 8CA3 2E 65 28		    rol $2865
   865 8CA6 2A			    rol
   866 8CA7 0E 64 28		    asl $2864
   867 8CAA 2E 65 28		    rol $2865
   868 8CAD 2A			    rol
   869 8CAE 8D 66 28		    sta $2866
   870 8CB1 AD 2E 29		    lda $292E
   871 8CB4 8D 67 28		    sta $2867
   872 8CB7 AD 2F 29		    lda $292F
   873 8CBA C9 80		    cmp #$80
   874 8CBC 6A			    ror
   875 8CBD 6E 67 28		    ror $2867
   876 8CC0 38			    sec
   877 8CC1 E9 01		    sbc #$01
   878 8CC3 8D 68 28		    sta $2868
   879 8CC6 A2 11		    ldx #$11
   880 8CC8 4C AA 94		    jmp sub_94AA
   881 8CCB			sub_8CCB:
   882 8CCB 18			    clc
   883 8CCC AD 59 28		    lda $2859
   884 8CCF 6D 61 28		    adc $2861
   885 8CD2 8D 59 28		    sta $2859
   886 8CD5 AD 5A 28		    lda $285A
   887 8CD8 6D 62 28		    adc $2862
   888 8CDB 8D 5A 28		    sta $285A
   889 8CDE 8D FD 27		    sta $27FD
   890 8CE1 AD 5B 28		    lda $285B
   891 8CE4 6D 63 28		    adc $2863
   892 8CE7 29 0F		    and #$0F
   893 8CE9 8D 5B 28		    sta $285B
   894 8CEC 8D FE 27		    sta $27FE
   895 8CEF 18			    clc
   896 8CF0 AD 5C 28		    lda $285C
   897 8CF3 6D 64 28		    adc $2864
   898 8CF6 8D 5C 28		    sta $285C
   899 8CF9 AD 5D 28		    lda $285D
   900 8CFC 6D 65 28		    adc $2865
   901 8CFF 8D 5D 28		    sta $285D
   902 8D02 8D FF 27		    sta $27FF
   903 8D05 AD 5E 28		    lda $285E
   904 8D08 6D 66 28		    adc $2866
   905 8D0B 29 0F		    and #$0F
   906 8D0D 8D 5E 28		    sta $285E
   907 8D10 8D 00 28		    sta $2800
   908 8D13 18			    clc
   909 8D14 AD 5F 28		    lda $285F
   910 8D17 6D 67 28		    adc $2867
   911 8D1A 8D 5F 28		    sta $285F
   912 8D1D AD 60 28		    lda $2860
   913 8D20 6D 68 28		    adc $2868
   914 8D23 90 0A		    bcc loc_8D2F
   915 8D25 2C 68 28		    bit $2868
   916 8D28 30 02		    bmi loc_8D2C
   917 8D2A A9 FF		    lda #$FF
   918 8D2C			loc_8D2C:
   919 8D2C 4C 36 8D		    jmp loc_8D36
   920 8D2F			loc_8D2F:
   921 8D2F 2C 68 28		    bit $2868
   922 8D32 10 02		    bpl loc_8D36
   923 8D34 A9 00		    lda #$00
   924 8D36			loc_8D36:
   925 8D36 8D 60 28		    sta $2860
   926 8D39 AD 2A 28		    lda $282A
   927 8D3C 30 03		    bmi loc_8D41
   928 8D3E 20 0B 8E		    jsr sub_8E0B
   929 8D41			loc_8D41:
   930 8D41 AD 5D 28		    lda $285D
   931 8D44 0A			    asl
   932 8D45 AD 5E 28		    lda $285E
   933 8D48 69 00		    adc #$00
   934 8D4A 0A			    asl
   935 8D4B 0A			    asl
   936 8D4C 0A			    asl
   937 8D4D 0A			    asl
   938 8D4E 85 BC		    sta $BC
   939 8D50 AD 5A 28		    lda $285A
   940 8D53 0A			    asl
   941 8D54 AD 5B 28		    lda $285B
   942 8D57 69 00		    adc #$00
   943 8D59 29 0F		    and #$0F
   944 8D5B 05 BC		    ora $BC
   945 8D5D 8D 69 28		    sta $2869
   946 8D60 A8			    tay
   947 8D61 B9 00 0A		    lda pilot_map,y
   948 8D64 F0 28		    beq loc_8D8E
   949 8D66 18			    clc
   950 8D67 B9 00 09		    lda terrain_height_buf,y
   951 8D6A 69 10		    adc #$10
   952 8D6C 90 02		    bcc loc_8D70
   953 8D6E A9 FF		    lda #$FF
   954 8D70			loc_8D70:
   955 8D70 CD 60 28		    cmp $2860
   956 8D73 90 19		    bcc loc_8D8E
   957 8D75 AD 5A 28		    lda $285A
   958 8D78 C9 30		    cmp #$30
   959 8D7A 90 04		    bcc loc_8D80
   960 8D7C C9 D0		    cmp #$D0
   961 8D7E 90 0E		    bcc loc_8D8E
   962 8D80			loc_8D80:
   963 8D80 AD 5D 28		    lda $285D
   964 8D83 C9 30		    cmp #$30
   965 8D85 90 04		    bcc loc_8D8B
   966 8D87 C9 D0		    cmp #$D0
   967 8D89 90 03		    bcc loc_8D8E
   968 8D8B			loc_8D8B:
   969 8D8B 4C B0 8D		    jmp loc_8DB0
   970 8D8E			loc_8D8E:
   971 8D8E 20 C2 99		    jsr sub_99C2
   972 8D91 AD 01 28		    lda $2801
   973 8D94 CD 60 28		    cmp $2860
   974 8D97 B0 01		    bcs loc_8D9A
   975 8D99 60			    rts
   976 8D9A			loc_8D9A:
   977 8D9A AD 5A 28		    lda $285A
   978 8D9D C9 30		    cmp #$30
   979 8D9F 90 04		    bcc loc_8DA5
   980 8DA1 C9 D0		    cmp #$D0
   981 8DA3 90 51		    bcc sub_8DF6
   982 8DA5			loc_8DA5:
   983 8DA5 AD 5D 28		    lda $285D
   984 8DA8 C9 30		    cmp #$30
   985 8DAA 90 04		    bcc loc_8DB0
   986 8DAC C9 D0		    cmp #$D0
   987 8DAE 90 46		    bcc sub_8DF6
   988 8DB0			loc_8DB0:
   989 8DB0 AC 69 28		    ldy $2869
   990 8DB3 B9 00 0A		    lda pilot_map,y
   991 8DB6 F0 3E		    beq sub_8DF6
   992 8DB8 C9 F8		    cmp #$F8
   993 8DBA B0 3A		    bcs sub_8DF6
   994 8DBC C9 64		    cmp #$64
   995 8DBE B0 06		    bcs loc_8DC6
   996 8DC0 20 00 8E		    jsr sub_8E00
   997 8DC3 4C F6 8D		    jmp sub_8DF6
   998 8DC6			loc_8DC6:
   999 8DC6 D0 11		    bne loc_8DD9
  1000 8DC8 20 00 8E		    jsr sub_8E00
  1001 8DCB 20 61 65		    jsr sub_6561
  1002 8DCE AD 43 06		    lda $0643
  1003 8DD1 09 80		    ora #$80
  1004 8DD3 8D 43 06		    sta $0643
  1005 8DD6 4C F6 8D		    jmp sub_8DF6
  1006 8DD9			loc_8DD9:
  1007 8DD9 C9 80		    cmp #$80
  1008 8DDB D0 0E		    bne loc_8DEB
  1009 8DDD 20 00 8E		    jsr sub_8E00
  1010 8DE0 20 61 65		    jsr sub_6561
  1011 8DE3 A9 40		    lda #$40
  1012 8DE5 8D 35 06		    sta $0635
  1013 8DE8 4C F6 8D		    jmp sub_8DF6
  1014 8DEB			loc_8DEB:
  1015 8DEB 20 00 8E		    jsr sub_8E00
  1016 8DEE 20 2D 65		    jsr sub_652D
  1017 8DF1 A9 49		    lda #$49
  1018 8DF3 8D 35 06		    sta $0635
  1019 8DF6			sub_8DF6:
  1020 8DF6 A9 80		    lda #$80
  1021 8DF8 8D 4E 28		    sta $284E
  1022 8DFB A2 0E		    ldx #$0E
  1023 8DFD 4C AA 94		    jmp sub_94AA
  1024 8E00			sub_8E00:
  1025 8E00 A9 FC		    lda #$FC
  1026 8E02 99 00 0A		    sta pilot_map,y
  1027 8E05 8D 47 28		    sta $2847
  1028 8E08 4C 77 8E		    jmp sub_8E77
  1029 8E0B			sub_8E0B:
  1030 8E0B AD 23 28		    lda $2823
  1031 8E0E 69 04		    adc #$04
  1032 8E10 38			    sec
  1033 8E11 ED 4E 28		    sbc $284E
  1034 8E14 B0 04		    bcs loc_8E1A
  1035 8E16 49 FF		    eor #$FF
  1036 8E18 69 01		    adc #$01
  1037 8E1A			loc_8E1A:
  1038 8E1A C9 04		    cmp #$04
  1039 8E1C B0 4C		    bcs loc_8E6A
  1040 8E1E 38			    sec
  1041 8E1F AD 51 28		    lda $2851
  1042 8E22 E9 0C		    sbc #$0C
  1043 8E24 ED 27 28		    sbc $2827
  1044 8E27 B0 04		    bcs loc_8E2D
  1045 8E29 49 FF		    eor #$FF
  1046 8E2B 69 01		    adc #$01
  1047 8E2D			loc_8E2D:
  1048 8E2D 85 BC		    sta $BC
  1049 8E2F 18			    clc
  1050 8E30 AD 52 28		    lda $2852
  1051 8E33 69 42		    adc #$42
  1052 8E35 38			    sec
  1053 8E36 ED 24 28		    sbc $2824
  1054 8E39 B0 04		    bcs loc_8E3F
  1055 8E3B 49 FF		    eor #$FF
  1056 8E3D 69 01		    adc #$01
  1057 8E3F			loc_8E3F:
  1058 8E3F 18			    clc
  1059 8E40 65 BC		    adc $BC
  1060 8E42 6A			    ror
  1061 8E43 4A			    lsr
  1062 8E44 AE 4E 28		    ldx $284E
  1063 8E47 DD AB 8E		    cmp $8EAB,x
  1064 8E4A B0 1E		    bcs loc_8E6A
  1065 8E4C A9 00		    lda #$00
  1066 8E4E 8D 29 28		    sta $2829
  1067 8E51 20 40 83		    jsr sub_8340
  1068 8E54 20 F6 8D		    jsr sub_8DF6
  1069 8E57 20 77 8E		    jsr sub_8E77
  1070 8E5A A9 50		    lda #$50
  1071 8E5C 8D 38 06		    sta $0638
  1072 8E5F A9 02		    lda #$02
  1073 8E61 8D 39 06		    sta $0639
  1074 8E64 20 6B 65		    jsr sub_656B
  1075 8E67 4C 65 A6		    jmp sub_A665
  1076 8E6A			loc_8E6A:
  1077 8E6A 60			    rts
  1078 8E6B			sub_8E6B:
  1079 8E6B A9 FF		    lda #$FF
  1080 8E6D 8D 23 28		    sta $2823
  1081 8E70 8D 2A 28		    sta $282A
  1082 8E73 8D 29 28		    sta $2829
  1083 8E76 60			    rts
  1084 8E77			sub_8E77:
  1085 8E77 EE AC 28		    inc $28AC
  1086 8E7A A9 7E		    lda #$7E
  1087 8E7C 85 DC		    sta $DC
  1088 8E7E A9 7C		    lda #$7C
  1089 8E80 85 DE		    sta $DE
  1090 8E82 A9 76		    lda #$76
  1091 8E84 85 DD		    sta $DD
  1092 8E86 A9 78		    lda #$78
  1093 8E88 85 DB		    sta $DB
  1094 8E8A A9 02		    lda #$02
  1095 8E8C 8D 13 29		    sta $2913
  1096 8E8F A2 0F		    ldx #$0F
  1097 8E91 4C AA 94		    jmp sub_94AA
  1098 8E94			sub_8E94:
  1099 8E94 8D 78 06		    sta $0678
  1100 8E97			sub_8E97:
  1101 8E97 8D 7A 06		    sta $067A
  1102 8E9A 8D 7B 06		    sta $067B
  1103 8E9D			sub_8E9D:
  1104 8E9D A0 0B		    ldy #$0B
  1105 8E9F 20 90 92		    jsr sub_9290
  1106 8EA2			sub_8EA2:
  1107 8EA2 A0 0D		    ldy #$0D
  1108 8EA4 20 90 92		    jsr sub_9290
  1109 8EA7 C8			    iny
  1110 8EA8 4C 90 92		    jmp sub_9290
  1111 8EAB 28 28 18 10 0C 0B +     .byte $28,$28,$18,$10,$0C,$0B,$0A,$09,$08,$08,$07,$07,$07,$06,$06,$06 ; $8EAB
  1112 8EBB 06 05 05 05 05 05 +     .byte $06,$05,$05,$05,$05,$05,$05,$05,$05,$05,$05,$05,$05,$05 ; $8EBB
  1113 8EC9			sub_8EC9:
  1114 8EC9 38			    sec
  1115 8ECA AD F1 27		    lda $27F1
  1116 8ECD ED F2 27		    sbc $27F2
  1117 8ED0 8D 86 28		    sta $2886
  1118 8ED3 18			    clc
  1119 8ED4 AD F1 27		    lda $27F1
  1120 8ED7 6D F2 27		    adc $27F2
  1121 8EDA 4A			    lsr
  1122 8EDB CD A0 28		    cmp $28A0
  1123 8EDE B0 12		    bcs loc_8EF2
  1124 8EE0 AD 86 28		    lda $2886
  1125 8EE3 10 04		    bpl loc_8EE9
  1126 8EE5 49 FF		    eor #$FF
  1127 8EE7 69 01		    adc #$01
  1128 8EE9			loc_8EE9:
  1129 8EE9 C9 10		    cmp #$10
  1130 8EEB B0 05		    bcs loc_8EF2
  1131 8EED A9 00		    lda #$00
  1132 8EEF 8D 86 28		    sta $2886
  1133 8EF2			loc_8EF2:
  1134 8EF2 AD 3D 29		    lda $293D
  1135 8EF5 D0 06		    bne loc_8EFD
  1136 8EF7 A9 C8		    lda #$C8
  1137 8EF9 8D 88 28		    sta $2888
  1138 8EFC 60			    rts
  1139 8EFD			loc_8EFD:
  1140 8EFD A2 38		    ldx #$38
  1141 8EFF AD 27 10		    lda $1027
  1142 8F02 29 AA		    and #$AA
  1143 8F04 D0 10		    bne loc_8F16
  1144 8F06 AD 57 10		    lda $1057
  1145 8F09 29 AA		    and #$AA
  1146 8F0B D0 09		    bne loc_8F16
  1147 8F0D AD 1D 06		    lda $061D
  1148 8F10 C9 2A		    cmp #$2A
  1149 8F12 90 02		    bcc loc_8F16
  1150 8F14 A2 00		    ldx #$00
  1151 8F16			loc_8F16:
  1152 8F16 8E 88 28		    stx $2888
  1153 8F19 AD A0 28		    lda $28A0
  1154 8F1C C9 2A		    cmp #$2A
  1155 8F1E 90 09		    bcc loc_8F29
  1156 8F20 AD 8E 28		    lda $288E
  1157 8F23 30 04		    bmi loc_8F29
  1158 8F25 A9 C8		    lda #$C8
  1159 8F27 D0 0C		    bne loc_8F35
  1160 8F29			loc_8F29:
  1161 8F29 A9 20		    lda #$20
  1162 8F2B ED A0 28		    sbc $28A0
  1163 8F2E C9 80		    cmp #$80
  1164 8F30 6A			    ror
  1165 8F31 30 02		    bmi loc_8F35
  1166 8F33 A9 00		    lda #$00
  1167 8F35			loc_8F35:
  1168 8F35 18			    clc
  1169 8F36 6D 88 28		    adc $2888
  1170 8F39 8D 88 28		    sta $2888
  1171 8F3C AD 37 29		    lda $2937
  1172 8F3F C9 30		    cmp #$30
  1173 8F41 90 05		    bcc loc_8F48
  1174 8F43 C9 D1		    cmp #$D1
  1175 8F45 B0 01		    bcs loc_8F48
  1176 8F47 60			    rts
  1177 8F48			loc_8F48:
  1178 8F48 0A			    asl
  1179 8F49 18			    clc
  1180 8F4A 6D 86 28		    adc $2886
  1181 8F4D 8D 86 28		    sta $2886
  1182 8F50 AD 38 29		    lda $2938
  1183 8F53 C9 20		    cmp #$20
  1184 8F55 90 05		    bcc loc_8F5C
  1185 8F57 C9 E1		    cmp #$E1
  1186 8F59 B0 01		    bcs loc_8F5C
  1187 8F5B 60			    rts
  1188 8F5C			loc_8F5C:
  1189 8F5C 0A			    asl
  1190 8F5D 49 FF		    eor #$FF
  1191 8F5F 18			    clc
  1192 8F60 6D 88 28		    adc $2888
  1193 8F63 8D 88 28		    sta $2888
  1194 8F66 60			    rts
  1195 8F67			sub_8F67:
  1196 8F67 AD 9A 28		    lda $289A
  1197 8F6A 8D F1 28		    sta $28F1
  1198 8F6D AD 99 28		    lda $2899
  1199 8F70 2A			    rol
  1200 8F71 2E F1 28		    rol $28F1
  1201 8F74 2A			    rol
  1202 8F75 2E F1 28		    rol $28F1
  1203 8F78 A2 00		    ldx #$00
  1204 8F7A 8E 92 28		    stx $2892
  1205 8F7D AD F1 28		    lda $28F1
  1206 8F80 0A			    asl
  1207 8F81 90 03		    bcc loc_8F86
  1208 8F83 CE 92 28		    dec $2892
  1209 8F86			loc_8F86:
  1210 8F86 0A			    asl
  1211 8F87 90 01		    bcc loc_8F8A
  1212 8F89 CA			    dex
  1213 8F8A			loc_8F8A:
  1214 8F8A 8A			    txa
  1215 8F8B 4D 92 28		    eor $2892
  1216 8F8E 8D 94 28		    sta $2894
  1217 8F91 A9 00		    lda #$00
  1218 8F93 2A			    rol
  1219 8F94 AA			    tax
  1220 8F95 AD F1 28		    lda $28F1
  1221 8F98 29 3F		    and #$3F
  1222 8F9A 8D F2 28		    sta $28F2
  1223 8F9D 8D F3 28		    sta $28F3
  1224 8FA0 49 3F		    eor #$3F
  1225 8FA2 9D F2 28		    sta $28F2,x
  1226 8FA5 FE F2 28		    inc $28F2,x
  1227 8FA8 AE F3 28		    ldx $28F3
  1228 8FAB BD 0E 90		    lda $900E,x
  1229 8FAE 8D F1 28		    sta $28F1
  1230 8FB1 AD 98 28		    lda $2898
  1231 8FB4 8D F0 28		    sta $28F0
  1232 8FB7 20 F9 8F		    jsr sub_8FF9
  1233 8FBA 8D 91 28		    sta $2891
  1234 8FBD C9 00		    cmp #$00
  1235 8FBF D0 03		    bne loc_8FC4
  1236 8FC1 8D 92 28		    sta $2892
  1237 8FC4			loc_8FC4:
  1238 8FC4 AD 92 28		    lda $2892
  1239 8FC7 F0 07		    beq loc_8FD0
  1240 8FC9 18			    clc
  1241 8FCA ED 91 28		    sbc $2891
  1242 8FCD 8D 91 28		    sta $2891
  1243 8FD0			loc_8FD0:
  1244 8FD0 AE F2 28		    ldx $28F2
  1245 8FD3 BD 0E 90		    lda $900E,x
  1246 8FD6 8D F1 28		    sta $28F1
  1247 8FD9 AD 98 28		    lda $2898
  1248 8FDC 8D F0 28		    sta $28F0
  1249 8FDF 20 F9 8F		    jsr sub_8FF9
  1250 8FE2 8D 93 28		    sta $2893
  1251 8FE5 C9 00		    cmp #$00
  1252 8FE7 D0 03		    bne loc_8FEC
  1253 8FE9 8D 94 28		    sta $2894
  1254 8FEC			loc_8FEC:
  1255 8FEC AD 94 28		    lda $2894
  1256 8FEF F0 07		    beq loc_8FF8
  1257 8FF1 18			    clc
  1258 8FF2 ED 93 28		    sbc $2893
  1259 8FF5 8D 93 28		    sta $2893
  1260 8FF8			loc_8FF8:
  1261 8FF8 60			    rts
  1262 8FF9			sub_8FF9:
  1263 8FF9 A9 00		    lda #$00
  1264 8FFB F0 06		    beq loc_9003
  1265 8FFD			loc_8FFD:
  1266 8FFD 4E F1 28		    lsr $28F1
  1267 9000 6D F1 28		    adc $28F1
  1268 9003			loc_9003:
  1269 9003 0E F0 28		    asl $28F0
  1270 9006 B0 F5		    bcs loc_8FFD
  1271 9008 4E F1 28		    lsr $28F1
  1272 900B D0 F6		    bne loc_9003
  1273 900D 60			    rts
  1274 900E 00 06 0C 12 18 1F +     .byte $00,$06,$0C,$12,$18,$1F,$25,$2B,$31,$37,$3D,$44,$4A,$4F,$55,$5B ; $900E
  1275 901E 61 67 6D 72 78 7D +     .byte $61,$67,$6D,$72,$78,$7D,$83,$88,$8D,$92,$97,$9C,$A1,$A6,$AB,$AF ; $901E
  1276 902E B4 B8 BC C1 C5 C9 +     .byte $B4,$B8,$BC,$C1,$C5,$C9,$CC,$D0,$D4,$D7,$DA,$DD,$E0,$E3,$E6,$E9 ; $902E
  1277 903E EB ED F0 F2 F4 F5 +     .byte $EB,$ED,$F0,$F2,$F4,$F5,$F7,$F8,$FA,$FB,$FC,$FD,$FD,$FE,$FE,$FE ; $903E
  1278 904E FF 00 42 83 C2 FE +     .byte $FF,$00,$42,$83,$C2,$FE,$36,$6A,$98,$BF,$DE,$F5,$03,$05,$FD,$E8 ; $904E
  1279 905E C5 95 56 06 A6 34 +     .byte $C5,$95,$56,$06,$A6,$34,$B0,$18,$6C,$AB,$D4,$E7,$E2,$C5,$8F,$3F ; $905E
  1280 906E D5 4F AE F1 16 1E +     .byte $D5,$4F,$AE,$F1,$16,$1E,$07,$D1,$7B,$06,$70,$B8,$DF,$E3,$C5,$84 ; $906E
  1281 907E 1F 96 E9 17 21 05 +     .byte $1F,$96,$E9,$17,$21,$05,$C3,$5B,$CD,$19,$3E,$3D,$15,$C5,$4F,$B1 ; $907E
  1282 908E EC 00 01 00 00 00 +     .byte $EC,$00,$01,$00,$00,$00,$00,$00,$00,$00,$00,$00,$01,$00,$00,$00 ; $908E
  1283 909E 00 01 00 00 00 00 +     .byte $00,$01,$00,$00,$00,$00,$01,$00,$00,$00,$01,$00,$00,$01,$00,$00 ; $909E
  1284 90AE 01 00 01 00 01 00 +     .byte $01,$00,$01,$00,$01,$00,$01,$00,$01,$00,$01,$01,$01,$01,$01 ; $90AE
  1285 90BD			init_sound:
  1286 90BD A0 0E		    ldy #$0E
  1287 90BF A9 00		    lda #$00
  1288 90C1 8D 3B 07		    sta $073B
  1289 90C4 8D 3C 07		    sta $073C
  1290 90C7			loc_90C7:
  1291 90C7 99 6D 06		    sta $066D,y
  1292 90CA 99 07 07		    sta $0707,y
  1293 90CD 99 89 06		    sta $0689,y
  1294 90D0 99 97 06		    sta $0697,y
  1295 90D3 99 A5 06		    sta $06A5,y
  1296 90D6 99 B3 06		    sta $06B3,y
  1297 90D9 99 C1 06		    sta $06C1,y
  1298 90DC 99 CF 06		    sta $06CF,y
  1299 90DF 99 DD 06		    sta $06DD,y
  1300 90E2 99 EB 06		    sta $06EB,y
  1301 90E5 99 F9 06		    sta $06F9,y
  1302 90E8 88			    dey
  1303 90E9 D0 DC		    bne loc_90C7
  1304 90EB 8D 16 07		    sta $0716
  1305 90EE A9 02		    lda #$02
  1306 90F0 8D 17 07		    sta $0717
  1307 90F3 A0 04		    ldy #$04
  1308 90F5			loc_90F5:
  1309 90F5 98			    tya
  1310 90F6 0A			    asl
  1311 90F7 99 07 07		    sta $0707,y
  1312 90FA AA			    tax
  1313 90FB A9 00		    lda #$00
  1314 90FD 9D FF D1		    sta PDVS,x
  1315 9100 88			    dey
  1316 9101 D0 F2		    bne loc_90F5
  1317 9103 8D 08 07		    sta $0708
  1318 9106 8D 0A 07		    sta $070A
  1319 9109 A9 02		    lda #$02
  1320 910B 8D 14 07		    sta $0714
  1321 910E A9 06		    lda #$06
  1322 9110 8D 15 07		    sta $0715
  1323 9113 A9 60		    lda #$60
  1324 9115 8D 08 D2		    sta AUDCTL
  1325 9118 60			    rts
  1326 9119			sub_9119:
  1327 9119 AD 2A 06		    lda $062A
  1328 911C F0 03		    beq loc_9121
  1329 911E 20 E7 91		    jsr sub_91E7
  1330 9121			loc_9121:
  1331 9121 A0 0E		    ldy #$0E
  1332 9123			loc_9123:
  1333 9123 A9 00		    lda #$00
  1334 9125 8D 1A 07		    sta $071A
  1335 9128 B9 DD 06		    lda $06DD,y
  1336 912B F0 34		    beq loc_9161
  1337 912D 18			    clc
  1338 912E 79 EB 06		    adc $06EB,y
  1339 9131 10 05		    bpl loc_9138
  1340 9133 69 0A		    adc #$0A
  1341 9135 4C 3E 91		    jmp loc_913E
  1342 9138			loc_9138:
  1343 9138 C9 2D		    cmp #$2D
  1344 913A 90 02		    bcc loc_913E
  1345 913C A9 2C		    lda #$2C
  1346 913E			loc_913E:
  1347 913E 99 EB 06		    sta $06EB,y
  1348 9141 AA			    tax
  1349 9142 BD 90 90		    lda $9090,x
  1350 9145 F0 1A		    beq loc_9161
  1351 9147 18			    clc
  1352 9148 B9 7B 06		    lda $067B,y
  1353 914B 79 C1 06		    adc $06C1,y
  1354 914E 99 7B 06		    sta $067B,y
  1355 9151 D9 CF 06		    cmp $06CF,y
  1356 9154 D0 08		    bne loc_915E
  1357 9156 A9 00		    lda #$00
  1358 9158 99 DD 06		    sta $06DD,y
  1359 915B EE 1A 07		    inc $071A
  1360 915E			loc_915E:
  1361 915E 20 FC 92		    jsr sub_92FC
  1362 9161			loc_9161:
  1363 9161 B9 A5 06		    lda $06A5,y
  1364 9164 F0 36		    beq loc_919C
  1365 9166 18			    clc
  1366 9167 79 B3 06		    adc $06B3,y
  1367 916A 10 05		    bpl loc_9171
  1368 916C 69 0A		    adc #$0A
  1369 916E 4C 77 91		    jmp loc_9177
  1370 9171			loc_9171:
  1371 9171 C9 2D		    cmp #$2D
  1372 9173 90 02		    bcc loc_9177
  1373 9175 A9 2C		    lda #$2C
  1374 9177			loc_9177:
  1375 9177 99 B3 06		    sta $06B3,y
  1376 917A AA			    tax
  1377 917B BD 90 90		    lda $9090,x
  1378 917E F0 1C		    beq loc_919C
  1379 9180 18			    clc
  1380 9181 B9 6D 06		    lda $066D,y
  1381 9184 79 89 06		    adc $0689,y
  1382 9187 29 0F		    and #$0F
  1383 9189 99 6D 06		    sta $066D,y
  1384 918C D9 97 06		    cmp $0697,y
  1385 918F D0 08		    bne loc_9199
  1386 9191 A9 00		    lda #$00
  1387 9193 99 A5 06		    sta $06A5,y
  1388 9196 EE 1A 07		    inc $071A
  1389 9199			loc_9199:
  1390 9199 20 90 92		    jsr sub_9290
  1391 919C			loc_919C:
  1392 919C AD 1A 07		    lda $071A
  1393 919F F0 06		    beq loc_91A7
  1394 91A1 BE F9 06		    ldx $06F9,y
  1395 91A4 20 AA 94		    jsr sub_94AA
  1396 91A7			loc_91A7:
  1397 91A7 88			    dey
  1398 91A8 F0 03		    beq loc_91AD
  1399 91AA 4C 23 91		    jmp loc_9123
  1400 91AD			loc_91AD:
  1401 91AD A9 1F		    lda #$1F
  1402 91AF CD 3B 07		    cmp $073B
  1403 91B2 B0 03		    bcs loc_91B7
  1404 91B4 8D 3B 07		    sta $073B
  1405 91B7			loc_91B7:
  1406 91B7 CD 3C 07		    cmp $073C
  1407 91BA B0 03		    bcs loc_91BF
  1408 91BC 8D 3C 07		    sta $073C
  1409 91BF			loc_91BF:
  1410 91BF AC 3C 07		    ldy $073C
  1411 91C2 CC 3B 07		    cpy $073B
  1412 91C5 F0 1F		    beq loc_91E6
  1413 91C7 B9 1B 07		    lda $071B,y
  1414 91CA 10 09		    bpl loc_91D5
  1415 91CC 29 7F		    and #$7F
  1416 91CE AA			    tax
  1417 91CF 20 B1 94		    jsr sub_94B1
  1418 91D2 4C D9 91		    jmp loc_91D9
  1419 91D5			loc_91D5:
  1420 91D5 A8			    tay
  1421 91D6 20 AA 92		    jsr sub_92AA
  1422 91D9			loc_91D9:
  1423 91D9 CE 3C 07		    dec $073C
  1424 91DC 10 05		    bpl loc_91E3
  1425 91DE A9 1F		    lda #$1F
  1426 91E0 8D 3C 07		    sta $073C
  1427 91E3			loc_91E3:
  1428 91E3 4C BF 91		    jmp loc_91BF
  1429 91E6			loc_91E6:
  1430 91E6 60			    rts
  1431 91E7			sub_91E7:
  1432 91E7 C9 01		    cmp #$01
  1433 91E9 D0 03		    bne loc_91EE
  1434 91EB 4C 19 92		    jmp loc_9219
  1435 91EE			loc_91EE:
  1436 91EE CE 2C 06		    dec $062C
  1437 91F1 10 1C		    bpl loc_920F
  1438 91F3 AD 0A D2		    lda RANDOM
  1439 91F6 29 03		    and #$03
  1440 91F8 18			    clc
  1441 91F9 69 01		    adc #$01
  1442 91FB 8D 2C 06		    sta $062C
  1443 91FE AD 0A D2		    lda RANDOM
  1444 9201 A8			    tay
  1445 9202 09 70		    ora #$70
  1446 9204 8D 04 D2		    sta AUDF3
  1447 9207 98			    tya
  1448 9208 29 7F		    and #$7F
  1449 920A 09 17		    ora #$17
  1450 920C 8D 00 D2		    sta AUDF1
  1451 920F			loc_920F:
  1452 920F A9 04		    lda #$04
  1453 9211 8D 08 D2		    sta AUDCTL
  1454 9214 A9 03		    lda #$03
  1455 9216 4C 67 92		    jmp loc_9267
  1456 9219			loc_9219:
  1457 9219 AC 2B 06		    ldy $062B
  1458 921C 88			    dey
  1459 921D 10 02		    bpl loc_9221
  1460 921F A0 07		    ldy #$07
  1461 9221			loc_9221:
  1462 9221 8C 2B 06		    sty $062B
  1463 9224 38			    sec
  1464 9225 AD 2E 06		    lda $062E
  1465 9228 F9 70 92		    sbc $9270,y
  1466 922B 8D 2E 06		    sta $062E
  1467 922E 8D 00 D2		    sta AUDF1
  1468 9231 38			    sec
  1469 9232 AD 2F 06		    lda $062F
  1470 9235 F9 70 92		    sbc $9270,y
  1471 9238 8D 2F 06		    sta $062F
  1472 923B 8D 04 D2		    sta AUDF3
  1473 923E AC 2D 06		    ldy $062D
  1474 9241 CE 30 06		    dec $0630
  1475 9244 10 10		    bpl loc_9256
  1476 9246 C8			    iny
  1477 9247 C8			    iny
  1478 9248 C0 0F		    cpy #$0F
  1479 924A 90 07		    bcc loc_9253
  1480 924C A0 0F		    ldy #$0F
  1481 924E A9 32		    lda #$32
  1482 9250 8D 30 06		    sta $0630
  1483 9253			loc_9253:
  1484 9253 4C 63 92		    jmp loc_9263
  1485 9256			loc_9256:
  1486 9256 D0 0B		    bne loc_9263
  1487 9258 88			    dey
  1488 9259 C0 06		    cpy #$06
  1489 925B D0 03		    bne loc_9260
  1490 925D EE 2A 06		    inc $062A
  1491 9260			loc_9260:
  1492 9260 EE 30 06		    inc $0630
  1493 9263			loc_9263:
  1494 9263 8C 2D 06		    sty $062D
  1495 9266 98			    tya
  1496 9267			loc_9267:
  1497 9267 09 A0		    ora #$A0
  1498 9269 8D 01 D2		    sta AUDC1
  1499 926C 8D 05 D2		    sta AUDC3
  1500 926F 60			    rts
  1501 9270 01 00 FF 00 FF 00 +     .byte $01,$00,$FF,$00,$FF,$00,$01,$00,$04,$04,$04,$04,$04,$04,$04,$04 ; $9270
  1502 9280 06 06 06 06 06 06 +     .byte $06,$06,$06,$06,$06,$06,$06,$06,$08,$08,$08,$08,$08,$08,$08,$08 ; $9280
  1503 9290			sub_9290:
  1504 9290 8A			    txa
  1505 9291 48			    pha
  1506 9292 98			    tya
  1507 9293			loc_9293:
  1508 9293 AE 3B 07		    ldx $073B
  1509 9296 E0 20		    cpx #$20
  1510 9298 90 02		    bcc loc_929C
  1511 929A A2 1F		    ldx #$1F
  1512 929C			loc_929C:
  1513 929C 9D 1B 07		    sta $071B,x
  1514 929F CA			    dex
  1515 92A0 10 02		    bpl loc_92A4
  1516 92A2 A2 1F		    ldx #$1F
  1517 92A4			loc_92A4:
  1518 92A4 8E 3B 07		    stx $073B
  1519 92A7 68			    pla
  1520 92A8 AA			    tax
  1521 92A9 60			    rts
  1522 92AA			sub_92AA:
  1523 92AA 98			    tya
  1524 92AB 48			    pha
  1525 92AC B9 07 07		    lda $0707,y
  1526 92AF D0 25		    bne loc_92D6
  1527 92B1 B9 6D 06		    lda $066D,y
  1528 92B4 29 0F		    and #$0F
  1529 92B6 CD 16 07		    cmp $0716
  1530 92B9 90 3E		    bcc loc_92F9
  1531 92BB D0 05		    bne loc_92C2
  1532 92BD CC 17 07		    cpy $0717
  1533 92C0 90 37		    bcc loc_92F9
  1534 92C2			loc_92C2:
  1535 92C2 AE 17 07		    ldx $0717
  1536 92C5 BD 07 07		    lda $0707,x
  1537 92C8 99 07 07		    sta $0707,y
  1538 92CB A9 00		    lda #$00
  1539 92CD 9D 07 07		    sta $0707,x
  1540 92D0 20 08 93		    jsr sub_9308
  1541 92D3 4C F6 92		    jmp loc_92F6
  1542 92D6			loc_92D6:
  1543 92D6 C0 0D		    cpy #$0D
  1544 92D8 B0 19		    bcs loc_92F3
  1545 92DA 20 44 93		    jsr sub_9344
  1546 92DD AE 17 07		    ldx $0717
  1547 92E0 EC 19 07		    cpx $0719
  1548 92E3 F0 0E		    beq loc_92F3
  1549 92E5 AC 19 07		    ldy $0719
  1550 92E8 BD 07 07		    lda $0707,x
  1551 92EB 99 07 07		    sta $0707,y
  1552 92EE A9 00		    lda #$00
  1553 92F0 9D 07 07		    sta $0707,x
  1554 92F3			loc_92F3:
  1555 92F3 20 08 93		    jsr sub_9308
  1556 92F6			loc_92F6:
  1557 92F6 20 1F 93		    jsr sub_931F
  1558 92F9			loc_92F9:
  1559 92F9 68			    pla
  1560 92FA A8			    tay
  1561 92FB 60			    rts
  1562 92FC			sub_92FC:
  1563 92FC BE 07 07		    ldx $0707,y
  1564 92FF F0 06		    beq loc_9307
  1565 9301 B9 7B 06		    lda $067B,y
  1566 9304 9D FE D1		    sta $D1FE,x
  1567 9307			loc_9307:
  1568 9307 60			    rts
  1569 9308			sub_9308:
  1570 9308 BE 07 07		    ldx $0707,y
  1571 930B F0 11		    beq loc_931E
  1572 930D B9 7B 06		    lda $067B,y
  1573 9310 9D FE D1		    sta $D1FE,x
  1574 9313 B9 6D 06		    lda $066D,y
  1575 9316 29 0F		    and #$0F
  1576 9318 19 5F 06		    ora $065F,y
  1577 931B 9D FF D1		    sta PDVS,x
  1578 931E			loc_931E:
  1579 931E 60			    rts
  1580 931F			sub_931F:
  1581 931F A9 10		    lda #$10
  1582 9321 8D 18 07		    sta $0718
  1583 9324 A2 00		    ldx #$00
  1584 9326			loc_9326:
  1585 9326 E8			    inx
  1586 9327 BD 07 07		    lda $0707,x
  1587 932A F0 13		    beq loc_933F
  1588 932C BD 6D 06		    lda $066D,x
  1589 932F 29 0F		    and #$0F
  1590 9331 CD 18 07		    cmp $0718
  1591 9334 B0 09		    bcs loc_933F
  1592 9336 8D 18 07		    sta $0718
  1593 9339 8D 16 07		    sta $0716
  1594 933C 8E 17 07		    stx $0717
  1595 933F			loc_933F:
  1596 933F E0 0C		    cpx #$0C
  1597 9341 90 E3		    bcc loc_9326
  1598 9343 60			    rts
  1599 9344			sub_9344:
  1600 9344 A2 00		    ldx #$00
  1601 9346 8E 18 07		    stx $0718
  1602 9349			loc_9349:
  1603 9349 E8			    inx
  1604 934A BD 07 07		    lda $0707,x
  1605 934D F0 05		    beq loc_9354
  1606 934F EC 17 07		    cpx $0717
  1607 9352 D0 10		    bne loc_9364
  1608 9354			loc_9354:
  1609 9354 BD 6D 06		    lda $066D,x
  1610 9357 29 0F		    and #$0F
  1611 9359 CD 18 07		    cmp $0718
  1612 935C 90 06		    bcc loc_9364
  1613 935E 8D 18 07		    sta $0718
  1614 9361 8E 19 07		    stx $0719
  1615 9364			loc_9364:
  1616 9364 E0 0C		    cpx #$0C
  1617 9366 90 E1		    bcc loc_9349
  1618 9368 60			    rts
  1619 9369 05 05 05 06 06 04 +     .byte $05,$05,$05,$06,$06,$04,$06,$06,$07,$03,$04,$03,$04,$04,$07,$03 ; $9369
  1620 9379 04 03 03 03 05 08 +     .byte $04,$03,$03,$03,$05,$08,$08,$08,$09,$08,$09,$0A,$03,$03,$01,$02 ; $9379
  1621 9389 03 44 00 00 21 2F +     .byte $03,$44,$00,$00,$21,$2F,$8F,$20,$27,$0F,$A1,$C1,$AF,$CF,$0F,$00 ; $9389
  1622 9399 A8 8A A8 08 A4 00 +     .byte $A8,$8A,$A8,$08,$A4,$00,$07,$01,$07,$01,$46,$2E,$C3,$A8,$A8,$A0 ; $9399
  1623 93A9 A0 A4 3A 00 00 00 +     .byte $A0,$A4,$3A,$00,$00,$00,$0F,$00,$00,$07,$FF,$FF,$43,$FF,$43,$BF ; $93A9
  1624 93B9 FF 1E 00 0F FF 2F +     .byte $FF,$1E,$00,$0F,$FF,$2F,$00,$00,$00,$40,$18,$08,$B1,$28,$3F,$1F ; $93B9
  1625 93C9 FE FF 0B 00 01 01 +     .byte $FE,$FF,$0B,$00,$01,$01,$01,$01,$FF,$01,$FF,$FF,$01,$01,$FF,$FF ; $93C9
  1626 93D9 FF 01 FF 01 FF 01 +     .byte $FF,$01,$FF,$01,$FF,$01,$FF,$00,$01,$01,$01,$FF,$01,$01,$FF,$FF ; $93D9
  1627 93E9 FF 00 00 FF 00 01 +     .byte $FF,$00,$00,$FF,$00,$01,$01,$02,$FF,$FF,$01,$FF,$FF,$01,$01,$FF ; $93E9
  1628 93F9 FF FF 01 FF 01 F8 +     .byte $FF,$FF,$01,$FF,$01,$F8,$F8,$FC,$00,$FF,$01,$F9,$FF,$FE,$FE,$FD ; $93F9
  1629 9409 F8 F8 00 00 FC 00 +     .byte $F8,$F8,$00,$00,$FC,$00,$08,$00,$0F,$00,$00,$07,$00,$00,$0F,$0F ; $9409
  1630 9419 00 00 00 0F 00 0F +     .byte $00,$00,$00,$0F,$00,$0F,$00,$00,$00,$00,$01,$07,$00,$00,$00,$00 ; $9419
  1631 9429 00 00 00 00 00 00 +     .byte $00,$00,$00,$00,$00,$00,$00,$0F,$2D,$2D,$2D,$2D,$2D,$28,$28,$0F ; $9429
  1632 9439 0F 2D 2D 2A 2D 2A +     .byte $0F,$2D,$2D,$2A,$2D,$2A,$2D,$02,$2D,$04,$00,$2D,$0F,$2D,$02,$2D ; $9439
  1633 9449 2A 0A 02 02 00 00 +     .byte $2A,$0A,$02,$02,$00,$00,$03,$01,$01,$01,$01,$01,$01,$01,$01,$00 ; $9449
  1634 9459 00 00 00 00 00 00 +     .byte $00,$00,$00,$00,$00,$00,$00,$00,$00,$00,$00,$00,$00,$00,$00,$00 ; $9459
  1635 9469 00 00 00 00 00 00 +     .byte $00,$00,$00,$00,$00,$00,$00,$00,$FF,$04,$04,$01,$01,$06,$01,$01 ; $9469
  1636 9479 1F FC FC FC FC FF +     .byte $1F,$FC,$FC,$FC,$FC,$FF,$FC,$FC,$2D,$2D,$2D,$2D,$2D,$2D,$2D,$2D ; $9479
  1637 9489 00 15 00 05 00 00 +     .byte $00,$15,$00,$05,$00,$00,$08,$00,$00,$0C,$0D,$00,$00,$00,$09,$00 ; $9489
  1638 9499 06 00 00 00 00 17 +     .byte $06,$00,$00,$00,$00,$17,$18,$00,$00,$00,$00,$00,$1E,$12,$00,$00 ; $9499
  1639 94A9 00			    .byte $00                                              ; $94A9
  1640 94AA			sub_94AA:
  1641 94AA 8A			    txa
  1642 94AB 48			    pha
  1643 94AC 09 80		    ora #$80
  1644 94AE 4C 93 92		    jmp loc_9293
  1645 94B1			sub_94B1:
  1646 94B1 8A			    txa
  1647 94B2 48			    pha
  1648 94B3 98			    tya
  1649 94B4 48			    pha
  1650 94B5 CA			    dex
  1651 94B6 30 53		    bmi loc_950B
  1652 94B8 BC 69 93		    ldy $9369,x
  1653 94BB BD 8A 93		    lda $938A,x
  1654 94BE 48			    pha
  1655 94BF 29 F0		    and #$F0
  1656 94C1 99 5F 06		    sta $065F,y
  1657 94C4 68			    pla
  1658 94C5 29 0F		    and #$0F
  1659 94C7 99 6D 06		    sta $066D,y
  1660 94CA BD AB 93		    lda $93AB,x
  1661 94CD 99 7B 06		    sta $067B,y
  1662 94D0 BD CC 93		    lda $93CC,x
  1663 94D3 99 A5 06		    sta $06A5,y
  1664 94D6 BD ED 93		    lda $93ED,x
  1665 94D9 99 89 06		    sta $0689,y
  1666 94DC BD 0E 94		    lda $940E,x
  1667 94DF 99 97 06		    sta $0697,y
  1668 94E2 BD 2F 94		    lda $942F,x
  1669 94E5 99 B3 06		    sta $06B3,y
  1670 94E8 BD 50 94		    lda $9450,x
  1671 94EB 99 DD 06		    sta $06DD,y
  1672 94EE F0 12		    beq loc_9502
  1673 94F0 BD 71 94		    lda $9471,x
  1674 94F3 99 C1 06		    sta $06C1,y
  1675 94F6 BD 79 94		    lda $9479,x
  1676 94F9 99 CF 06		    sta $06CF,y
  1677 94FC BD 81 94		    lda $9481,x
  1678 94FF 99 EB 06		    sta $06EB,y
  1679 9502			loc_9502:
  1680 9502 BD 89 94		    lda $9489,x
  1681 9505 99 F9 06		    sta $06F9,y
  1682 9508 20 90 92		    jsr sub_9290
  1683 950B			loc_950B:
  1684 950B 68			    pla
  1685 950C A8			    tay
  1686 950D 68			    pla
  1687 950E AA			    tax
  1688 950F 60			    rts
  1689 9510			sub_9510:
  1690 9510 A2 01		    ldx #$01
  1691 9512 8E 40 07		    stx $0740
  1692 9515 CA			    dex
  1693 9516 8E 08 D2		    stx AUDCTL
  1694 9519 8E 3D 07		    stx $073D
  1695 951C CA			    dex
  1696 951D 8E 3F 07		    stx $073F
  1697 9520 60			    rts
  1698 9521			sub_9521:
  1699 9521 20 B7 7D		    jsr wait_2_frames
  1700 9524 AD 40 07		    lda $0740
  1701 9527 F0 27		    beq loc_9550
  1702 9529 CE 3D 07		    dec $073D
  1703 952C 10 03		    bpl loc_9531
  1704 952E 20 68 95		    jsr sub_9568
  1705 9531			loc_9531:
  1706 9531 AD 3D 07		    lda $073D
  1707 9534 4A			    lsr
  1708 9535 C9 03		    cmp #$03
  1709 9537 90 02		    bcc loc_953B
  1710 9539 A9 02		    lda #$02
  1711 953B			loc_953B:
  1712 953B 69 A0		    adc #$A0
  1713 953D 8D 01 D2		    sta AUDC1
  1714 9540 8D 03 D2		    sta AUDC2
  1715 9543 8D 05 D2		    sta AUDC3
  1716 9546 AC 3E 07		    ldy $073E
  1717 9549 F0 05		    beq loc_9550
  1718 954B 69 01		    adc #$01
  1719 954D 99 FF D1		    sta PDVS,y
  1720 9550			loc_9550:
  1721 9550 60			    rts
  1722 9551			sub_9551:
  1723 9551 A9 00		    lda #$00
  1724 9553 8D 40 07		    sta $0740
  1725 9556 8D 01 D2		    sta AUDC1
  1726 9559 8D 03 D2		    sta AUDC2
  1727 955C 8D 05 D2		    sta AUDC3
  1728 955F 8D 07 D2		    sta AUDC4
  1729 9562 A0 60		    ldy #$60
  1730 9564 8C 08 D2		    sty AUDCTL
  1731 9567 60			    rts
  1732 9568			sub_9568:
  1733 9568 AE 3F 07		    ldx $073F
  1734 956B			loc_956B:
  1735 956B E8			    inx
  1736 956C			loc_956C:
  1737 956C BD EE 95		    lda $95EE,x
  1738 956F D0 03		    bne loc_9574
  1739 9571 AA			    tax
  1740 9572 F0 F8		    beq loc_956C
  1741 9574			loc_9574:
  1742 9574 10 23		    bpl loc_9599
  1743 9576 29 1F		    and #$1F
  1744 9578 A8			    tay
  1745 9579 B9 C7 95		    lda $95C7,y
  1746 957C 8D 00 D2		    sta AUDF1
  1747 957F B9 BA 95		    lda $95BA,y
  1748 9582 8D 02 D2		    sta AUDF2
  1749 9585 B9 AD 95		    lda $95AD,y
  1750 9588 8D 04 D2		    sta AUDF3
  1751 958B B9 D4 95		    lda $95D4,y
  1752 958E 8D 06 D2		    sta AUDF4
  1753 9591 B9 E1 95		    lda $95E1,y
  1754 9594 8D 07 D2		    sta AUDC4
  1755 9597 D0 D2		    bne loc_956B
  1756 9599			loc_9599:
  1757 9599 8E 3F 07		    stx $073F
  1758 959C A8			    tay
  1759 959D 29 1F		    and #$1F
  1760 959F 8D 3D 07		    sta $073D
  1761 95A2 98			    tya
  1762 95A3 6A			    ror
  1763 95A4 6A			    ror
  1764 95A5 6A			    ror
  1765 95A6 6A			    ror
  1766 95A7 29 06		    and #$06
  1767 95A9 8D 3E 07		    sta $073E
  1768 95AC 60			    rts
  1769 95AD 43 38 2C 3B 38 25 +     .byte $43,$38,$2C,$3B,$38,$25,$32,$2C,$32,$2A,$2A,$25,$21,$54,$43,$38 ; $95AD
  1770 95BD 47 43 2C 3B 38 3F +     .byte $47,$43,$2C,$3B,$38,$3F,$38,$38,$2C,$2A,$71,$54,$43,$5A,$5A,$38 ; $95BD
  1771 95CD 4B 4B 54 43 43 38 +     .byte $4B,$4B,$54,$43,$43,$38,$38,$0A,$0A,$D7,$3F,$D7,$F2,$F2,$78,$CB ; $95CD
  1772 95DD 0A 15 78 0A 22 22 +     .byte $0A,$15,$78,$0A,$22,$22,$C2,$C2,$C2,$C2,$C2,$C2,$C2,$22,$22,$C2 ; $95DD
  1773 95ED 22 80 50 22 43 6B +     .byte $22,$80,$50,$22,$43,$6B,$4B,$81,$50,$22,$43,$77,$82,$50,$22,$43 ; $95ED
  1774 95FD 6B 83 2B 84 50 22 +     .byte $6B,$83,$2B,$84,$50,$22,$43,$77,$84,$50,$22,$43,$6B,$4B,$82,$50 ; $95FD
  1775 960D 22 43 77 85 50 22 +     .byte $22,$43,$77,$85,$50,$22,$43,$6B,$86,$2B,$87,$50,$22,$43,$71,$45 ; $960D
  1776 961D 88 50 22 43 89 71 +     .byte $88,$50,$22,$43,$89,$71,$45,$88,$50,$22,$43,$8A,$77,$88,$50,$22 ; $961D
  1777 962D 43 8B 6B 2B 8C 50 +     .byte $43,$8B,$6B,$2B,$8C,$50,$22,$43,$77,$88,$50,$22,$43,$89,$71,$45 ; $962D
  1778 963D 88 50 22 43 8A 77 +     .byte $88,$50,$22,$43,$8A,$77,$88,$50,$22,$43,$8B,$6B,$2B,$8C,$50,$22 ; $963D
  1779 964D 43 77 00		    .byte $43,$77,$00                                      ; $964D
  1780 9650			sub_9650:
  1781 9650 A9 00		    lda #$00
  1782 9652 8D 08 D2		    sta AUDCTL
  1783 9655 8D 50 06		    sta $0650
  1784 9658 A9 01		    lda #$01
  1785 965A 8D 52 06		    sta $0652
  1786 965D 8D 54 06		    sta $0654
  1787 9660 60			    rts
  1788 9661			sub_9661:
  1789 9661 A9 49		    lda #$49
  1790 9663 8D 56 06		    sta $0656
  1791 9666 A9 97		    lda #$97
  1792 9668 8D 57 06		    sta $0657
  1793 966B 4C 50 96		    jmp sub_9650
  1794 966E			sub_966E:
  1795 966E AD 50 06		    lda $0650
  1796 9671 F0 16		    beq loc_9689
  1797 9673 CE 50 06		    dec $0650
  1798 9676 D0 0E		    bne loc_9686
  1799 9678 A9 FF		    lda #$FF
  1800 967A 8D 4E 06		    sta $064E
  1801 967D 8D 4C 06		    sta $064C
  1802 9680 8D 4A 06		    sta $064A
  1803 9683 8D 48 06		    sta $0648
  1804 9686			loc_9686:
  1805 9686 4C F1 96		    jmp loc_96F1
  1806 9689			loc_9689:
  1807 9689 CE 52 06		    dec $0652
  1808 968C D0 63		    bne loc_96F1
  1809 968E 18			    clc
  1810 968F AD 56 06		    lda $0656
  1811 9692 85 88		    sta $88
  1812 9694 69 05		    adc #$05
  1813 9696 8D 56 06		    sta $0656
  1814 9699 AD 57 06		    lda $0657
  1815 969C 85 89		    sta $89
  1816 969E 69 00		    adc #$00
  1817 96A0 8D 57 06		    sta $0657
  1818 96A3 A0 00		    ldy #$00
  1819 96A5 B1 88		    lda ($88),y
  1820 96A7 D0 1B		    bne loc_96C4
  1821 96A9 8D 54 06		    sta $0654
  1822 96AC 8D 01 D2		    sta AUDC1
  1823 96AF 8D 03 D2		    sta AUDC2
  1824 96B2 8D 05 D2		    sta AUDC3
  1825 96B5 8D 07 D2		    sta AUDC4
  1826 96B8 AD 1E 06		    lda $061E
  1827 96BB D0 06		    bne loc_96C3
  1828 96BD 20 BD 90		    jsr init_sound
  1829 96C0 4C 10 95		    jmp sub_9510
  1830 96C3			loc_96C3:
  1831 96C3 60			    rts
  1832 96C4			loc_96C4:
  1833 96C4 8D 52 06		    sta $0652
  1834 96C7 A9 04		    lda #$04
  1835 96C9 8D 50 06		    sta $0650
  1836 96CC A2 06		    ldx #$06
  1837 96CE			loc_96CE:
  1838 96CE C8			    iny
  1839 96CF B1 88		    lda ($88),y
  1840 96D1 D0 09		    bne loc_96DC
  1841 96D3 9D 47 06		    sta $0647,x
  1842 96D6 9D 48 06		    sta $0648,x
  1843 96D9 4C ED 96		    jmp loc_96ED
  1844 96DC			loc_96DC:
  1845 96DC C9 01		    cmp #$01
  1846 96DE F0 0D		    beq loc_96ED
  1847 96E0 9D 00 D2		    sta AUDF1,x
  1848 96E3 A9 50		    lda #$50
  1849 96E5 9D 47 06		    sta $0647,x
  1850 96E8 A9 FC		    lda #$FC
  1851 96EA 9D 48 06		    sta $0648,x
  1852 96ED			loc_96ED:
  1853 96ED CA			    dex
  1854 96EE CA			    dex
  1855 96EF 10 DD		    bpl loc_96CE
  1856 96F1			loc_96F1:
  1857 96F1 A2 06		    ldx #$06
  1858 96F3			loc_96F3:
  1859 96F3 18			    clc
  1860 96F4 BD 47 06		    lda $0647,x
  1861 96F7 7D 48 06		    adc $0648,x
  1862 96FA 10 02		    bpl loc_96FE
  1863 96FC A9 00		    lda #$00
  1864 96FE			loc_96FE:
  1865 96FE 9D 47 06		    sta $0647,x
  1866 9701 4A			    lsr
  1867 9702 4A			    lsr
  1868 9703 4A			    lsr
  1869 9704 5D 0F 97		    eor $970F,x
  1870 9707 9D 01 D2		    sta AUDC1,x
  1871 970A CA			    dex
  1872 970B CA			    dex
  1873 970C 10 E5		    bpl loc_96F3
  1874 970E 60			    rts
  1875 970F A0 00 A0 00 A0 00 +     .byte $A0,$00,$A0,$00,$A0,$00,$C0,$0F,$A1,$87,$65,$50,$03,$A1,$65,$50 ; $970F
  1876 971F 43 03 01 6B 54 47 +     .byte $43,$03,$01,$6B,$54,$47,$03,$01,$65,$50,$43,$0F,$A1,$50,$43,$32 ; $971F
  1877 972F 0F A1 43 38 27 0F +     .byte $0F,$A1,$43,$38,$27,$0F,$F2,$4B,$3B,$32,$06,$3F,$4B,$3B,$32,$06 ; $972F
  1878 973F D7 78 65 4B 33 F2 +     .byte $D7,$78,$65,$4B,$33,$F2,$CB,$98,$78,$00,$2D,$A1,$A0,$87,$71,$15 ; $973F
  1879 974F 69 00 00 00 15 CB +     .byte $69,$00,$00,$00,$15,$CB,$A0,$CB,$00,$2D,$F2,$98,$00,$00,$2D,$A1 ; $974F
  1880 975F 98 7F 65 15 98 98 +     .byte $98,$7F,$65,$15,$98,$98,$87,$6B,$15,$01,$98,$7F,$65,$2D,$CB,$01 ; $975F
  1881 976F 01 01 2D D7 A0 7F +     .byte $01,$01,$2D,$D7,$A0,$7F,$65,$2D,$AA,$AA,$7F,$6B,$35,$A1,$A0,$87 ; $976F
  1882 977F 71 3D B6 A0 7F 65 +     .byte $71,$3D,$B6,$A0,$7F,$65,$45,$CB,$CB,$98,$7F,$4D,$D7,$CB,$98,$7F ; $977F
  1883 978F 4D F2 CB 98 7F 25 +     .byte $4D,$F2,$CB,$98,$7F,$25,$00,$00,$00,$00,$04,$00,$00,$00,$4B,$4D ; $978F
  1884 979F F2 7F 5A 50 4D 01 +     .byte $F2,$7F,$5A,$50,$4D,$01,$01,$01,$01,$00          ; $979F
  1885 97A9			sub_97A9:
  1886 97A9 AD 9C 28		    lda $289C
  1887 97AC 8D F8 27		    sta $27F8
  1888 97AF AD 9B 28		    lda $289B
  1889 97B2 4E F8 27		    lsr $27F8
  1890 97B5 6A			    ror
  1891 97B6 4E F8 27		    lsr $27F8
  1892 97B9 6A			    ror
  1893 97BA 4E F8 27		    lsr $27F8
  1894 97BD 6A			    ror
  1895 97BE 4E F8 27		    lsr $27F8
  1896 97C1 6A			    ror
  1897 97C2 8D F7 27		    sta $27F7
  1898 97C5 8D FD 27		    sta $27FD
  1899 97C8 8D 02 28		    sta $2802
  1900 97CB AD F8 27		    lda $27F8
  1901 97CE 8D FE 27		    sta $27FE
  1902 97D1 8D 03 28		    sta $2803
  1903 97D4 AD 9E 28		    lda $289E
  1904 97D7 8D FA 27		    sta $27FA
  1905 97DA AD 9D 28		    lda $289D
  1906 97DD 4E FA 27		    lsr $27FA
  1907 97E0 6A			    ror
  1908 97E1 4E FA 27		    lsr $27FA
  1909 97E4 6A			    ror
  1910 97E5 4E FA 27		    lsr $27FA
  1911 97E8 6A			    ror
  1912 97E9 4E FA 27		    lsr $27FA
  1913 97EC 6A			    ror
  1914 97ED 8D F9 27		    sta $27F9
  1915 97F0 8D FF 27		    sta $27FF
  1916 97F3 8D 04 28		    sta $2804
  1917 97F6 AD FA 27		    lda $27FA
  1918 97F9 8D 00 28		    sta $2800
  1919 97FC 8D 05 28		    sta $2805
  1920 97FF AD A0 28		    lda $28A0
  1921 9802 C9 40		    cmp #$40
  1922 9804 90 02		    bcc loc_9808
  1923 9806 A9 3F		    lda #$3F
  1924 9808			loc_9808:
  1925 9808 8D FC 27		    sta $27FC
  1926 980B AD 9F 28		    lda $289F
  1927 980E 0A			    asl
  1928 980F 2E FC 27		    rol $27FC
  1929 9812 0A			    asl
  1930 9813 2E FC 27		    rol $27FC
  1931 9816 8D FB 27		    sta $27FB
  1932 9819 20 C2 99		    jsr sub_99C2
  1933 981C AD 01 28		    lda $2801
  1934 981F 4A			    lsr
  1935 9820 69 00		    adc #$00
  1936 9822 4A			    lsr
  1937 9823 69 00		    adc #$00
  1938 9825 8D F3 27		    sta $27F3
  1939 9828 38			    sec
  1940 9829 A9 37		    lda #$37
  1941 982B ED F3 27		    sbc $27F3
  1942 982E B0 02		    bcs loc_9832
  1943 9830 A9 00		    lda #$00
  1944 9832			loc_9832:
  1945 9832 8D 1C 28		    sta $281C
  1946 9835 38			    sec
  1947 9836 AD FC 27		    lda $27FC
  1948 9839 ED 01 28		    sbc $2801
  1949 983C 90 0E		    bcc loc_984C
  1950 983E 8D 1D 06		    sta $061D
  1951 9841 AD 40 28		    lda $2840
  1952 9844 D0 03		    bne loc_9849
  1953 9846 20 E7 9A		    jsr sub_9AE7
  1954 9849			loc_9849:
  1955 9849 4C 6E 98		    jmp loc_986E
  1956 984C			loc_984C:
  1957 984C AD 5F 06		    lda $065F
  1958 984F C9 00		    cmp #$00
  1959 9851 F0 03		    beq loc_9856
  1960 9853 20 A5 9A		    jsr sub_9AA5
  1961 9856			loc_9856:
  1962 9856 EE A0 28		    inc $28A0
  1963 9859 A9 00		    lda #$00
  1964 985B 8D 9F 28		    sta $289F
  1965 985E 8D 1D 06		    sta $061D
  1966 9861 AD 8E 28		    lda $288E
  1967 9864 10 08		    bpl loc_986E
  1968 9866 EE 8E 28		    inc $288E
  1969 9869 A9 00		    lda #$00
  1970 986B 8D 8D 28		    sta $288D
  1971 986E			loc_986E:
  1972 986E 38			    sec
  1973 986F A9 37		    lda #$37
  1974 9871 ED A0 28		    sbc $28A0
  1975 9874 B0 11		    bcs loc_9887
  1976 9876 49 FF		    eor #$FF
  1977 9878 38			    sec
  1978 9879 6D 1C 28		    adc $281C
  1979 987C C9 38		    cmp #$38
  1980 987E 90 02		    bcc loc_9882
  1981 9880 A9 38		    lda #$38
  1982 9882			loc_9882:
  1983 9882 8D 1C 28		    sta $281C
  1984 9885 A9 00		    lda #$00
  1985 9887			loc_9887:
  1986 9887 8D 1D 28		    sta $281D
  1987 988A 20 B1 98		    jsr sub_98B1
  1988 988D AD 6E 06		    lda $066E
  1989 9890 C9 08		    cmp #$08
  1990 9892 90 0B		    bcc loc_989F
  1991 9894 A9 01		    lda #$01
  1992 9896 8D 80 28		    sta $2880
  1993 9899 20 22 9B		    jsr sub_9B22
  1994 989C 4C B0 98		    jmp loc_98B0
  1995 989F			loc_989F:
  1996 989F AC 80 28		    ldy $2880
  1997 98A2 F0 0C		    beq loc_98B0
  1998 98A4 C9 04		    cmp #$04
  1999 98A6 B0 08		    bcs loc_98B0
  2000 98A8 A9 00		    lda #$00
  2001 98AA 8D 80 28		    sta $2880
  2002 98AD 8D AC 28		    sta $28AC
  2003 98B0			loc_98B0:
  2004 98B0 60			    rts
  2005 98B1			sub_98B1:
  2006 98B1 4E 38 28		    lsr $2838
  2007 98B4 B0 04		    bcs loc_98BA
  2008 98B6 EE 38 28		    inc $2838
  2009 98B9 60			    rts
  2010 98BA			loc_98BA:
  2011 98BA AD 0A 28		    lda $280A
  2012 98BD 8D 06 28		    sta $2806
  2013 98C0 AD 0B 28		    lda $280B
  2014 98C3 A0 04		    ldy #$04
  2015 98C5			loc_98C5:
  2016 98C5 C9 80		    cmp #$80
  2017 98C7 6A			    ror
  2018 98C8 6E 06 28		    ror $2806
  2019 98CB 88			    dey
  2020 98CC D0 F7		    bne loc_98C5
  2021 98CE 8D 07 28		    sta $2807
  2022 98D1 AD 0C 28		    lda $280C
  2023 98D4 8D 08 28		    sta $2808
  2024 98D7 AD 0D 28		    lda $280D
  2025 98DA A0 04		    ldy #$04
  2026 98DC			loc_98DC:
  2027 98DC C9 80		    cmp #$80
  2028 98DE 6A			    ror
  2029 98DF 6E 08 28		    ror $2808
  2030 98E2 88			    dey
  2031 98E3 D0 F7		    bne loc_98DC
  2032 98E5 8D 09 28		    sta $2809
  2033 98E8 4E 37 28		    lsr $2837
  2034 98EB B0 69		    bcs loc_9956
  2035 98ED EE 37 28		    inc $2837
  2036 98F0 38			    sec
  2037 98F1 AD 02 28		    lda $2802
  2038 98F4 ED 08 28		    sbc $2808
  2039 98F7 8D FD 27		    sta $27FD
  2040 98FA AD 03 28		    lda $2803
  2041 98FD ED 09 28		    sbc $2809
  2042 9900 8D FE 27		    sta $27FE
  2043 9903 18			    clc
  2044 9904 AD 04 28		    lda $2804
  2045 9907 6D 06 28		    adc $2806
  2046 990A 8D FF 27		    sta $27FF
  2047 990D AD 05 28		    lda $2805
  2048 9910 6D 07 28		    adc $2807
  2049 9913 8D 00 28		    sta $2800
  2050 9916 20 C2 99		    jsr sub_99C2
  2051 9919 4E 01 28		    lsr $2801
  2052 991C AD 01 28		    lda $2801
  2053 991F 4A			    lsr
  2054 9920 8D F1 27		    sta $27F1
  2055 9923 AD FC 27		    lda $27FC
  2056 9926 4A			    lsr
  2057 9927 18			    clc
  2058 9928 6D 8A 28		    adc $288A
  2059 992B 18			    clc
  2060 992C 69 0F		    adc #$0F
  2061 992E 38			    sec
  2062 992F ED 01 28		    sbc $2801
  2063 9932 B0 02		    bcs loc_9936
  2064 9934 A9 00		    lda #$00
  2065 9936			loc_9936:
  2066 9936 8D F0 27		    sta $27F0
  2067 9939 38			    sec
  2068 993A A9 38		    lda #$38
  2069 993C ED F0 27		    sbc $27F0
  2070 993F B0 02		    bcs sub_9943
  2071 9941 A9 00		    lda #$00
  2072 9943			sub_9943:
  2073 9943 8D 35 28		    sta $2835
  2074 9946 CD 45 28		    cmp $2845
  2075 9949 F0 0A		    beq loc_9955
  2076 994B 8D 45 28		    sta $2845
  2077 994E A2 00		    ldx #$00
  2078 9950 A0 00		    ldy #$00
  2079 9952 4C 3F 48		    jmp loc_4842
  2080 9955			loc_9955:
  2081 9955 60			    rts
  2082 9956			loc_9956:
  2083 9956 18			    clc
  2084 9957 AD 02 28		    lda $2802
  2085 995A 6D 08 28		    adc $2808
  2086 995D 8D FD 27		    sta $27FD
  2087 9960 AD 03 28		    lda $2803
  2088 9963 6D 09 28		    adc $2809
  2089 9966 8D FE 27		    sta $27FE
  2090 9969 38			    sec
  2091 996A AD 04 28		    lda $2804
  2092 996D ED 06 28		    sbc $2806
  2093 9970 8D FF 27		    sta $27FF
  2094 9973 AD 05 28		    lda $2805
  2095 9976 ED 07 28		    sbc $2807
  2096 9979 8D 00 28		    sta $2800
  2097 997C 20 C2 99		    jsr sub_99C2
  2098 997F 4E 01 28		    lsr $2801
  2099 9982 AD 01 28		    lda $2801
  2100 9985 4A			    lsr
  2101 9986 8D F2 27		    sta $27F2
  2102 9989 AD FC 27		    lda $27FC
  2103 998C 4A			    lsr
  2104 998D 38			    sec
  2105 998E ED 8A 28		    sbc $288A
  2106 9991 18			    clc
  2107 9992 69 0F		    adc #$0F
  2108 9994 38			    sec
  2109 9995 ED 01 28		    sbc $2801
  2110 9998 B0 02		    bcs loc_999C
  2111 999A A9 00		    lda #$00
  2112 999C			loc_999C:
  2113 999C 8D F0 27		    sta $27F0
  2114 999F 38			    sec
  2115 99A0 A9 38		    lda #$38
  2116 99A2 ED F0 27		    sbc $27F0
  2117 99A5 B0 02		    bcs sub_99A9
  2118 99A7 A9 00		    lda #$00
  2119 99A9			sub_99A9:
  2120 99A9 8D 36 28		    sta $2836
  2121 99AC CD 46 28		    cmp $2846
  2122 99AF F0 10		    beq loc_99C1
  2123 99B1 8D 46 28		    sta $2846
  2124 99B4 A2 04		    ldx #$04
  2125 99B6 A0 10		    ldy #$10
  2126 99B8 38			    sec
  2127 99B9 A9 38		    lda #$38
  2128 99BB ED 36 28		    sbc $2836
  2129 99BE 4C 3F 48		    jmp loc_4842
  2130 99C1			loc_99C1:
  2131 99C1 60			    rts
  2132 99C2			sub_99C2:
  2133 99C2 AD 00 28		    lda $2800
  2134 99C5 0A			    asl
  2135 99C6 0A			    asl
  2136 99C7 0A			    asl
  2137 99C8 0A			    asl
  2138 99C9 8D F6 27		    sta $27F6
  2139 99CC AD FE 27		    lda $27FE
  2140 99CF 29 0F		    and #$0F
  2141 99D1 0D F6 27		    ora $27F6
  2142 99D4 A8			    tay
  2143 99D5 B9 00 09		    lda terrain_height_buf,y
  2144 99D8 8D EA 27		    sta $27EA
  2145 99DB C8			    iny
  2146 99DC 98			    tya
  2147 99DD 29 0F		    and #$0F
  2148 99DF 0D F6 27		    ora $27F6
  2149 99E2 A8			    tay
  2150 99E3 B9 00 09		    lda terrain_height_buf,y
  2151 99E6 8D EB 27		    sta $27EB
  2152 99E9 18			    clc
  2153 99EA AD F6 27		    lda $27F6
  2154 99ED 69 10		    adc #$10
  2155 99EF 8D F6 27		    sta $27F6
  2156 99F2 AD FE 27		    lda $27FE
  2157 99F5 29 0F		    and #$0F
  2158 99F7 0D F6 27		    ora $27F6
  2159 99FA A8			    tay
  2160 99FB B9 00 09		    lda terrain_height_buf,y
  2161 99FE 8D EC 27		    sta $27EC
  2162 9A01 C8			    iny
  2163 9A02 98			    tya
  2164 9A03 29 0F		    and #$0F
  2165 9A05 0D F6 27		    ora $27F6
  2166 9A08 A8			    tay
  2167 9A09 B9 00 09		    lda terrain_height_buf,y
  2168 9A0C 8D ED 27		    sta $27ED
  2169 9A0F AE FD 27		    ldx $27FD
  2170 9A12 8E F4 27		    stx $27F4
  2171 9A15 A0 08		    ldy #$08
  2172 9A17 A9 00		    lda #$00
  2173 9A19			loc_9A19:
  2174 9A19 0E F4 27		    asl $27F4
  2175 9A1C B0 0E		    bcs loc_9A2C
  2176 9A1E 4E EB 27		    lsr $27EB
  2177 9A21 4E EA 27		    lsr $27EA
  2178 9A24 6D EA 27		    adc $27EA
  2179 9A27 88			    dey
  2180 9A28 D0 EF		    bne loc_9A19
  2181 9A2A F0 0C		    beq loc_9A38
  2182 9A2C			loc_9A2C:
  2183 9A2C 4E EA 27		    lsr $27EA
  2184 9A2F 4E EB 27		    lsr $27EB
  2185 9A32 6D EB 27		    adc $27EB
  2186 9A35 88			    dey
  2187 9A36 D0 E1		    bne loc_9A19
  2188 9A38			loc_9A38:
  2189 9A38 8D EE 27		    sta $27EE
  2190 9A3B 8E F4 27		    stx $27F4
  2191 9A3E A0 08		    ldy #$08
  2192 9A40 A9 00		    lda #$00
  2193 9A42			loc_9A42:
  2194 9A42 0E F4 27		    asl $27F4
  2195 9A45 B0 0E		    bcs loc_9A55
  2196 9A47 4E ED 27		    lsr $27ED
  2197 9A4A 4E EC 27		    lsr $27EC
  2198 9A4D 6D EC 27		    adc $27EC
  2199 9A50 88			    dey
  2200 9A51 D0 EF		    bne loc_9A42
  2201 9A53 F0 0C		    beq loc_9A61
  2202 9A55			loc_9A55:
  2203 9A55 4E EC 27		    lsr $27EC
  2204 9A58 4E ED 27		    lsr $27ED
  2205 9A5B 6D ED 27		    adc $27ED
  2206 9A5E 88			    dey
  2207 9A5F D0 E1		    bne loc_9A42
  2208 9A61			loc_9A61:
  2209 9A61 8D EF 27		    sta $27EF
  2210 9A64 AD FF 27		    lda $27FF
  2211 9A67 8D F5 27		    sta $27F5
  2212 9A6A A0 08		    ldy #$08
  2213 9A6C A9 00		    lda #$00
  2214 9A6E			loc_9A6E:
  2215 9A6E 0E F5 27		    asl $27F5
  2216 9A71 B0 0E		    bcs loc_9A81
  2217 9A73 4E EF 27		    lsr $27EF
  2218 9A76 4E EE 27		    lsr $27EE
  2219 9A79 6D EE 27		    adc $27EE
  2220 9A7C 88			    dey
  2221 9A7D D0 EF		    bne loc_9A6E
  2222 9A7F F0 0C		    beq loc_9A8D
  2223 9A81			loc_9A81:
  2224 9A81 4E EE 27		    lsr $27EE
  2225 9A84 4E EF 27		    lsr $27EF
  2226 9A87 6D EF 27		    adc $27EF
  2227 9A8A 88			    dey
  2228 9A8B D0 E1		    bne loc_9A6E
  2229 9A8D			loc_9A8D:
  2230 9A8D 8D 01 28		    sta $2801
  2231 9A90 4A			    lsr
  2232 9A91 4A			    lsr
  2233 9A92 4A			    lsr
  2234 9A93 4A			    lsr
  2235 9A94 A8			    tay
  2236 9A95 18			    clc
  2237 9A96 6D 01 28		    adc $2801
  2238 9A99 8D 01 28		    sta $2801
  2239 9A9C 98			    tya
  2240 9A9D 4A			    lsr
  2241 9A9E 6D 01 28		    adc $2801
  2242 9AA1 8D 01 28		    sta $2801
  2243 9AA4 60			    rts
  2244 9AA5			sub_9AA5:
  2245 9AA5 AD 97 28		    lda $2897
  2246 9AA8 09 40		    ora #$40
  2247 9AAA 8D 7E 28		    sta $287E
  2248 9AAD AD 25 06		    lda $0625
  2249 9AB0 D0 01		    bne loc_9AB3
  2250 9AB2 60			    rts
  2251 9AB3			loc_9AB3:
  2252 9AB3 A9 34		    lda #$34
  2253 9AB5 8D 55 33		    sta $3355
  2254 9AB8 A9 0A		    lda #$0A
  2255 9ABA CD 6E 06		    cmp $066E
  2256 9ABD F0 1B		    beq loc_9ADA
  2257 9ABF 8D 98 06		    sta $0698
  2258 9AC2 8D 99 06		    sta $0699
  2259 9AC5 A0 01		    ldy #$01
  2260 9AC7 8C 8A 06		    sty $068A
  2261 9ACA 8C 8B 06		    sty $068B
  2262 9ACD 8C A6 06		    sty $06A6
  2263 9AD0 8C A7 06		    sty $06A7
  2264 9AD3 20 90 92		    jsr sub_9290
  2265 9AD6 C8			    iny
  2266 9AD7 20 90 92		    jsr sub_9290
  2267 9ADA			loc_9ADA:
  2268 9ADA AD 98 28		    lda $2898
  2269 9ADD F0 03		    beq loc_9AE2
  2270 9ADF CE 98 28		    dec $2898
  2271 9AE2			loc_9AE2:
  2272 9AE2 A2 13		    ldx #$13
  2273 9AE4 4C AA 94		    jmp sub_94AA
  2274 9AE7			sub_9AE7:
  2275 9AE7 AD 6E 06		    lda $066E
  2276 9AEA F0 35		    beq loc_9B21
  2277 9AEC C9 02		    cmp #$02
  2278 9AEE B0 0A		    bcs loc_9AFA
  2279 9AF0 AD A6 06		    lda $06A6
  2280 9AF3 F0 2C		    beq loc_9B21
  2281 9AF5 AD 98 06		    lda $0698
  2282 9AF8 F0 27		    beq loc_9B21
  2283 9AFA			loc_9AFA:
  2284 9AFA A9 B4		    lda #$B4
  2285 9AFC 8D 55 33		    sta $3355
  2286 9AFF A9 00		    lda #$00
  2287 9B01 8D 7E 28		    sta $287E
  2288 9B04 8D 98 06		    sta $0698
  2289 9B07 8D 99 06		    sta $0699
  2290 9B0A A9 FF		    lda #$FF
  2291 9B0C 8D 8A 06		    sta $068A
  2292 9B0F 8D 8B 06		    sta $068B
  2293 9B12 A0 01		    ldy #$01
  2294 9B14 8C A6 06		    sty $06A6
  2295 9B17 8C A7 06		    sty $06A7
  2296 9B1A 20 90 92		    jsr sub_9290
  2297 9B1D C8			    iny
  2298 9B1E 4C 90 92		    jmp sub_9290
  2299 9B21			loc_9B21:
  2300 9B21 60			    rts
  2301 9B22			sub_9B22:
  2302 9B22 A9 01		    lda #$01
  2303 9B24 8D AC 28		    sta $28AC
  2304 9B27 A9 3C		    lda #$3C
  2305 9B29 85 DE		    sta $DE
  2306 9B2B A9 38		    lda #$38
  2307 9B2D 85 DD		    sta $DD
  2308 9B2F A9 34		    lda #$34
  2309 9B31 85 DB		    sta $DB
  2310 9B33 60			    rts
  2311 9B34 00 00 FF FF 00 3F +     .byte $00,$00,$FF,$FF,$00,$3F,$00,$3F                  ; $9B34
  2312 9B3C			sub_9B3C:
  2313 9B3C AD 9A 28		    lda $289A
  2314 9B3F 8D 0E 28		    sta $280E
  2315 9B42 AD 99 28		    lda $2899
  2316 9B45 0A			    asl
  2317 9B46 2E 0E 28		    rol $280E
  2318 9B49 0A			    asl
  2319 9B4A 2E 0E 28		    rol $280E
  2320 9B4D AD 99 28		    lda $2899
  2321 9B50 4A			    lsr
  2322 9B51 4A			    lsr
  2323 9B52 4A			    lsr
  2324 9B53 29 07		    and #$07
  2325 9B55 8D 0F 28		    sta $280F
  2326 9B58 20 80 9B		    jsr sub_9B80
  2327 9B5B AD 13 28		    lda $2813
  2328 9B5E 8D 0A 28		    sta $280A
  2329 9B61 AD 14 28		    lda $2814
  2330 9B64 8D 0B 28		    sta $280B
  2331 9B67 18			    clc
  2332 9B68 AD 0E 28		    lda $280E
  2333 9B6B 69 40		    adc #$40
  2334 9B6D 8D 0E 28		    sta $280E
  2335 9B70 20 80 9B		    jsr sub_9B80
  2336 9B73 AD 13 28		    lda $2813
  2337 9B76 8D 0C 28		    sta $280C
  2338 9B79 AD 14 28		    lda $2814
  2339 9B7C 8D 0D 28		    sta $280D
  2340 9B7F 60			    rts
  2341 9B80			sub_9B80:
  2342 9B80 EE 0E 28		    inc $280E
  2343 9B83 20 0E 9C		    jsr sub_9C0E
  2344 9B86 AD 12 28		    lda $2812
  2345 9B89 8D 18 28		    sta $2818
  2346 9B8C AD 13 28		    lda $2813
  2347 9B8F 8D 19 28		    sta $2819
  2348 9B92 AD 14 28		    lda $2814
  2349 9B95 8D 1A 28		    sta $281A
  2350 9B98 CE 0E 28		    dec $280E
  2351 9B9B 20 0E 9C		    jsr sub_9C0E
  2352 9B9E AD 12 28		    lda $2812
  2353 9BA1 8D 15 28		    sta $2815
  2354 9BA4 AD 13 28		    lda $2813
  2355 9BA7 8D 16 28		    sta $2816
  2356 9BAA AD 14 28		    lda $2814
  2357 9BAD 8D 17 28		    sta $2817
  2358 9BB0 AD 0F 28		    lda $280F
  2359 9BB3 8D 11 28		    sta $2811
  2360 9BB6 A0 03		    ldy #$03
  2361 9BB8			loc_9BB8:
  2362 9BB8 4E 11 28		    lsr $2811
  2363 9BBB 90 1F		    bcc loc_9BDC
  2364 9BBD 18			    clc
  2365 9BBE AD 12 28		    lda $2812
  2366 9BC1 6D 18 28		    adc $2818
  2367 9BC4 8D 12 28		    sta $2812
  2368 9BC7 AD 13 28		    lda $2813
  2369 9BCA 6D 19 28		    adc $2819
  2370 9BCD 8D 13 28		    sta $2813
  2371 9BD0 AD 14 28		    lda $2814
  2372 9BD3 6D 1A 28		    adc $281A
  2373 9BD6 8D 14 28		    sta $2814
  2374 9BD9 4C F8 9B		    jmp loc_9BF8
  2375 9BDC			loc_9BDC:
  2376 9BDC 18			    clc
  2377 9BDD AD 12 28		    lda $2812
  2378 9BE0 6D 15 28		    adc $2815
  2379 9BE3 8D 12 28		    sta $2812
  2380 9BE6 AD 13 28		    lda $2813
  2381 9BE9 6D 16 28		    adc $2816
  2382 9BEC 8D 13 28		    sta $2813
  2383 9BEF AD 14 28		    lda $2814
  2384 9BF2 6D 17 28		    adc $2817
  2385 9BF5 8D 14 28		    sta $2814
  2386 9BF8			loc_9BF8:
  2387 9BF8 0E 15 28		    asl $2815
  2388 9BFB 2E 16 28		    rol $2816
  2389 9BFE 2E 17 28		    rol $2817
  2390 9C01 0E 18 28		    asl $2818
  2391 9C04 2E 19 28		    rol $2819
  2392 9C07 2E 1A 28		    rol $281A
  2393 9C0A 88			    dey
  2394 9C0B D0 AB		    bne loc_9BB8
  2395 9C0D 60			    rts
  2396 9C0E			sub_9C0E:
  2397 9C0E A9 00		    lda #$00
  2398 9C10 8D 10 28		    sta $2810
  2399 9C13 AD 0E 28		    lda $280E
  2400 9C16 0A			    asl
  2401 9C17 2E 10 28		    rol $2810
  2402 9C1A 0A			    asl
  2403 9C1B 2E 10 28		    rol $2810
  2404 9C1E 4A			    lsr
  2405 9C1F 4A			    lsr
  2406 9C20 AE 10 28		    ldx $2810
  2407 9C23 5D 38 9B		    eor $9B38,x
  2408 9C26 A8			    tay
  2409 9C27 BD 34 9B		    lda $9B34,x
  2410 9C2A D0 12		    bne loc_9C3E
  2411 9C2C 8D 14 28		    sta $2814
  2412 9C2F B9 0E 90		    lda $900E,y
  2413 9C32 8D 13 28		    sta $2813
  2414 9C35 B9 4F 90		    lda $904F,y
  2415 9C38 8D 12 28		    sta $2812
  2416 9C3B 4C 56 9C		    jmp loc_9C56
  2417 9C3E			loc_9C3E:
  2418 9C3E 38			    sec
  2419 9C3F A9 00		    lda #$00
  2420 9C41 F9 4F 90		    sbc $904F,y
  2421 9C44 8D 12 28		    sta $2812
  2422 9C47 A9 00		    lda #$00
  2423 9C49 F9 0E 90		    sbc $900E,y
  2424 9C4C 8D 13 28		    sta $2813
  2425 9C4F A9 00		    lda #$00
  2426 9C51 E9 00		    sbc #$00
  2427 9C53 8D 14 28		    sta $2814
  2428 9C56			loc_9C56:
  2429 9C56 60			    rts
  2430 9C57 85 AB A9 00 18 6A +     .byte $85,$AB,$A9,$00,$18,$6A,$66,$AC,$90,$03,$18,$65,$AB,$6A,$66,$AC ; $9C57
  2431 9C67 90 03 18 65 AB 6A +     .byte $90,$03,$18,$65,$AB,$6A,$66,$AC,$90,$03,$18,$65,$AB,$6A,$66,$AC ; $9C67
  2432 9C77 90 03 18 65 AB 6A +     .byte $90,$03,$18,$65,$AB,$6A,$66,$AC,$90,$03,$18,$65,$AB,$6A,$66,$AC ; $9C77
  2433 9C87 90 03 18 65 AB 6A +     .byte $90,$03,$18,$65,$AB,$6A,$66,$AC,$90,$03,$18,$65,$AB,$6A,$66,$AC ; $9C87
  2434 9C97 90 03 18 65 AB 6A +     .byte $90,$03,$18,$65,$AB,$6A,$66,$AC,$60,$A0,$00,$85,$AB,$C9,$00,$10 ; $9C97
  2435 9CA7 07 98 38 E5 AB 85 +     .byte $07,$98,$38,$E5,$AB,$85,$AB,$C8,$A5,$AC,$10,$08,$A9,$00,$38,$E5 ; $9CA7
  2436 9CB7 AC 85 AC C8 20 59 +     .byte $AC,$85,$AC,$C8,$20,$59,$9C,$C0,$01,$D0,$0C,$49,$FF,$48,$98,$18 ; $9CB7
  2437 9CC7 E5 AC 85 AC 68 69 +     .byte $E5,$AC,$85,$AC,$68,$69,$00,$60                  ; $9CC7
  2438 9CCF			mul16_signed:
  2439 9CCF 85 AD		    sta $AD
  2440 9CD1 A9 00		    lda #$00
  2441 9CD3 85 AA		    sta $AA
  2442 9CD5 85 A9		    sta $A9
  2443 9CD7 A5 AC		    lda $AC
  2444 9CD9 85 AE		    sta $AE
  2445 9CDB 10 0D		    bpl loc_9CEA
  2446 9CDD 38			    sec
  2447 9CDE A9 00		    lda #$00
  2448 9CE0 E5 AB		    sbc $AB
  2449 9CE2 85 AB		    sta $AB
  2450 9CE4 A9 00		    lda #$00
  2451 9CE6 E5 AC		    sbc $AC
  2452 9CE8 85 AC		    sta $AC
  2453 9CEA			loc_9CEA:
  2454 9CEA 66 AD		    ror $AD
  2455 9CEC 90 08		    bcc loc_9CF6
  2456 9CEE A5 AB		    lda $AB
  2457 9CF0 85 A9		    sta $A9
  2458 9CF2 A5 AC		    lda $AC
  2459 9CF4 85 AA		    sta $AA
  2460 9CF6			loc_9CF6:
  2461 9CF6 46 AA		    lsr $AA
  2462 9CF8 66 A9		    ror $A9
  2463 9CFA 66 AD		    ror $AD
  2464 9CFC 90 0D		    bcc loc_9D0B
  2465 9CFE 18			    clc
  2466 9CFF A5 AB		    lda $AB
  2467 9D01 65 A9		    adc $A9
  2468 9D03 85 A9		    sta $A9
  2469 9D05 A5 AC		    lda $AC
  2470 9D07 65 AA		    adc $AA
  2471 9D09 85 AA		    sta $AA
  2472 9D0B			loc_9D0B:
  2473 9D0B 46 AA		    lsr $AA
  2474 9D0D 66 A9		    ror $A9
  2475 9D0F 66 AD		    ror $AD
  2476 9D11 90 0D		    bcc loc_9D20
  2477 9D13 18			    clc
  2478 9D14 A5 AB		    lda $AB
  2479 9D16 65 A9		    adc $A9
  2480 9D18 85 A9		    sta $A9
  2481 9D1A A5 AC		    lda $AC
  2482 9D1C 65 AA		    adc $AA
  2483 9D1E 85 AA		    sta $AA
  2484 9D20			loc_9D20:
  2485 9D20 46 AA		    lsr $AA
  2486 9D22 66 A9		    ror $A9
  2487 9D24 66 AD		    ror $AD
  2488 9D26 90 0D		    bcc loc_9D35
  2489 9D28 18			    clc
  2490 9D29 A5 AB		    lda $AB
  2491 9D2B 65 A9		    adc $A9
  2492 9D2D 85 A9		    sta $A9
  2493 9D2F A5 AC		    lda $AC
  2494 9D31 65 AA		    adc $AA
  2495 9D33 85 AA		    sta $AA
  2496 9D35			loc_9D35:
  2497 9D35 46 AA		    lsr $AA
  2498 9D37 66 A9		    ror $A9
  2499 9D39 66 AD		    ror $AD
  2500 9D3B 90 0D		    bcc loc_9D4A
  2501 9D3D 18			    clc
  2502 9D3E A5 AB		    lda $AB
  2503 9D40 65 A9		    adc $A9
  2504 9D42 85 A9		    sta $A9
  2505 9D44 A5 AC		    lda $AC
  2506 9D46 65 AA		    adc $AA
  2507 9D48 85 AA		    sta $AA
  2508 9D4A			loc_9D4A:
  2509 9D4A 46 AA		    lsr $AA
  2510 9D4C 66 A9		    ror $A9
  2511 9D4E 66 AD		    ror $AD
  2512 9D50 90 0D		    bcc loc_9D5F
  2513 9D52 18			    clc
  2514 9D53 A5 AB		    lda $AB
  2515 9D55 65 A9		    adc $A9
  2516 9D57 85 A9		    sta $A9
  2517 9D59 A5 AC		    lda $AC
  2518 9D5B 65 AA		    adc $AA
  2519 9D5D 85 AA		    sta $AA
  2520 9D5F			loc_9D5F:
  2521 9D5F 46 AA		    lsr $AA
  2522 9D61 66 A9		    ror $A9
  2523 9D63 66 AD		    ror $AD
  2524 9D65 90 0D		    bcc loc_9D74
  2525 9D67 18			    clc
  2526 9D68 A5 AB		    lda $AB
  2527 9D6A 65 A9		    adc $A9
  2528 9D6C 85 A9		    sta $A9
  2529 9D6E A5 AC		    lda $AC
  2530 9D70 65 AA		    adc $AA
  2531 9D72 85 AA		    sta $AA
  2532 9D74			loc_9D74:
  2533 9D74 46 AA		    lsr $AA
  2534 9D76 66 A9		    ror $A9
  2535 9D78 66 AD		    ror $AD
  2536 9D7A 90 0D		    bcc loc_9D89
  2537 9D7C 18			    clc
  2538 9D7D A5 AB		    lda $AB
  2539 9D7F 65 A9		    adc $A9
  2540 9D81 85 A9		    sta $A9
  2541 9D83 A5 AC		    lda $AC
  2542 9D85 65 AA		    adc $AA
  2543 9D87 85 AA		    sta $AA
  2544 9D89			loc_9D89:
  2545 9D89 46 AA		    lsr $AA
  2546 9D8B 66 A9		    ror $A9
  2547 9D8D 24 AE		    bit $AE
  2548 9D8F 10 0D		    bpl loc_9D9E
  2549 9D91 38			    sec
  2550 9D92 A9 00		    lda #$00
  2551 9D94 E5 A9		    sbc $A9
  2552 9D96 85 A9		    sta $A9
  2553 9D98 A9 00		    lda #$00
  2554 9D9A E5 AA		    sbc $AA
  2555 9D9C 85 AA		    sta $AA
  2556 9D9E			loc_9D9E:
  2557 9D9E 60			    rts
  2558 9D9F			loc_9D9F:
  2559 9D9F 06 B1		    asl $B1
  2560 9DA1 26 B2		    rol $B2
  2561 9DA3 06 AF		    asl $AF
  2562 9DA5 26 B0		    rol $B0
  2563 9DA7			div16:
  2564 9DA7 24 B0		    bit $B0
  2565 9DA9 50 F4		    bvc loc_9D9F
  2566 9DAB 06 B1		    asl $B1
  2567 9DAD 26 B2		    rol $B2
  2568 9DAF 30 04		    bmi loc_9DB5
  2569 9DB1 24 B2		    bit $B2
  2570 9DB3 50 10		    bvc loc_9DC5
  2571 9DB5			loc_9DB5:
  2572 9DB5 38			    sec
  2573 9DB6 A5 B1		    lda $B1
  2574 9DB8 E5 AF		    sbc $AF
  2575 9DBA A8			    tay
  2576 9DBB A5 B2		    lda $B2
  2577 9DBD E5 B0		    sbc $B0
  2578 9DBF 90 04		    bcc loc_9DC5
  2579 9DC1 84 B1		    sty $B1
  2580 9DC3 85 B2		    sta $B2
  2581 9DC5			loc_9DC5:
  2582 9DC5 26 B3		    rol $B3
  2583 9DC7 06 B1		    asl $B1
  2584 9DC9 26 B2		    rol $B2
  2585 9DCB 30 04		    bmi loc_9DD1
  2586 9DCD 24 B2		    bit $B2
  2587 9DCF 50 10		    bvc loc_9DE1
  2588 9DD1			loc_9DD1:
  2589 9DD1 38			    sec
  2590 9DD2 A5 B1		    lda $B1
  2591 9DD4 E5 AF		    sbc $AF
  2592 9DD6 A8			    tay
  2593 9DD7 A5 B2		    lda $B2
  2594 9DD9 E5 B0		    sbc $B0
  2595 9DDB 90 04		    bcc loc_9DE1
  2596 9DDD 84 B1		    sty $B1
  2597 9DDF 85 B2		    sta $B2
  2598 9DE1			loc_9DE1:
  2599 9DE1 26 B3		    rol $B3
  2600 9DE3 06 B1		    asl $B1
  2601 9DE5 26 B2		    rol $B2
  2602 9DE7 30 04		    bmi loc_9DED
  2603 9DE9 24 B2		    bit $B2
  2604 9DEB 50 10		    bvc loc_9DFD
  2605 9DED			loc_9DED:
  2606 9DED 38			    sec
  2607 9DEE A5 B1		    lda $B1
  2608 9DF0 E5 AF		    sbc $AF
  2609 9DF2 A8			    tay
  2610 9DF3 A5 B2		    lda $B2
  2611 9DF5 E5 B0		    sbc $B0
  2612 9DF7 90 04		    bcc loc_9DFD
  2613 9DF9 84 B1		    sty $B1
  2614 9DFB 85 B2		    sta $B2
  2615 9DFD			loc_9DFD:
  2616 9DFD 26 B3		    rol $B3
  2617 9DFF 06 B1		    asl $B1
  2618 9E01 26 B2		    rol $B2
  2619 9E03 30 04		    bmi loc_9E09
  2620 9E05 24 B2		    bit $B2
  2621 9E07 50 10		    bvc loc_9E19
  2622 9E09			loc_9E09:
  2623 9E09 38			    sec
  2624 9E0A A5 B1		    lda $B1
  2625 9E0C E5 AF		    sbc $AF
  2626 9E0E A8			    tay
  2627 9E0F A5 B2		    lda $B2
  2628 9E11 E5 B0		    sbc $B0
  2629 9E13 90 04		    bcc loc_9E19
  2630 9E15 84 B1		    sty $B1
  2631 9E17 85 B2		    sta $B2
  2632 9E19			loc_9E19:
  2633 9E19 26 B3		    rol $B3
  2634 9E1B 06 B1		    asl $B1
  2635 9E1D 26 B2		    rol $B2
  2636 9E1F 30 04		    bmi loc_9E25
  2637 9E21 24 B2		    bit $B2
  2638 9E23 50 10		    bvc loc_9E35
  2639 9E25			loc_9E25:
  2640 9E25 38			    sec
  2641 9E26 A5 B1		    lda $B1
  2642 9E28 E5 AF		    sbc $AF
  2643 9E2A A8			    tay
  2644 9E2B A5 B2		    lda $B2
  2645 9E2D E5 B0		    sbc $B0
  2646 9E2F 90 04		    bcc loc_9E35
  2647 9E31 84 B1		    sty $B1
  2648 9E33 85 B2		    sta $B2
  2649 9E35			loc_9E35:
  2650 9E35 26 B3		    rol $B3
  2651 9E37 06 B1		    asl $B1
  2652 9E39 26 B2		    rol $B2
  2653 9E3B 30 04		    bmi loc_9E41
  2654 9E3D 24 B2		    bit $B2
  2655 9E3F 50 10		    bvc loc_9E51
  2656 9E41			loc_9E41:
  2657 9E41 38			    sec
  2658 9E42 A5 B1		    lda $B1
  2659 9E44 E5 AF		    sbc $AF
  2660 9E46 A8			    tay
  2661 9E47 A5 B2		    lda $B2
  2662 9E49 E5 B0		    sbc $B0
  2663 9E4B 90 04		    bcc loc_9E51
  2664 9E4D 84 B1		    sty $B1
  2665 9E4F 85 B2		    sta $B2
  2666 9E51			loc_9E51:
  2667 9E51 26 B3		    rol $B3
  2668 9E53 06 B1		    asl $B1
  2669 9E55 26 B2		    rol $B2
  2670 9E57 30 04		    bmi loc_9E5D
  2671 9E59 24 B2		    bit $B2
  2672 9E5B 50 10		    bvc loc_9E6D
  2673 9E5D			loc_9E5D:
  2674 9E5D 38			    sec
  2675 9E5E A5 B1		    lda $B1
  2676 9E60 E5 AF		    sbc $AF
  2677 9E62 A8			    tay
  2678 9E63 A5 B2		    lda $B2
  2679 9E65 E5 B0		    sbc $B0
  2680 9E67 90 04		    bcc loc_9E6D
  2681 9E69 84 B1		    sty $B1
  2682 9E6B 85 B2		    sta $B2
  2683 9E6D			loc_9E6D:
  2684 9E6D 26 B3		    rol $B3
  2685 9E6F 06 B1		    asl $B1
  2686 9E71 26 B2		    rol $B2
  2687 9E73 30 04		    bmi loc_9E79
  2688 9E75 24 B2		    bit $B2
  2689 9E77 50 10		    bvc loc_9E89
  2690 9E79			loc_9E79:
  2691 9E79 38			    sec
  2692 9E7A A5 B1		    lda $B1
  2693 9E7C E5 AF		    sbc $AF
  2694 9E7E A8			    tay
  2695 9E7F A5 B2		    lda $B2
  2696 9E81 E5 B0		    sbc $B0
  2697 9E83 90 04		    bcc loc_9E89
  2698 9E85 84 B1		    sty $B1
  2699 9E87 85 B2		    sta $B2
  2700 9E89			loc_9E89:
  2701 9E89 26 B3		    rol $B3
  2702 9E8B 60			    rts
  2703 9E8C			transform_vertices:
  2704 9E8C 20 6C AD		    jsr load_camera
  2705 9E8F 20 DB A0		    jsr compute_offsets
  2706 9E92 A5 92		    lda $92
  2707 9E94 30 27		    bmi loc_9EBD
  2708 9E96 2A			    rol
  2709 9E97 30 1E		    bmi loc_9EB7
  2710 9E99 AD 9D 22		    lda $229D
  2711 9E9C 8D 9E 22		    sta $229E
  2712 9E9F AD CB 22		    lda $22CB
  2713 9EA2 8D CC 22		    sta $22CC
  2714 9EA5 AD F9 22		    lda $22F9
  2715 9EA8 8D FA 22		    sta $22FA
  2716 9EAB AD 27 23		    lda $2327
  2717 9EAE 8D 28 23		    sta $2328
  2718 9EB1 A2 FD		    ldx #$FD
  2719 9EB3 A0 B6		    ldy #$B6
  2720 9EB5 D0 13		    bne loc_9ECA
  2721 9EB7			loc_9EB7:
  2722 9EB7 A2 2A		    ldx #$2A
  2723 9EB9 A0 B7		    ldy #$B7
  2724 9EBB D0 0D		    bne loc_9ECA
  2725 9EBD			loc_9EBD:
  2726 9EBD 2A			    rol
  2727 9EBE 30 06		    bmi loc_9EC6
  2728 9EC0 A2 D0		    ldx #$D0
  2729 9EC2 A0 B6		    ldy #$B6
  2730 9EC4 D0 04		    bne loc_9ECA
  2731 9EC6			loc_9EC6:
  2732 9EC6 A2 A3		    ldx #$A3
  2733 9EC8 A0 B6		    ldy #$B6
  2734 9ECA			loc_9ECA:
  2735 9ECA 86 80		    stx $80
  2736 9ECC 84 81		    sty $81
  2737 9ECE A5 8A		    lda $8A
  2738 9ED0 2A			    rol
  2739 9ED1 2A			    rol
  2740 9ED2 2A			    rol
  2741 9ED3 2A			    rol
  2742 9ED4 29 F0		    and #$F0
  2743 9ED6 85 B7		    sta $B7
  2744 9ED8 A5 88		    lda $88
  2745 9EDA 29 0F		    and #$0F
  2746 9EDC AA			    tax
  2747 9EDD 05 B6		    ora $B6
  2748 9EDF 85 B5		    sta $B5
  2749 9EE1 A0 00		    ldy #$00
  2750 9EE3			loc_9EE3:
  2751 9EE3 B1 80		    lda ($80),y
  2752 9EE5 85 B6		    sta $B6
  2753 9EE7 10 2C		    bpl loc_9F15
  2754 9EE9 A5 B7		    lda $B7
  2755 9EEB 18			    clc
  2756 9EEC 69 F0		    adc #$F0
  2757 9EEE 85 B7		    sta $B7
  2758 9EF0 18			    clc
  2759 9EF1 B9 9D 22		    lda $229D,y
  2760 9EF4 65 A0		    adc $A0
  2761 9EF6 99 9E 22		    sta $229E,y
  2762 9EF9 B9 CB 22		    lda $22CB,y
  2763 9EFC 65 A1		    adc $A1
  2764 9EFE 99 CC 22		    sta $22CC,y
  2765 9F01 38			    sec
  2766 9F02 B9 F9 22		    lda $22F9,y
  2767 9F05 E5 A2		    sbc $A2
  2768 9F07 99 FA 22		    sta $22FA,y
  2769 9F0A B9 27 23		    lda $2327,y
  2770 9F0D E5 A3		    sbc $A3
  2771 9F0F 99 28 23		    sta $2328,y
  2772 9F12 4C 99 9F		    jmp loc_9F99
  2773 9F15			loc_9F15:
  2774 9F15 26 B6		    rol $B6
  2775 9F17 10 2C		    bpl loc_9F45
  2776 9F19 A5 B7		    lda $B7
  2777 9F1B 18			    clc
  2778 9F1C 69 10		    adc #$10
  2779 9F1E 85 B7		    sta $B7
  2780 9F20 38			    sec
  2781 9F21 B9 9D 22		    lda $229D,y
  2782 9F24 E5 A0		    sbc $A0
  2783 9F26 99 9E 22		    sta $229E,y
  2784 9F29 B9 CB 22		    lda $22CB,y
  2785 9F2C E5 A1		    sbc $A1
  2786 9F2E 99 CC 22		    sta $22CC,y
  2787 9F31 18			    clc
  2788 9F32 B9 F9 22		    lda $22F9,y
  2789 9F35 65 A2		    adc $A2
  2790 9F37 99 FA 22		    sta $22FA,y
  2791 9F3A B9 27 23		    lda $2327,y
  2792 9F3D 65 A3		    adc $A3
  2793 9F3F 99 28 23		    sta $2328,y
  2794 9F42 4C 99 9F		    jmp loc_9F99
  2795 9F45			loc_9F45:
  2796 9F45 26 B6		    rol $B6
  2797 9F47 10 26		    bpl loc_9F6F
  2798 9F49 CA			    dex
  2799 9F4A 38			    sec
  2800 9F4B B9 9D 22		    lda $229D,y
  2801 9F4E E5 A2		    sbc $A2
  2802 9F50 99 9E 22		    sta $229E,y
  2803 9F53 B9 CB 22		    lda $22CB,y
  2804 9F56 E5 A3		    sbc $A3
  2805 9F58 99 CC 22		    sta $22CC,y
  2806 9F5B 38			    sec
  2807 9F5C B9 F9 22		    lda $22F9,y
  2808 9F5F E5 A0		    sbc $A0
  2809 9F61 99 FA 22		    sta $22FA,y
  2810 9F64 B9 27 23		    lda $2327,y
  2811 9F67 E5 A1		    sbc $A1
  2812 9F69 99 28 23		    sta $2328,y
  2813 9F6C 4C EA 9F		    jmp loc_9FEA
  2814 9F6F			loc_9F6F:
  2815 9F6F 26 B6		    rol $B6
  2816 9F71 10 77		    bpl loc_9FEA
  2817 9F73 E8			    inx
  2818 9F74 18			    clc
  2819 9F75 B9 9D 22		    lda $229D,y
  2820 9F78 65 A2		    adc $A2
  2821 9F7A 99 9E 22		    sta $229E,y
  2822 9F7D B9 CB 22		    lda $22CB,y
  2823 9F80 65 A3		    adc $A3
  2824 9F82 99 CC 22		    sta $22CC,y
  2825 9F85 18			    clc
  2826 9F86 B9 F9 22		    lda $22F9,y
  2827 9F89 65 A0		    adc $A0
  2828 9F8B 99 FA 22		    sta $22FA,y
  2829 9F8E B9 27 23		    lda $2327,y
  2830 9F91 65 A1		    adc $A1
  2831 9F93 99 28 23		    sta $2328,y
  2832 9F96 4C EA 9F		    jmp loc_9FEA
  2833 9F99			loc_9F99:
  2834 9F99 26 B6		    rol $B6
  2835 9F9B 10 26		    bpl loc_9FC3
  2836 9F9D CA			    dex
  2837 9F9E 38			    sec
  2838 9F9F B9 9E 22		    lda $229E,y
  2839 9FA2 E5 A2		    sbc $A2
  2840 9FA4 99 9E 22		    sta $229E,y
  2841 9FA7 B9 CC 22		    lda $22CC,y
  2842 9FAA E5 A3		    sbc $A3
  2843 9FAC 99 CC 22		    sta $22CC,y
  2844 9FAF 38			    sec
  2845 9FB0 B9 FA 22		    lda $22FA,y
  2846 9FB3 E5 A0		    sbc $A0
  2847 9FB5 99 FA 22		    sta $22FA,y
  2848 9FB8 B9 28 23		    lda $2328,y
  2849 9FBB E5 A1		    sbc $A1
  2850 9FBD 99 28 23		    sta $2328,y
  2851 9FC0 4C EA 9F		    jmp loc_9FEA
  2852 9FC3			loc_9FC3:
  2853 9FC3 26 B6		    rol $B6
  2854 9FC5 10 23		    bpl loc_9FEA
  2855 9FC7 E8			    inx
  2856 9FC8 18			    clc
  2857 9FC9 B9 9E 22		    lda $229E,y
  2858 9FCC 65 A2		    adc $A2
  2859 9FCE 99 9E 22		    sta $229E,y
  2860 9FD1 B9 CC 22		    lda $22CC,y
  2861 9FD4 65 A3		    adc $A3
  2862 9FD6 99 CC 22		    sta $22CC,y
  2863 9FD9 18			    clc
  2864 9FDA B9 FA 22		    lda $22FA,y
  2865 9FDD 65 A0		    adc $A0
  2866 9FDF 99 FA 22		    sta $22FA,y
  2867 9FE2 B9 28 23		    lda $2328,y
  2868 9FE5 65 A1		    adc $A1
  2869 9FE7 99 28 23		    sta $2328,y
  2870 9FEA			loc_9FEA:
  2871 9FEA 38			    sec
  2872 9FEB A9 00		    lda #$00
  2873 9FED E5 8B		    sbc $8B
  2874 9FEF 85 B6		    sta $B6
  2875 9FF1 8A			    txa
  2876 9FF2 29 0F		    and #$0F
  2877 9FF4 05 B7		    ora $B7
  2878 9FF6 AA			    tax
  2879 9FF7 BD 00 09		    lda terrain_height_buf,x
  2880 9FFA 99 AF 23		    sta $23AF,y
  2881 9FFD E5 8C		    sbc $8C
  2882 9FFF 90 0F		    bcc loc_A010
  2883 A001 4A			    lsr
  2884 A002 66 B6		    ror $B6
  2885 A004 4A			    lsr
  2886 A005 66 B6		    ror $B6
  2887 A007 4A			    lsr
  2888 A008 66 B6		    ror $B6
  2889 A00A 4A			    lsr
  2890 A00B 66 B6		    ror $B6
  2891 A00D 4C 1E A0		    jmp loc_A01E
  2892 A010			loc_A010:
  2893 A010 4A			    lsr
  2894 A011 66 B6		    ror $B6
  2895 A013 4A			    lsr
  2896 A014 66 B6		    ror $B6
  2897 A016 4A			    lsr
  2898 A017 66 B6		    ror $B6
  2899 A019 4A			    lsr
  2900 A01A 66 B6		    ror $B6
  2901 A01C 49 F0		    eor #$F0
  2902 A01E			loc_A01E:
  2903 A01E 99 82 23		    sta $2382,y
  2904 A021 A5 B6		    lda $B6
  2905 A023 99 55 23		    sta $2355,y
  2906 A026 8A			    txa
  2907 A027 99 70 22		    sta $2270,y
  2908 A02A B9 28 23		    lda $2328,y
  2909 A02D 30 44		    bmi loc_A073
  2910 A02F D0 07		    bne loc_A038
  2911 A031 B9 FA 22		    lda $22FA,y
  2912 A034 C9 06		    cmp #$06
  2913 A036 90 3B		    bcc loc_A073
  2914 A038			loc_A038:
  2915 A038 B9 CC 22		    lda $22CC,y
  2916 A03B 10 1F		    bpl loc_A05C
  2917 A03D 38			    sec
  2918 A03E A9 00		    lda #$00
  2919 A040 F9 9E 22		    sbc $229E,y
  2920 A043 85 B6		    sta $B6
  2921 A045 A9 00		    lda #$00
  2922 A047 F9 CC 22		    sbc $22CC,y
  2923 A04A D9 28 23		    cmp $2328,y
  2924 A04D 90 20		    bcc loc_A06F
  2925 A04F D0 07		    bne loc_A058
  2926 A051 A5 B6		    lda $B6
  2927 A053 D9 FA 22		    cmp $22FA,y
  2928 A056 90 17		    bcc loc_A06F
  2929 A058			loc_A058:
  2930 A058 A9 40		    lda #$40
  2931 A05A D0 19		    bne loc_A075
  2932 A05C			loc_A05C:
  2933 A05C D9 28 23		    cmp $2328,y
  2934 A05F 90 0E		    bcc loc_A06F
  2935 A061 D0 08		    bne loc_A06B
  2936 A063 B9 9E 22		    lda $229E,y
  2937 A066 D9 FA 22		    cmp $22FA,y
  2938 A069 90 04		    bcc loc_A06F
  2939 A06B			loc_A06B:
  2940 A06B A9 20		    lda #$20
  2941 A06D D0 06		    bne loc_A075
  2942 A06F			loc_A06F:
  2943 A06F A9 00		    lda #$00
  2944 A071 F0 02		    beq loc_A075
  2945 A073			loc_A073:
  2946 A073 A9 80		    lda #$80
  2947 A075			loc_A075:
  2948 A075 99 90 24		    sta $2490,y
  2949 A078 C8			    iny
  2950 A079 C0 2D		    cpy #$2D
  2951 A07B F0 03		    beq loc_A080
  2952 A07D 4C E3 9E		    jmp loc_9EE3
  2953 A080			loc_A080:
  2954 A080 A0 00		    ldy #$00
  2955 A082			loc_A082:
  2956 A082 BE 57 B7		    ldx edge_adjacency,y
  2957 A085 8E F6 28		    stx $28F6
  2958 A088 C8			    iny
  2959 A089 BD 90 24		    lda $2490,x
  2960 A08C 30 23		    bmi loc_A0B1
  2961 A08E D0 42		    bne loc_A0D2
  2962 A090 BE 57 B7		    ldx edge_adjacency,y
  2963 A093 C8			    iny
  2964 A094 BD 90 24		    lda $2490,x
  2965 A097 10 3A		    bpl loc_A0D3
  2966 A099 84 B6		    sty $B6
  2967 A09B AC F6 28		    ldy $28F6
  2968 A09E A9 00		    lda #$00
  2969 A0A0 9D 28 23		    sta $2328,x
  2970 A0A3 A9 06		    lda #$06
  2971 A0A5 9D FA 22		    sta $22FA,x
  2972 A0A8 A9 00		    lda #$00
  2973 A0AA 9D 90 24		    sta $2490,x
  2974 A0AD A4 B6		    ldy $B6
  2975 A0AF D0 22		    bne loc_A0D3
  2976 A0B1			loc_A0B1:
  2977 A0B1 BE 57 B7		    ldx edge_adjacency,y
  2978 A0B4 C8			    iny
  2979 A0B5 BD 90 24		    lda $2490,x
  2980 A0B8 D0 19		    bne loc_A0D3
  2981 A0BA 84 B6		    sty $B6
  2982 A0BC AC F6 28		    ldy $28F6
  2983 A0BF A9 00		    lda #$00
  2984 A0C1 99 28 23		    sta $2328,y
  2985 A0C4 A9 06		    lda #$06
  2986 A0C6 99 FA 22		    sta $22FA,y
  2987 A0C9 A9 00		    lda #$00
  2988 A0CB 99 90 24		    sta $2490,y
  2989 A0CE A4 B6		    ldy $B6
  2990 A0D0 D0 01		    bne loc_A0D3
  2991 A0D2			loc_A0D2:
  2992 A0D2 C8			    iny
  2993 A0D3			loc_A0D3:
  2994 A0D3 C0 0C		    cpy #$0C
  2995 A0D5 B0 03		    bcs loc_A0DA
  2996 A0D7 4C 82 A0		    jmp loc_A082
  2997 A0DA			loc_A0DA:
  2998 A0DA 60			    rts
  2999 A0DB			compute_offsets:
  3000 A0DB A5 A0		    lda $A0
  3001 A0DD 85 AB		    sta $AB
  3002 A0DF A5 A1		    lda $A1
  3003 A0E1 85 AC		    sta $AC
  3004 A0E3 A5 89		    lda $89
  3005 A0E5 20 CF 9C		    jsr mul16_signed
  3006 A0E8 A5 A9		    lda $A9
  3007 A0EA 8D 9D 22		    sta $229D
  3008 A0ED A5 AA		    lda $AA
  3009 A0EF 8D CB 22		    sta $22CB
  3010 A0F2 A5 A2		    lda $A2
  3011 A0F4 85 AB		    sta $AB
  3012 A0F6 A5 A3		    lda $A3
  3013 A0F8 85 AC		    sta $AC
  3014 A0FA A5 87		    lda $87
  3015 A0FC 20 CF 9C		    jsr mul16_signed
  3016 A0FF 38			    sec
  3017 A100 AD 9D 22		    lda $229D
  3018 A103 E5 A9		    sbc $A9
  3019 A105 8D 9D 22		    sta $229D
  3020 A108 AD CB 22		    lda $22CB
  3021 A10B E5 AA		    sbc $AA
  3022 A10D 8D CB 22		    sta $22CB
  3023 A110 A5 A2		    lda $A2
  3024 A112 85 AB		    sta $AB
  3025 A114 A5 A3		    lda $A3
  3026 A116 85 AC		    sta $AC
  3027 A118 A5 89		    lda $89
  3028 A11A 20 CF 9C		    jsr mul16_signed
  3029 A11D A5 A9		    lda $A9
  3030 A11F 8D F9 22		    sta $22F9
  3031 A122 A5 AA		    lda $AA
  3032 A124 8D 27 23		    sta $2327
  3033 A127 A5 A0		    lda $A0
  3034 A129 85 AB		    sta $AB
  3035 A12B A5 A1		    lda $A1
  3036 A12D 85 AC		    sta $AC
  3037 A12F A5 87		    lda $87
  3038 A131 20 CF 9C		    jsr mul16_signed
  3039 A134 18			    clc
  3040 A135 A5 A9		    lda $A9
  3041 A137 6D F9 22		    adc $22F9
  3042 A13A 8D F9 22		    sta $22F9
  3043 A13D A5 AA		    lda $AA
  3044 A13F 6D 27 23		    adc $2327
  3045 A142 8D 27 23		    sta $2327
  3046 A145 38			    sec
  3047 A146 A9 00		    lda #$00
  3048 A148 ED F9 22		    sbc $22F9
  3049 A14B 8D F9 22		    sta $22F9
  3050 A14E A9 00		    lda #$00
  3051 A150 ED 27 23		    sbc $2327
  3052 A153 8D 27 23		    sta $2327
  3053 A156 60			    rts
  3054 A157			project_x:
  3055 A157 BD 90 24		    lda $2490,x
  3056 A15A 09 10		    ora #$10
  3057 A15C 9D 90 24		    sta $2490,x
  3058 A15F A0 00		    ldy #$00
  3059 A161 BD FA 22		    lda $22FA,x
  3060 A164 85 AF		    sta $AF
  3061 A166 BD 28 23		    lda $2328,x
  3062 A169 85 B0		    sta $B0
  3063 A16B BD CC 22		    lda $22CC,x
  3064 A16E 30 0A		    bmi loc_A17A
  3065 A170 85 B2		    sta $B2
  3066 A172 BD 9E 22		    lda $229E,x
  3067 A175 85 B1		    sta $B1
  3068 A177 4C 89 A1		    jmp loc_A189
  3069 A17A			loc_A17A:
  3070 A17A 38			    sec
  3071 A17B A9 00		    lda #$00
  3072 A17D FD 9E 22		    sbc $229E,x
  3073 A180 85 B1		    sta $B1
  3074 A182 A9 00		    lda #$00
  3075 A184 FD CC 22		    sbc $22CC,x
  3076 A187 85 B2		    sta $B2
  3077 A189			loc_A189:
  3078 A189 A5 B2		    lda $B2
  3079 A18B C5 B0		    cmp $B0
  3080 A18D 90 30		    bcc loc_A1BF
  3081 A18F D0 06		    bne loc_A197
  3082 A191 A5 B1		    lda $B1
  3083 A193 C5 AF		    cmp $AF
  3084 A195 90 28		    bcc loc_A1BF
  3085 A197			loc_A197:
  3086 A197 06 AF		    asl $AF
  3087 A199 26 B0		    rol $B0
  3088 A19B C8			    iny
  3089 A19C C0 08		    cpy #$08
  3090 A19E D0 E9		    bne loc_A189
  3091 A1A0 BD CC 22		    lda $22CC,x
  3092 A1A3 30 0D		    bmi loc_A1B2
  3093 A1A5 A9 40		    lda #$40
  3094 A1A7 9D 09 24		    sta $2409,x
  3095 A1AA A9 00		    lda #$00
  3096 A1AC 9D DC 23		    sta $23DC,x
  3097 A1AF 4C 3A A2		    jmp loc_A23A
  3098 A1B2			loc_A1B2:
  3099 A1B2 A9 C0		    lda #$C0
  3100 A1B4 9D 09 24		    sta $2409,x
  3101 A1B7 A9 00		    lda #$00
  3102 A1B9 9D DC 23		    sta $23DC,x
  3103 A1BC 4C 3A A2		    jmp loc_A23A
  3104 A1BF			loc_A1BF:
  3105 A1BF 84 9F		    sty $9F
  3106 A1C1 20 A7 9D		    jsr div16
  3107 A1C4 A4 9F		    ldy $9F
  3108 A1C6 88			    dey
  3109 A1C7 30 48		    bmi loc_A211
  3110 A1C9 A9 00		    lda #$00
  3111 A1CB			loc_A1CB:
  3112 A1CB 06 B3		    asl $B3
  3113 A1CD 2A			    rol
  3114 A1CE 88			    dey
  3115 A1CF 10 FA		    bpl loc_A1CB
  3116 A1D1 85 B6		    sta $B6
  3117 A1D3 4A			    lsr
  3118 A1D4 A8			    tay
  3119 A1D5 A5 B3		    lda $B3
  3120 A1D7 6A			    ror
  3121 A1D8 18			    clc
  3122 A1D9 65 B3		    adc $B3
  3123 A1DB 85 B3		    sta $B3
  3124 A1DD 98			    tya
  3125 A1DE 65 B6		    adc $B6
  3126 A1E0 4A			    lsr
  3127 A1E1 66 B3		    ror $B3
  3128 A1E3 4A			    lsr
  3129 A1E4 66 B3		    ror $B3
  3130 A1E6 85 B6		    sta $B6
  3131 A1E8 BD CC 22		    lda $22CC,x
  3132 A1EB 30 12		    bmi loc_A1FF
  3133 A1ED A9 80		    lda #$80
  3134 A1EF 18			    clc
  3135 A1F0 65 B3		    adc $B3
  3136 A1F2 9D DC 23		    sta $23DC,x
  3137 A1F5 A5 B6		    lda $B6
  3138 A1F7 69 00		    adc #$00
  3139 A1F9 9D 09 24		    sta $2409,x
  3140 A1FC 4C 3A A2		    jmp loc_A23A
  3141 A1FF			loc_A1FF:
  3142 A1FF A9 80		    lda #$80
  3143 A201 38			    sec
  3144 A202 E5 B3		    sbc $B3
  3145 A204 9D DC 23		    sta $23DC,x
  3146 A207 A9 00		    lda #$00
  3147 A209 E5 B6		    sbc $B6
  3148 A20B 9D 09 24		    sta $2409,x
  3149 A20E 4C 3A A2		    jmp loc_A23A
  3150 A211			loc_A211:
  3151 A211 A9 00		    lda #$00
  3152 A213 9D 09 24		    sta $2409,x
  3153 A216 BD CC 22		    lda $22CC,x
  3154 A219 30 0F		    bmi loc_A22A
  3155 A21B A5 B3		    lda $B3
  3156 A21D 4A			    lsr
  3157 A21E 38			    sec
  3158 A21F 65 B3		    adc $B3
  3159 A221 6A			    ror
  3160 A222 4A			    lsr
  3161 A223 09 80		    ora #$80
  3162 A225 9D DC 23		    sta $23DC,x
  3163 A228 D0 10		    bne loc_A23A
  3164 A22A			loc_A22A:
  3165 A22A A5 B3		    lda $B3
  3166 A22C 4A			    lsr
  3167 A22D 38			    sec
  3168 A22E 65 B3		    adc $B3
  3169 A230 6A			    ror
  3170 A231 4A			    lsr
  3171 A232 49 FF		    eor #$FF
  3172 A234 38			    sec
  3173 A235 69 80		    adc #$80
  3174 A237 9D DC 23		    sta $23DC,x
  3175 A23A			loc_A23A:
  3176 A23A A0 00		    ldy #$00
  3177 A23C BD FA 22		    lda $22FA,x
  3178 A23F 85 AF		    sta $AF
  3179 A241 BD 28 23		    lda $2328,x
  3180 A244 85 B0		    sta $B0
  3181 A246 BD 82 23		    lda $2382,x
  3182 A249 30 0A		    bmi loc_A255
  3183 A24B 85 B2		    sta $B2
  3184 A24D BD 55 23		    lda $2355,x
  3185 A250 85 B1		    sta $B1
  3186 A252 4C 64 A2		    jmp loc_A264
  3187 A255			loc_A255:
  3188 A255 38			    sec
  3189 A256 A9 00		    lda #$00
  3190 A258 FD 55 23		    sbc $2355,x
  3191 A25B 85 B1		    sta $B1
  3192 A25D A9 00		    lda #$00
  3193 A25F FD 82 23		    sbc $2382,x
  3194 A262 85 B2		    sta $B2
  3195 A264			loc_A264:
  3196 A264 A5 B2		    lda $B2
  3197 A266 C5 B0		    cmp $B0
  3198 A268 90 30		    bcc loc_A29A
  3199 A26A D0 06		    bne loc_A272
  3200 A26C A5 B1		    lda $B1
  3201 A26E C5 AF		    cmp $AF
  3202 A270 90 28		    bcc loc_A29A
  3203 A272			loc_A272:
  3204 A272 06 AF		    asl $AF
  3205 A274 26 B0		    rol $B0
  3206 A276 C8			    iny
  3207 A277 C0 08		    cpy #$08
  3208 A279 D0 E9		    bne loc_A264
  3209 A27B BD 82 23		    lda $2382,x
  3210 A27E 30 0D		    bmi loc_A28D
  3211 A280 A9 40		    lda #$40
  3212 A282 9D 63 24		    sta $2463,x
  3213 A285 A9 00		    lda #$00
  3214 A287 9D 36 24		    sta $2436,x
  3215 A28A 4C 15 A3		    jmp loc_A315
  3216 A28D			loc_A28D:
  3217 A28D A9 C0		    lda #$C0
  3218 A28F 9D 63 24		    sta $2463,x
  3219 A292 A9 00		    lda #$00
  3220 A294 9D 36 24		    sta $2436,x
  3221 A297 4C 15 A3		    jmp loc_A315
  3222 A29A			loc_A29A:
  3223 A29A 84 9F		    sty $9F
  3224 A29C 20 A7 9D		    jsr div16
  3225 A29F A4 9F		    ldy $9F
  3226 A2A1 88			    dey
  3227 A2A2 30 48		    bmi loc_A2EC
  3228 A2A4 A9 00		    lda #$00
  3229 A2A6			loc_A2A6:
  3230 A2A6 06 B3		    asl $B3
  3231 A2A8 2A			    rol
  3232 A2A9 88			    dey
  3233 A2AA 10 FA		    bpl loc_A2A6
  3234 A2AC 85 B6		    sta $B6
  3235 A2AE 4A			    lsr
  3236 A2AF A8			    tay
  3237 A2B0 A5 B3		    lda $B3
  3238 A2B2 6A			    ror
  3239 A2B3 18			    clc
  3240 A2B4 65 B3		    adc $B3
  3241 A2B6 85 B3		    sta $B3
  3242 A2B8 98			    tya
  3243 A2B9 65 B6		    adc $B6
  3244 A2BB 4A			    lsr
  3245 A2BC 66 B3		    ror $B3
  3246 A2BE 4A			    lsr
  3247 A2BF 66 B3		    ror $B3
  3248 A2C1 85 B6		    sta $B6
  3249 A2C3 BD 82 23		    lda $2382,x
  3250 A2C6 30 12		    bmi loc_A2DA
  3251 A2C8 A9 80		    lda #$80
  3252 A2CA 18			    clc
  3253 A2CB 65 B3		    adc $B3
  3254 A2CD 9D 36 24		    sta $2436,x
  3255 A2D0 A5 B6		    lda $B6
  3256 A2D2 69 00		    adc #$00
  3257 A2D4 9D 63 24		    sta $2463,x
  3258 A2D7 4C 15 A3		    jmp loc_A315
  3259 A2DA			loc_A2DA:
  3260 A2DA A9 80		    lda #$80
  3261 A2DC 38			    sec
  3262 A2DD E5 B3		    sbc $B3
  3263 A2DF 9D 36 24		    sta $2436,x
  3264 A2E2 A9 00		    lda #$00
  3265 A2E4 E5 B6		    sbc $B6
  3266 A2E6 9D 63 24		    sta $2463,x
  3267 A2E9 4C 15 A3		    jmp loc_A315
  3268 A2EC			loc_A2EC:
  3269 A2EC A9 00		    lda #$00
  3270 A2EE 9D 63 24		    sta $2463,x
  3271 A2F1 BD 82 23		    lda $2382,x
  3272 A2F4 30 0F		    bmi loc_A305
  3273 A2F6 A5 B3		    lda $B3
  3274 A2F8 4A			    lsr
  3275 A2F9 38			    sec
  3276 A2FA 65 B3		    adc $B3
  3277 A2FC 6A			    ror
  3278 A2FD 4A			    lsr
  3279 A2FE 09 80		    ora #$80
  3280 A300 9D 36 24		    sta $2436,x
  3281 A303 D0 10		    bne loc_A315
  3282 A305			loc_A305:
  3283 A305 A5 B3		    lda $B3
  3284 A307 4A			    lsr
  3285 A308 38			    sec
  3286 A309 65 B3		    adc $B3
  3287 A30B 6A			    ror
  3288 A30C 4A			    lsr
  3289 A30D 49 FF		    eor #$FF
  3290 A30F 38			    sec
  3291 A310 69 80		    adc #$80
  3292 A312 9D 36 24		    sta $2436,x
  3293 A315			loc_A315:
  3294 A315 BD 09 24		    lda $2409,x
  3295 A318 30 2E		    bmi loc_A348
  3296 A31A D0 33		    bne loc_A34F
  3297 A31C BD DC 23		    lda $23DC,x
  3298 A31F 4A			    lsr
  3299 A320 4A			    lsr
  3300 A321 4A			    lsr
  3301 A322 A8			    tay
  3302 A323 B9 08 27		    lda $2708,y
  3303 A326 30 10		    bmi loc_A338
  3304 A328			loc_A328:
  3305 A328 18			    clc
  3306 A329 7D 36 24		    adc $2436,x
  3307 A32C 9D 36 24		    sta $2436,x
  3308 A32F BD 63 24		    lda $2463,x
  3309 A332 69 00		    adc #$00
  3310 A334 9D 63 24		    sta $2463,x
  3311 A337 60			    rts
  3312 A338			loc_A338:
  3313 A338 18			    clc
  3314 A339 7D 36 24		    adc $2436,x
  3315 A33C 9D 36 24		    sta $2436,x
  3316 A33F BD 63 24		    lda $2463,x
  3317 A342 69 FF		    adc #$FF
  3318 A344 9D 63 24		    sta $2463,x
  3319 A347 60			    rts
  3320 A348			loc_A348:
  3321 A348 AD 08 27		    lda $2708
  3322 A34B 30 EB		    bmi loc_A338
  3323 A34D 10 D9		    bpl loc_A328
  3324 A34F			loc_A34F:
  3325 A34F AD 27 27		    lda $2727
  3326 A352 30 E4		    bmi loc_A338
  3327 A354 10 D2		    bpl loc_A328
  3328 A356			render_terrain:
  3329 A356 86 A8		    stx $A8
  3330 A358 A0 20		    ldy #$20
  3331 A35A 18			    clc
  3332 A35B			loc_A35B:
  3333 A35B 8A			    txa
  3334 A35C 99 00 BD		    sta $BD00,y
  3335 A35F 99 01 BD		    sta $BD01,y
  3336 A362 99 02 BD		    sta $BD02,y
  3337 A365 99 03 BD		    sta $BD03,y
  3338 A368 E8			    inx
  3339 A369 8A			    txa
  3340 A36A 99 04 BD		    sta $BD04,y
  3341 A36D 99 05 BD		    sta $BD05,y
  3342 A370 99 06 BD		    sta $BD06,y
  3343 A373 99 07 BD		    sta $BD07,y
  3344 A376 E8			    inx
  3345 A377 98			    tya
  3346 A378 69 08		    adc #$08
  3347 A37A A8			    tay
  3348 A37B C0 D4		    cpy #$D4
  3349 A37D 90 DC		    bcc loc_A35B
  3350 A37F 8A			    txa
  3351 A380 18			    clc
  3352 A381 69 2E		    adc #$2E
  3353 A383 85 B4		    sta $B4
  3354 A385 A0 14		    ldy #$14
  3355 A387 A9 67		    lda #$67
  3356 A389			loc_A389:
  3357 A389 88			    dey
  3358 A38A 99 34 26		    sta $2634,y
  3359 A38D 99 C8 26		    sta $26C8,y
  3360 A390 D0 F7		    bne loc_A389
  3361 A392 A0 21		    ldy #$21
  3362 A394 A9 6B		    lda #$6B
  3363 A396			loc_A396:
  3364 A396 88			    dey
  3365 A397 99 48 26		    sta $2648,y
  3366 A39A 99 69 26		    sta $2669,y
  3367 A39D 99 8A 26		    sta $268A,y
  3368 A3A0 99 AB 26		    sta $26AB,y
  3369 A3A3 D0 F1		    bne loc_A396
  3370 A3A5 AD 8D 28		    lda $288D
  3371 A3A8 8D 2C 29		    sta $292C
  3372 A3AB AD 8E 28		    lda $288E
  3373 A3AE 8D 2D 29		    sta $292D
  3374 A3B1 20 0A AE		    jsr sub_AE0A
  3375 A3B4 A9 80		    lda #$80
  3376 A3B6 8D 0C 29		    sta $290C
  3377 A3B9 8D 0D 29		    sta $290D
  3378 A3BC 8D 37 29		    sta $2937
  3379 A3BF 8D 38 29		    sta $2938
  3380 A3C2 8D 39 29		    sta $2939
  3381 A3C5 8D 3A 29		    sta $293A
  3382 A3C8 A4 A8		    ldy $A8
  3383 A3CA D0 06		    bne loc_A3D2
  3384 A3CC 8D 0F 29		    sta $290F
  3385 A3CF 8D A9 28		    sta $28A9
  3386 A3D2			loc_A3D2:
  3387 A3D2 A9 00		    lda #$00
  3388 A3D4 8D 12 29		    sta $2912
  3389 A3D7 8D 20 29		    sta $2920
  3390 A3DA 8D 21 29		    sta $2921
  3391 A3DD AD 23 28		    lda $2823
  3392 A3E0 30 03		    bmi loc_A3E5
  3393 A3E2 EE 21 29		    inc $2921
  3394 A3E5			loc_A3E5:
  3395 A3E5 A0 00		    ldy #$00
  3396 A3E7			loc_A3E7:
  3397 A3E7 B9 57 B7		    lda edge_adjacency,y
  3398 A3EA C8			    iny
  3399 A3EB AA			    tax
  3400 A3EC 8E F6 28		    stx $28F6
  3401 A3EF BD 90 24		    lda $2490,x
  3402 A3F2 30 73		    bmi loc_A467
  3403 A3F4 29 20		    and #$20
  3404 A3F6 D0 6F		    bne loc_A467
  3405 A3F8 B9 57 B7		    lda edge_adjacency,y
  3406 A3FB C8			    iny
  3407 A3FC 8C 28 27		    sty $2728
  3408 A3FF AA			    tax
  3409 A400 BD 90 24		    lda $2490,x
  3410 A403 30 63		    bmi loc_A468
  3411 A405 29 40		    and #$40
  3412 A407 D0 5F		    bne loc_A468
  3413 A409 BD 90 24		    lda $2490,x
  3414 A40C 29 10		    and #$10
  3415 A40E D0 06		    bne loc_A416
  3416 A410 20 57 A1		    jsr project_x
  3417 A413 20 90 A6		    jsr detect_pilot
  3418 A416			loc_A416:
  3419 A416 BD DC 23		    lda $23DC,x
  3420 A419 8D 72 25		    sta $2572
  3421 A41C BD 09 24		    lda $2409,x
  3422 A41F 8D 90 25		    sta $2590
  3423 A422 BD 36 24		    lda $2436,x
  3424 A425 8D AE 25		    sta $25AE
  3425 A428 BD 63 24		    lda $2463,x
  3426 A42B 8D CC 25		    sta $25CC
  3427 A42E BD AF 23		    lda $23AF,x
  3428 A431 8D EA 25		    sta $25EA
  3429 A434 AE F6 28		    ldx $28F6
  3430 A437 BD 90 24		    lda $2490,x
  3431 A43A 29 10		    and #$10
  3432 A43C D0 06		    bne loc_A444
  3433 A43E 20 57 A1		    jsr project_x
  3434 A441 20 90 A6		    jsr detect_pilot
  3435 A444			loc_A444:
  3436 A444 BD DC 23		    lda $23DC,x
  3437 A447 85 82		    sta $82
  3438 A449 BD 09 24		    lda $2409,x
  3439 A44C 85 83		    sta $83
  3440 A44E BD 36 24		    lda $2436,x
  3441 A451 85 84		    sta $84
  3442 A453 BD 63 24		    lda $2463,x
  3443 A456 85 85		    sta $85
  3444 A458 BD AF 23		    lda $23AF,x
  3445 A45B 85 86		    sta $86
  3446 A45D A2 00		    ldx #$00
  3447 A45F 20 4D B2		    jsr rasterize_edge
  3448 A462 AC 28 27		    ldy $2728
  3449 A465 D0 01		    bne loc_A468
  3450 A467			loc_A467:
  3451 A467 C8			    iny
  3452 A468			loc_A468:
  3453 A468 C0 90		    cpy #$90
  3454 A46A F0 03		    beq loc_A46F
  3455 A46C 4C E7 A3		    jmp loc_A3E7
  3456 A46F			loc_A46F:
  3457 A46F AD 0C 29		    lda $290C
  3458 A472 8D F4 28		    sta $28F4
  3459 A475 AD 0D 29		    lda $290D
  3460 A478 8D F5 28		    sta $28F5
  3461 A47B AD A9 28		    lda $28A9
  3462 A47E 10 08		    bpl loc_A488
  3463 A480 A9 00		    lda #$00
  3464 A482 8D 41 06		    sta $0641
  3465 A485 4C AA A4		    jmp loc_A4AA
  3466 A488			loc_A488:
  3467 A488 4A			    lsr
  3468 A489 4A			    lsr
  3469 A48A 18			    clc
  3470 A48B 69 01		    adc #$01
  3471 A48D C9 0A		    cmp #$0A
  3472 A48F 90 02		    bcc loc_A493
  3473 A491 A9 09		    lda #$09
  3474 A493			loc_A493:
  3475 A493 8D 41 06		    sta $0641
  3476 A496 CD 43 28		    cmp $2843
  3477 A499 F0 0F		    beq loc_A4AA
  3478 A49B 8D 43 28		    sta $2843
  3479 A49E B0 0A		    bcs loc_A4AA
  3480 A4A0 AD A4 28		    lda $28A4
  3481 A4A3 D0 05		    bne loc_A4AA
  3482 A4A5 A2 14		    ldx #$14
  3483 A4A7 20 AA 94		    jsr sub_94AA
  3484 A4AA			loc_A4AA:
  3485 A4AA AD 37 29		    lda $2937
  3486 A4AD C9 80		    cmp #$80
  3487 A4AF 6A			    ror
  3488 A4B0 18			    clc
  3489 A4B1 69 7D		    adc #$7D
  3490 A4B3 8D 4B 28		    sta $284B
  3491 A4B6 AD 38 29		    lda $2938
  3492 A4B9 18			    clc
  3493 A4BA 69 15		    adc #$15
  3494 A4BC 8D 49 28		    sta $2849
  3495 A4BF AD 39 29		    lda $2939
  3496 A4C2 8D 3B 29		    sta $293B
  3497 A4C5 AD 35 29		    lda $2935
  3498 A4C8 8D 3D 28		    sta $283D
  3499 A4CB AD 36 29		    lda $2936
  3500 A4CE 8D 3E 28		    sta $283E
  3501 A4D1 AD 1C 06		    lda $061C
  3502 A4D4 F0 03		    beq loc_A4D9
  3503 A4D6 20 16 AD		    jsr sub_AD16
  3504 A4D9			loc_A4D9:
  3505 A4D9 AD 21 29		    lda $2921
  3506 A4DC F0 02		    beq loc_A4E0
  3507 A4DE A9 74		    lda #$74
  3508 A4E0			loc_A4E0:
  3509 A4E0 8D 44 28		    sta $2844
  3510 A4E3 AD F7 27		    lda $27F7
  3511 A4E6 8D 22 29		    sta $2922
  3512 A4E9 AD F8 27		    lda $27F8
  3513 A4EC 8D 23 29		    sta $2923
  3514 A4EF AD F9 27		    lda $27F9
  3515 A4F2 8D 24 29		    sta $2924
  3516 A4F5 AD FA 27		    lda $27FA
  3517 A4F8 8D 25 29		    sta $2925
  3518 A4FB AD FB 27		    lda $27FB
  3519 A4FE 8D 26 29		    sta $2926
  3520 A501 AD FC 27		    lda $27FC
  3521 A504 8D 27 29		    sta $2927
  3522 A507 AD 0A 28		    lda $280A
  3523 A50A 8D 28 29		    sta $2928
  3524 A50D AD 0B 28		    lda $280B
  3525 A510 8D 29 29		    sta $2929
  3526 A513 AD 0C 28		    lda $280C
  3527 A516 8D 2A 29		    sta $292A
  3528 A519 AD 0D 28		    lda $280D
  3529 A51C 8D 2B 29		    sta $292B
  3530 A51F AD 2C 29		    lda $292C
  3531 A522 8D 2E 29		    sta $292E
  3532 A525 AD 2D 29		    lda $292D
  3533 A528 8D 2F 29		    sta $292F
  3534 A52B A0 1F		    ldy #$1F
  3535 A52D			loc_A52D:
  3536 A52D 38			    sec
  3537 A52E AD 18 27		    lda $2718
  3538 A531 F9 08 27		    sbc $2708,y
  3539 A534 C9 80		    cmp #$80
  3540 A536 6A			    ror
  3541 A537 69 00		    adc #$00
  3542 A539 99 D0 28		    sta $28D0,y
  3543 A53C 88			    dey
  3544 A53D 10 EE		    bpl loc_A52D
  3545 A53F AD 20 29		    lda $2920
  3546 A542 D0 07		    bne loc_A54B
  3547 A544 38			    sec
  3548 A545 AD 0F 06		    lda $060F
  3549 A548 4C A5 A5		    jmp loc_A5A5
  3550 A54B			loc_A54B:
  3551 A54B AD A4 28		    lda $28A4
  3552 A54E F0 05		    beq loc_A555
  3553 A550 A9 00		    lda #$00
  3554 A552 4C A4 A5		    jmp loc_A5A4
  3555 A555			loc_A555:
  3556 A555 AD 8B 28		    lda $288B
  3557 A558 0A			    asl
  3558 A559 85 C4		    sta $C4
  3559 A55B AD 8C 28		    lda $288C
  3560 A55E 2A			    rol
  3561 A55F 06 C4		    asl $C4
  3562 A561 2A			    rol
  3563 A562 06 C4		    asl $C4
  3564 A564 2A			    rol
  3565 A565 85 C4		    sta $C4
  3566 A567 AD 3E 29		    lda $293E
  3567 A56A 0A			    asl
  3568 A56B 85 C5		    sta $C5
  3569 A56D AD 3F 29		    lda $293F
  3570 A570 2A			    rol
  3571 A571 06 C5		    asl $C5
  3572 A573 2A			    rol
  3573 A574 06 C5		    asl $C5
  3574 A576 2A			    rol
  3575 A577 38			    sec
  3576 A578 E5 C4		    sbc $C4
  3577 A57A 10 05		    bpl loc_A581
  3578 A57C 18			    clc
  3579 A57D 49 FF		    eor #$FF
  3580 A57F 69 01		    adc #$01
  3581 A581			loc_A581:
  3582 A581 85 C4		    sta $C4
  3583 A583 AD 88 28		    lda $2888
  3584 A586 C9 80		    cmp #$80
  3585 A588 6A			    ror
  3586 A589 C9 80		    cmp #$80
  3587 A58B 6A			    ror
  3588 A58C 85 C5		    sta $C5
  3589 A58E AD 40 29		    lda $2940
  3590 A591 C9 80		    cmp #$80
  3591 A593 6A			    ror
  3592 A594 C9 80		    cmp #$80
  3593 A596 6A			    ror
  3594 A597 38			    sec
  3595 A598 E5 C5		    sbc $C5
  3596 A59A 10 05		    bpl loc_A5A1
  3597 A59C 18			    clc
  3598 A59D 49 FF		    eor #$FF
  3599 A59F 69 01		    adc #$01
  3600 A5A1			loc_A5A1:
  3601 A5A1 18			    clc
  3602 A5A2 65 C4		    adc $C4
  3603 A5A4			loc_A5A4:
  3604 A5A4 18			    clc
  3605 A5A5			loc_A5A5:
  3606 A5A5 6D 0C 06		    adc $060C
  3607 A5A8 10 02		    bpl loc_A5AC
  3608 A5AA A9 7F		    lda #$7F
  3609 A5AC			loc_A5AC:
  3610 A5AC 38			    sec
  3611 A5AD ED 0F 06		    sbc $060F
  3612 A5B0 B0 02		    bcs loc_A5B4
  3613 A5B2 A9 00		    lda #$00
  3614 A5B4			loc_A5B4:
  3615 A5B4 8D 0C 06		    sta $060C
  3616 A5B7 C9 20		    cmp #$20
  3617 A5B9 90 08		    bcc loc_A5C3
  3618 A5BB A9 80		    lda #$80
  3619 A5BD 8D 43 06		    sta $0643
  3620 A5C0 4C CA A5		    jmp loc_A5CA
  3621 A5C3			loc_A5C3:
  3622 A5C3 AD 43 06		    lda $0643
  3623 A5C6 10 02		    bpl loc_A5CA
  3624 A5C8 A9 00		    lda #$00
  3625 A5CA			loc_A5CA:
  3626 A5CA 8D 43 06		    sta $0643
  3627 A5CD AD AC 28		    lda $28AC
  3628 A5D0 F0 10		    beq loc_A5E2
  3629 A5D2 38			    sec
  3630 A5D3 AD 1B 06		    lda $061B
  3631 A5D6 E9 06		    sbc #$06
  3632 A5D8 90 08		    bcc loc_A5E2
  3633 A5DA CD 0A D2		    cmp RANDOM
  3634 A5DD 90 03		    bcc loc_A5E2
  3635 A5DF 20 F0 7B		    jsr sub_7BF0
  3636 A5E2			loc_A5E2:
  3637 A5E2 AD 47 28		    lda $2847
  3638 A5E5 F0 15		    beq loc_A5FC
  3639 A5E7 A2 00		    ldx #$00
  3640 A5E9 8E 47 28		    stx $2847
  3641 A5EC A9 F9		    lda #$F9
  3642 A5EE			loc_A5EE:
  3643 A5EE DD 00 0A		    cmp pilot_map,x
  3644 A5F1 B0 06		    bcs loc_A5F9
  3645 A5F3 FE 00 0A		    inc pilot_map,x
  3646 A5F6 EE 47 28		    inc $2847
  3647 A5F9			loc_A5F9:
  3648 A5F9 E8			    inx
  3649 A5FA D0 F2		    bne loc_A5EE
  3650 A5FC			loc_A5FC:
  3651 A5FC AE 2A 28		    ldx $282A
  3652 A5FF 10 63		    bpl loc_A664
  3653 A601 AD A4 28		    lda $28A4
  3654 A604 D0 5E		    bne loc_A664
  3655 A606 AD 15 06		    lda $0615
  3656 A609 F0 59		    beq loc_A664
  3657 A60B CE 16 06		    dec $0616
  3658 A60E D0 54		    bne loc_A664
  3659 A610 8D 16 06		    sta $0616
  3660 A613 18			    clc
  3661 A614 AD 0A D2		    lda RANDOM
  3662 A617 30 4B		    bmi loc_A664
  3663 A619 69 40		    adc #$40
  3664 A61B AA			    tax
  3665 A61C AD 0A D2		    lda RANDOM
  3666 A61F 29 1F		    and #$1F
  3667 A621 69 6E		    adc #$6E
  3668 A623 DD 08 26		    cmp $2608,x
  3669 A626 90 3C		    bcc loc_A664
  3670 A628 F0 3A		    beq loc_A664
  3671 A62A 8D 2F 28		    sta $282F
  3672 A62D A9 80		    lda #$80
  3673 A62F ED 2F 28		    sbc $282F
  3674 A632 0A			    asl
  3675 A633 18			    clc
  3676 A634 69 42		    adc #$42
  3677 A636 8D 2F 28		    sta $282F
  3678 A639 8A			    txa
  3679 A63A 38			    sec
  3680 A63B E9 10		    sbc #$10
  3681 A63D 8D 2C 28		    sta $282C
  3682 A640 A9 00		    lda #$00
  3683 A642 8D 2D 28		    sta $282D
  3684 A645 8D 30 28		    sta $2830
  3685 A648 8D 32 28		    sta $2832
  3686 A64B 8D 34 28		    sta $2834
  3687 A64E 20 65 A6		    jsr sub_A665
  3688 A651 A9 7F		    lda #$7F
  3689 A653 8D 23 28		    sta $2823
  3690 A656 8D 2A 28		    sta $282A
  3691 A659 8D 49 28		    sta $2849
  3692 A65C 20 89 47		    jsr sub_478C
  3693 A65F A9 01		    lda #$01
  3694 A661 8D 42 28		    sta $2842
  3695 A664			loc_A664:
  3696 A664 60			    rts
  3697 A665			sub_A665:
  3698 A665 18			    clc
  3699 A666 AD 0A D2		    lda RANDOM
  3700 A669 6D 0A D2		    adc RANDOM
  3701 A66C 8D 31 28		    sta $2831
  3702 A66F A9 00		    lda #$00
  3703 A671 2A			    rol
  3704 A672 AC 2C 28		    ldy $282C
  3705 A675 C0 6C		    cpy #$6C
  3706 A677 B0 02		    bcs loc_A67B
  3707 A679 49 FF		    eor #$FF
  3708 A67B			loc_A67B:
  3709 A67B 8D 32 28		    sta $2832
  3710 A67E 38			    sec
  3711 A67F A0 00		    ldy #$00
  3712 A681 AD 0A D2		    lda RANDOM
  3713 A684 E9 80		    sbc #$80
  3714 A686 B0 01		    bcs loc_A689
  3715 A688 88			    dey
  3716 A689			loc_A689:
  3717 A689 8C 34 28		    sty $2834
  3718 A68C 8D 33 28		    sta $2833
  3719 A68F			loc_A68F:
  3720 A68F 60			    rts
  3721 A690			detect_pilot:
  3722 A690 BC 70 22		    ldy $2270,x
  3723 A693 B9 00 0A		    lda pilot_map,y
  3724 A696 F0 F7		    beq loc_A68F
  3725 A698 BD 63 24		    lda $2463,x
  3726 A69B D0 F2		    bne loc_A68F
  3727 A69D BD 09 24		    lda $2409,x
  3728 A6A0 D0 ED		    bne loc_A68F
  3729 A6A2 BD 28 23		    lda $2328,x
  3730 A6A5 F0 E8		    beq loc_A68F
  3731 A6A7 8E 04 29		    stx $2904
  3732 A6AA B9 00 09		    lda terrain_height_buf,y
  3733 A6AD 10 03		    bpl loc_A6B2
  3734 A6AF 4C AB A8		    jmp loc_A8AB
  3735 A6B2			loc_A6B2:
  3736 A6B2 A5 A8		    lda $A8
  3737 A6B4 D0 0B		    bne loc_A6C1
  3738 A6B6 B9 00 0A		    lda pilot_map,y
  3739 A6B9 C9 02		    cmp #$02
  3740 A6BB 90 04		    bcc loc_A6C1
  3741 A6BD C9 F8		    cmp #$F8
  3742 A6BF 90 03		    bcc loc_A6C4
  3743 A6C1			loc_A6C1:
  3744 A6C1 4C 51 A7		    jmp loc_A751
  3745 A6C4			loc_A6C4:
  3746 A6C4 BD CC 22		    lda $22CC,x
  3747 A6C7 8D 06 29		    sta $2906
  3748 A6CA 8D 08 29		    sta $2908
  3749 A6CD C9 80		    cmp #$80
  3750 A6CF 90 09		    bcc loc_A6DA
  3751 A6D1 A9 00		    lda #$00
  3752 A6D3 ED 08 29		    sbc $2908
  3753 A6D6 8D 08 29		    sta $2908
  3754 A6D9 38			    sec
  3755 A6DA			loc_A6DA:
  3756 A6DA 6E 06 29		    ror $2906
  3757 A6DD 90 03		    bcc loc_A6E2
  3758 A6DF EE 06 29		    inc $2906
  3759 A6E2			loc_A6E2:
  3760 A6E2 BD 28 23		    lda $2328,x
  3761 A6E5 8D 07 29		    sta $2907
  3762 A6E8 CD 08 29		    cmp $2908
  3763 A6EB 90 64		    bcc loc_A751
  3764 A6ED 6D 08 29		    adc $2908
  3765 A6F0 CD 0F 29		    cmp $290F
  3766 A6F3 B0 5C		    bcs loc_A751
  3767 A6F5 8D 0F 29		    sta $290F
  3768 A6F8 4E 08 29		    lsr $2908
  3769 A6FB 38			    sec
  3770 A6FC ED 08 29		    sbc $2908
  3771 A6FF 8D A9 28		    sta $28A9
  3772 A702 AD 06 29		    lda $2906
  3773 A705 8D 0C 29		    sta $290C
  3774 A708 AD 07 29		    lda $2907
  3775 A70B 8D 0D 29		    sta $290D
  3776 A70E BD 70 22		    lda $2270,x
  3777 A711 8D 0B 29		    sta $290B
  3778 A714 A9 64		    lda #$64
  3779 A716 8D AB 28		    sta $28AB
  3780 A719 BD 09 24		    lda $2409,x
  3781 A71C D0 33		    bne loc_A751
  3782 A71E BD 63 24		    lda $2463,x
  3783 A721 D0 2E		    bne loc_A751
  3784 A723 BD 09 24		    lda $2409,x
  3785 A726 D0 06		    bne loc_A72E
  3786 A728 BD DC 23		    lda $23DC,x
  3787 A72B 4C 37 A7		    jmp loc_A737
  3788 A72E			loc_A72E:
  3789 A72E 30 05		    bmi loc_A735
  3790 A730 A9 FF		    lda #$FF
  3791 A732 4C 37 A7		    jmp loc_A737
  3792 A735			loc_A735:
  3793 A735 A9 00		    lda #$00
  3794 A737			loc_A737:
  3795 A737 8D AA 28		    sta $28AA
  3796 A73A BD 63 24		    lda $2463,x
  3797 A73D D0 06		    bne loc_A745
  3798 A73F BD 36 24		    lda $2436,x
  3799 A742 4C 4E A7		    jmp loc_A74E
  3800 A745			loc_A745:
  3801 A745 30 05		    bmi loc_A74C
  3802 A747 A9 FF		    lda #$FF
  3803 A749 4C 4E A7		    jmp loc_A74E
  3804 A74C			loc_A74C:
  3805 A74C A9 00		    lda #$00
  3806 A74E			loc_A74E:
  3807 A74E 8D AB 28		    sta $28AB
  3808 A751			loc_A751:
  3809 A751 4C 9D A9		    jmp loc_A99D
  3810 A754			sub_A754:
  3811 A754 98			    tya
  3812 A755 DD 08 26		    cmp $2608,x
  3813 A758 90 28		    bcc loc_A782
  3814 A75A F0 26		    beq loc_A782
  3815 A75C			sub_A75C:
  3816 A75C C0 97		    cpy #$97
  3817 A75E B0 22		    bcs loc_A782
  3818 A760 8C 05 29		    sty $2905
  3819 A763 B9 EC 28		    lda $28EC,y
  3820 A766 85 80		    sta $80
  3821 A768 B9 1C 29		    lda $291C,y
  3822 A76B 85 81		    sta $81
  3823 A76D BC 00 BD		    ldy $BD00,x
  3824 A770 BD 00 BC		    lda $BC00,x
  3825 A773 85 B6		    sta $B6
  3826 A775 4A			    lsr
  3827 A776 05 B6		    ora $B6
  3828 A778 2D 03 29		    and $2903
  3829 A77B 11 80		    ora ($80),y
  3830 A77D 91 80		    sta ($80),y
  3831 A77F AC 05 29		    ldy $2905
  3832 A782			loc_A782:
  3833 A782 60			    rts
  3834 A783 00 3F FC 00 03 FF +     .byte $00,$3F,$FC,$00,$03,$FF,$FF,$C0,$0F,$FF,$FF,$F0,$1F,$FF,$FF,$F8 ; $A783
  3835 A793 3F FF FF FC 7F FF +     .byte $3F,$FF,$FF,$FC,$7F,$FF,$FF,$FE,$7F,$FF,$FF,$FE,$FF,$FF,$FF,$FF ; $A793
  3836 A7A3 FF FF FF FF FF FF +     .byte $FF,$FF,$FF,$FF,$FF,$FF,$FF,$FF,$FF,$FF,$FF,$FF,$FF,$FF,$FF,$FF ; $A7A3
  3837 A7B3 00 00 00 00 00 00 +     .byte $00,$00,$00,$00,$00,$00,$00,$00,$00,$00,$30,$00,$00,$9B,$78,$00 ; $A7B3
  3838 A7C3 00 5F F6 00 00 F7 +     .byte $00,$5F,$F6,$00,$00,$F7,$BB,$00,$00,$FD,$FF,$80,$01,$BF,$ED,$00 ; $A7C3
  3839 A7D3 00 7E FE 00 00 1B +     .byte $00,$7E,$FE,$00,$00,$1B,$D8,$00,$00,$00,$00,$00,$00,$00,$00,$00 ; $A7D3
  3840 A7E3 00 00 20 00 13 8C +     .byte $00,$00,$20,$00,$13,$8C,$70,$00,$05,$F7,$F9,$08,$01,$ED,$BE,$00 ; $A7E3
  3841 A7F3 01 D3 6E 00 43 F0 +     .byte $01,$D3,$6E,$00,$43,$F0,$BF,$80,$06,$E8,$9F,$F0,$07,$AD,$7B,$00 ; $A7F3
  3842 A803 09 F6 BF 10 04 FB +     .byte $09,$F6,$BF,$10,$04,$FB,$ED,$00,$00,$58,$F8,$00,$00,$00,$00,$00 ; $A803
  3843 A813 00 A1 30 00 21 04 +     .byte $00,$A1,$30,$00,$21,$04,$2A,$00,$05,$29,$12,$90,$43,$00,$0C,$40 ; $A813
  3844 A823 14 40 56 80 0D 00 +     .byte $14,$40,$56,$80,$0D,$00,$02,$20,$06,$00,$23,$40,$2D,$42,$08,$80 ; $A823
  3845 A833 08 90 44 40 05 0D +     .byte $08,$90,$44,$40,$05,$0D,$62,$88,$09,$A8,$AE,$10,$30,$00,$70,$40 ; $A833
  3846 A843 00 02 10 00 02 20 +     .byte $00,$02,$10,$00,$02,$20,$08,$80,$08,$00,$00,$40,$45,$00,$02,$18 ; $A843
  3847 A853 90 00 00 40 02 00 +     .byte $90,$00,$00,$40,$02,$00,$00,$04,$C5,$00,$01,$07,$00,$00,$00,$68 ; $A853
  3848 A863 80 00 00 08 08 00 +     .byte $80,$00,$00,$08,$08,$00,$04,$00,$33,$00,$08,$30,$C0,$80,$02,$13 ; $A863
  3849 A873 B3 E3 13 43 A7 A7 +     .byte $B3,$E3,$13,$43,$A7,$A7,$A8,$A8,$00,$00,$FF,$F0,$00,$0F,$FF,$F0 ; $A873
  3850 A883 00 FF FF F0 0F FF +     .byte $00,$FF,$FF,$F0,$0F,$FF,$FF,$F0,$FF,$FF,$FF,$F0,$FF,$FF,$FF,$F0 ; $A883
  3851 A893 00 00 0F C0 00 03 +     .byte $00,$00,$0F,$C0,$00,$03,$FF,$F0,$08,$03,$FF,$F0,$00,$80,$10,$00 ; $A893
  3852 A8A3 40 00 00 02 00 04 +     .byte $40,$00,$00,$02,$00,$04,$00,$00                  ; $A8A3
  3853 A8AB			loc_A8AB:
  3854 A8AB A9 83		    lda #$83
  3855 A8AD 8D FB 28		    sta $28FB
  3856 A8B0 A9 A7		    lda #$A7
  3857 A8B2 8D FC 28		    sta $28FC
  3858 A8B5 A9 FF		    lda #$FF
  3859 A8B7 8D 03 29		    sta $2903
  3860 A8BA BD 28 23		    lda $2328,x
  3861 A8BD 8D FA 28		    sta $28FA
  3862 A8C0 BD FA 22		    lda $22FA,x
  3863 A8C3 8D F9 28		    sta $28F9
  3864 A8C6 BD 36 24		    lda $2436,x
  3865 A8C9 8D F8 28		    sta $28F8
  3866 A8CC A8			    tay
  3867 A8CD BD DC 23		    lda $23DC,x
  3868 A8D0 8D F7 28		    sta $28F7
  3869 A8D3 BD 70 22		    lda $2270,x
  3870 A8D6 AA			    tax
  3871 A8D7 BD 00 0A		    lda pilot_map,x
  3872 A8DA C9 FA		    cmp #$FA
  3873 A8DC 90 09		    bcc loc_A8E7
  3874 A8DE 20 2B AC		    jsr sub_AC2B
  3875 A8E1 4C 30 A9		    jmp loc_A930
  3876 A8E4 4C 2C A9		    .byte $4C,$2C,$A9                                      ; $A8E4
  3877 A8E7			loc_A8E7:
  3878 A8E7 98			    tya
  3879 A8E8 AE F7 28		    ldx $28F7
  3880 A8EB DD 08 26		    cmp $2608,x
  3881 A8EE 90 3C		    bcc loc_A92C
  3882 A8F0 A9 80		    lda #$80
  3883 A8F2 20 3F A9		    jsr sub_A93F
  3884 A8F5 CA			    dex
  3885 A8F6 20 54 A7		    jsr sub_A754
  3886 A8F9 E8			    inx
  3887 A8FA AD A0 28		    lda $28A0
  3888 A8FD C9 37		    cmp #$37
  3889 A8FF B0 2F		    bcs loc_A930
  3890 A901 A9 01		    lda #$01
  3891 A903 8D 21 29		    sta $2921
  3892 A906 8D 20 29		    sta $2920
  3893 A909 AD 23 28		    lda $2823
  3894 A90C 10 22		    bpl loc_A930
  3895 A90E AD A5 28		    lda $28A5
  3896 A911 D0 1D		    bne loc_A930
  3897 A913 AD 0A D2		    lda RANDOM
  3898 A916 10 18		    bpl loc_A930
  3899 A918 AD 12 29		    lda $2912
  3900 A91B D0 13		    bne loc_A930
  3901 A91D 8E 10 29		    stx $2910
  3902 A920 8C 11 29		    sty $2911
  3903 A923 AD FA 28		    lda $28FA
  3904 A926 8D 12 29		    sta $2912
  3905 A929 4C 30 A9		    jmp loc_A930
  3906 A92C			loc_A92C:
  3907 A92C AE 04 29		    ldx $2904
  3908 A92F 60			    rts
  3909 A930			loc_A930:
  3910 A930 AD FA 28		    lda $28FA
  3911 A933 C9 0D		    cmp #$0D
  3912 A935 B0 F5		    bcs loc_A92C
  3913 A937 A9 00		    lda #$00
  3914 A939 8D 02 29		    sta $2902
  3915 A93C 4C 4F AC		    jmp sub_AC4F
  3916 A93F			sub_A93F:
  3917 A93F 8D 33 29		    sta $2933
  3918 A942 AD F7 28		    lda $28F7
  3919 A945 38			    sec
  3920 A946 E9 80		    sbc #$80
  3921 A948 8D 30 29		    sta $2930
  3922 A94B 10 06		    bpl loc_A953
  3923 A94D 38			    sec
  3924 A94E A9 00		    lda #$00
  3925 A950 ED 30 29		    sbc $2930
  3926 A953			loc_A953:
  3927 A953 8D 32 29		    sta $2932
  3928 A956 38			    sec
  3929 A957 A9 80		    lda #$80
  3930 A959 ED F8 28		    sbc $28F8
  3931 A95C 8D 31 29		    sta $2931
  3932 A95F 10 06		    bpl loc_A967
  3933 A961 38			    sec
  3934 A962 A9 00		    lda #$00
  3935 A964 ED 31 29		    sbc $2931
  3936 A967			loc_A967:
  3937 A967 18			    clc
  3938 A968 6D 32 29		    adc $2932
  3939 A96B B0 2F		    bcs loc_A99C
  3940 A96D 8D 32 29		    sta $2932
  3941 A970 18			    clc
  3942 A971 6D FA 28		    adc $28FA
  3943 A974 B0 26		    bcs loc_A99C
  3944 A976 CD 3A 29		    cmp $293A
  3945 A979 B0 21		    bcs loc_A99C
  3946 A97B 8D 3A 29		    sta $293A
  3947 A97E AD 32 29		    lda $2932
  3948 A981 8D 39 29		    sta $2939
  3949 A984 AD 30 29		    lda $2930
  3950 A987 8D 37 29		    sta $2937
  3951 A98A AD 31 29		    lda $2931
  3952 A98D 8D 38 29		    sta $2938
  3953 A990 AD 33 29		    lda $2933
  3954 A993 8D 35 29		    sta $2935
  3955 A996 AD 34 29		    lda $2934
  3956 A999 8D 36 29		    sta $2936
  3957 A99C			loc_A99C:
  3958 A99C 60			    rts
  3959 A99D			loc_A99D:
  3960 A99D A9 7B		    lda #$7B
  3961 A99F 8D FB 28		    sta $28FB
  3962 A9A2 A9 A8		    lda #$A8
  3963 A9A4 8D FC 28		    sta $28FC
  3964 A9A7 BD AF 23		    lda $23AF,x
  3965 A9AA 29 01		    and #$01
  3966 A9AC 8D 34 29		    sta $2934
  3967 A9AF 8D 02 29		    sta $2902
  3968 A9B2 BD DC 23		    lda $23DC,x
  3969 A9B5 8D F7 28		    sta $28F7
  3970 A9B8 BD 36 24		    lda $2436,x
  3971 A9BB 8D F8 28		    sta $28F8
  3972 A9BE BD 28 23		    lda $2328,x
  3973 A9C1 8D FA 28		    sta $28FA
  3974 A9C4 BD FA 22		    lda $22FA,x
  3975 A9C7 8D F9 28		    sta $28F9
  3976 A9CA BC 70 22		    ldy $2270,x
  3977 A9CD B9 00 0A		    lda pilot_map,y
  3978 A9D0 C9 FA		    cmp #$FA
  3979 A9D2 90 03		    bcc loc_A9D7
  3980 A9D4 20 2B AC		    jsr sub_AC2B
  3981 A9D7			loc_A9D7:
  3982 A9D7 AC F7 28		    ldy $28F7
  3983 A9DA AD F8 28		    lda $28F8
  3984 A9DD D9 08 26		    cmp $2608,y
  3985 A9E0 90 14		    bcc loc_A9F6
  3986 A9E2 A9 00		    lda #$00
  3987 A9E4 20 3F A9		    jsr sub_A93F
  3988 A9E7 A9 AA		    lda #$AA
  3989 A9E9 8D 03 29		    sta $2903
  3990 A9EC AD FA 28		    lda $28FA
  3991 A9EF C9 0D		    cmp #$0D
  3992 A9F1 B0 03		    bcs loc_A9F6
  3993 A9F3 20 4F AC		    jsr sub_AC4F
  3994 A9F6			loc_A9F6:
  3995 A9F6 A5 A8		    lda $A8
  3996 A9F8 D0 31		    bne loc_AA2B
  3997 A9FA AD A5 28		    lda $28A5
  3998 A9FD D0 2C		    bne loc_AA2B
  3999 A9FF BC 70 22		    ldy $2270,x
  4000 AA02 B9 00 0A		    lda pilot_map,y
  4001 AA05 C9 02		    cmp #$02
  4002 AA07 90 22		    bcc loc_AA2B
  4003 AA09 C9 F8		    cmp #$F8
  4004 AA0B B0 1E		    bcs loc_AA2B
  4005 AA0D A9 FF		    lda #$FF
  4006 AA0F 8D 03 29		    sta $2903
  4007 AA12 BC 36 24		    ldy $2436,x
  4008 AA15 BD DC 23		    lda $23DC,x
  4009 AA18 AA			    tax
  4010 AA19 20 54 A7		    jsr sub_A754
  4011 AA1C CA			    dex
  4012 AA1D 88			    dey
  4013 AA1E 20 54 A7		    jsr sub_A754
  4014 AA21 CA			    dex
  4015 AA22 C8			    iny
  4016 AA23 20 54 A7		    jsr sub_A754
  4017 AA26 E8			    inx
  4018 AA27 C8			    iny
  4019 AA28 20 54 A7		    jsr sub_A754
  4020 AA2B			loc_AA2B:
  4021 AA2B AE 04 29		    ldx $2904
  4022 AA2E 60			    rts
  4023 AA2F			sub_AA2F:
  4024 AA2F CE 13 29		    dec $2913
  4025 AA32 10 24		    bpl loc_AA58
  4026 AA34 AD 18 06		    lda $0618
  4027 AA37 2D 0A D2		    and RANDOM
  4028 AA3A 8D 13 29		    sta $2913
  4029 AA3D AD 29 28		    lda $2829
  4030 AA40 D0 03		    bne loc_AA45
  4031 AA42 20 6B 8E		    jsr sub_8E6B
  4032 AA45			loc_AA45:
  4033 AA45 AD A4 28		    lda $28A4
  4034 AA48 D0 05		    bne loc_AA4F
  4035 AA4A A9 B4		    lda #$B4
  4036 AA4C 8D 55 33		    sta $3355
  4037 AA4F			loc_AA4F:
  4038 AA4F A9 00		    lda #$00
  4039 AA51 8D AC 28		    sta $28AC
  4040 AA54 8D 12 29		    sta $2912
  4041 AA57			loc_AA57:
  4042 AA57 60			    rts
  4043 AA58			loc_AA58:
  4044 AA58 D0 FD		    bne loc_AA57
  4045 AA5A AD 12 29		    lda $2912
  4046 AA5D F0 F8		    beq loc_AA57
  4047 AA5F AD 10 29		    lda $2910
  4048 AA62 8D 15 29		    sta $2915
  4049 AA65 AD 11 29		    lda $2911
  4050 AA68 8D 17 29		    sta $2917
  4051 AA6B A9 01		    lda #$01
  4052 AA6D 8D 19 29		    sta $2919
  4053 AA70 A9 80		    lda #$80
  4054 AA72 8D 14 29		    sta $2914
  4055 AA75 8D 16 29		    sta $2916
  4056 AA78 8D 18 29		    sta $2918
  4057 AA7B A9 FF		    lda #$FF
  4058 AA7D 8D 03 29		    sta $2903
  4059 AA80 A9 00		    lda #$00
  4060 AA82 8D 1B 29		    sta $291B
  4061 AA85 8D 1D 29		    sta $291D
  4062 AA88 AD 0A D2		    lda RANDOM
  4063 AA8B 0A			    asl
  4064 AA8C 8D 1A 29		    sta $291A
  4065 AA8F 90 03		    bcc loc_AA94
  4066 AA91 CE 1B 29		    dec $291B
  4067 AA94			loc_AA94:
  4068 AA94 AD 3F 29		    lda $293F
  4069 AA97 10 0C		    bpl loc_AAA5
  4070 AA99 C9 FF		    cmp #$FF
  4071 AA9B B0 05		    bcs loc_AAA2
  4072 AA9D A9 00		    lda #$00
  4073 AA9F 8D 1B 29		    sta $291B
  4074 AAA2			loc_AAA2:
  4075 AAA2 4C AE AA		    jmp loc_AAAE
  4076 AAA5			loc_AAA5:
  4077 AAA5 C9 02		    cmp #$02
  4078 AAA7 90 05		    bcc loc_AAAE
  4079 AAA9 A9 FF		    lda #$FF
  4080 AAAB 8D 1B 29		    sta $291B
  4081 AAAE			loc_AAAE:
  4082 AAAE AD 0A D2		    lda RANDOM
  4083 AAB1 0A			    asl
  4084 AAB2 8D 1C 29		    sta $291C
  4085 AAB5 CE 1D 29		    dec $291D
  4086 AAB8 AD 43 06		    lda $0643
  4087 AABB C9 07		    cmp #$07
  4088 AABD F0 2B		    beq loc_AAEA
  4089 AABF AD 0C 06		    lda $060C
  4090 AAC2 49 FF		    eor #$FF
  4091 AAC4 4A			    lsr
  4092 AAC5 4A			    lsr
  4093 AAC6 4A			    lsr
  4094 AAC7 18			    clc
  4095 AAC8 69 0C		    adc #$0C
  4096 AACA 8D 1E 29		    sta $291E
  4097 AACD 20 79 AB		    jsr sub_AB79
  4098 AAD0 A9 BE		    lda #$BE
  4099 AAD2 85 DC		    sta $DC
  4100 AAD4 AD AC 28		    lda $28AC
  4101 AAD7 D0 04		    bne loc_AADD
  4102 AAD9 A9 28		    lda #$28
  4103 AADB 85 DE		    sta $DE
  4104 AADD			loc_AADD:
  4105 AADD EE AC 28		    inc $28AC
  4106 AAE0 A2 07		    ldx #$07
  4107 AAE2 20 AA 94		    jsr sub_94AA
  4108 AAE5 A2 02		    ldx #$02
  4109 AAE7 4C AA 94		    jmp sub_94AA
  4110 AAEA			loc_AAEA:
  4111 AAEA A9 00		    lda #$00
  4112 AAEC 8D 1B 29		    sta $291B
  4113 AAEF 38			    sec
  4114 AAF0 A9 67		    lda #$67
  4115 AAF2 ED 10 29		    sbc $2910
  4116 AAF5 0A			    asl
  4117 AAF6 8D 1A 29		    sta $291A
  4118 AAF9 90 03		    bcc loc_AAFE
  4119 AAFB CE 1B 29		    dec $291B
  4120 AAFE			loc_AAFE:
  4121 AAFE 38			    sec
  4122 AAFF A9 6B		    lda #$6B
  4123 AB01 ED 11 29		    sbc $2911
  4124 AB04 8D 1E 29		    sta $291E
  4125 AB07 20 7E AB		    jsr sub_AB7E
  4126 AB0A A9 10		    lda #$10
  4127 AB0C 8D 7F 28		    sta $287F
  4128 AB0F EE AC 28		    inc $28AC
  4129 AB12 A9 BE		    lda #$BE
  4130 AB14 85 DC		    sta $DC
  4131 AB16 A9 BC		    lda #$BC
  4132 AB18 85 DE		    sta $DE
  4133 AB1A A9 B6		    lda #$B6
  4134 AB1C 85 DD		    sta $DD
  4135 AB1E A9 B8		    lda #$B8
  4136 AB20 85 DB		    sta $DB
  4137 AB22 A9 34		    lda #$34
  4138 AB24 8D 55 33		    sta $3355
  4139 AB27 A2 03		    ldx #$03
  4140 AB29 20 AA 94		    jsr sub_94AA
  4141 AB2C E8			    inx
  4142 AB2D 20 AA 94		    jsr sub_94AA
  4143 AB30 A2 0A		    ldx #$0A
  4144 AB32 20 AA 94		    jsr sub_94AA
  4145 AB35 E8			    inx
  4146 AB36 20 AA 94		    jsr sub_94AA
  4147 AB39			sub_AB39:
  4148 AB39 AC 8E 28		    ldy $288E
  4149 AB3C C0 F4		    cpy #$F4
  4150 AB3E F0 06		    beq loc_AB46
  4151 AB40 88			    dey
  4152 AB41 C0 F4		    cpy #$F4
  4153 AB43 F0 01		    beq loc_AB46
  4154 AB45 88			    dey
  4155 AB46			loc_AB46:
  4156 AB46 8C 8E 28		    sty $288E
  4157 AB49 AC 8C 28		    ldy $288C
  4158 AB4C AD 0A D2		    lda RANDOM
  4159 AB4F 10 0D		    bpl loc_AB5E
  4160 AB51 C0 FB		    cpy #$FB
  4161 AB53 F0 06		    beq loc_AB5B
  4162 AB55 88			    dey
  4163 AB56 C0 FB		    cpy #$FB
  4164 AB58 F0 01		    beq loc_AB5B
  4165 AB5A 88			    dey
  4166 AB5B			loc_AB5B:
  4167 AB5B 4C 68 AB		    jmp loc_AB68
  4168 AB5E			loc_AB5E:
  4169 AB5E C0 05		    cpy #$05
  4170 AB60 F0 06		    beq loc_AB68
  4171 AB62 C8			    iny
  4172 AB63 C0 05		    cpy #$05
  4173 AB65 F0 01		    beq loc_AB68
  4174 AB67 C8			    iny
  4175 AB68			loc_AB68:
  4176 AB68 8C 8C 28		    sty $288C
  4177 AB6B 38			    sec
  4178 AB6C AD 98 28		    lda $2898
  4179 AB6F E9 08		    sbc #$08
  4180 AB71 B0 02		    bcs loc_AB75
  4181 AB73 A9 00		    lda #$00
  4182 AB75			loc_AB75:
  4183 AB75 8D 98 28		    sta $2898
  4184 AB78 60			    rts
  4185 AB79			sub_AB79:
  4186 AB79 AD 0A D2		    lda RANDOM
  4187 AB7C 30 58		    bmi loc_ABD6
  4188 AB7E			sub_AB7E:
  4189 AB7E 38			    sec
  4190 AB7F AD 1A 29		    lda $291A
  4191 AB82 E9 40		    sbc #$40
  4192 AB84 8D 1A 29		    sta $291A
  4193 AB87 B0 03		    bcs loc_AB8C
  4194 AB89 CE 1B 29		    dec $291B
  4195 AB8C			loc_AB8C:
  4196 AB8C AE 15 29		    ldx $2915
  4197 AB8F AC 17 29		    ldy $2917
  4198 AB92 C0 6C		    cpy #$6C
  4199 AB94 90 3F		    bcc loc_ABD5
  4200 AB96			loc_AB96:
  4201 AB96 AD 19 29		    lda $2919
  4202 AB99 8D 1F 29		    sta $291F
  4203 AB9C			loc_AB9C:
  4204 AB9C E0 2C		    cpx #$2C
  4205 AB9E 90 07		    bcc loc_ABA7
  4206 ABA0 E0 D4		    cpx #$D4
  4207 ABA2 B0 03		    bcs loc_ABA7
  4208 ABA4 20 5C A7		    jsr sub_A75C
  4209 ABA7			loc_ABA7:
  4210 ABA7 E8			    inx
  4211 ABA8 CE 1F 29		    dec $291F
  4212 ABAB D0 EF		    bne loc_AB9C
  4213 ABAD 18			    clc
  4214 ABAE AD 18 29		    lda $2918
  4215 ABB1 6D 1E 29		    adc $291E
  4216 ABB4 8D 18 29		    sta $2918
  4217 ABB7 90 04		    bcc loc_ABBD
  4218 ABB9 EE 19 29		    inc $2919
  4219 ABBC 18			    clc
  4220 ABBD			loc_ABBD:
  4221 ABBD AD 14 29		    lda $2914
  4222 ABC0 6D 1A 29		    adc $291A
  4223 ABC3 8D 14 29		    sta $2914
  4224 ABC6 AD 15 29		    lda $2915
  4225 ABC9 6D 1B 29		    adc $291B
  4226 ABCC 8D 15 29		    sta $2915
  4227 ABCF AA			    tax
  4228 ABD0 88			    dey
  4229 ABD1 C0 6C		    cpy #$6C
  4230 ABD3 B0 C1		    bcs loc_AB96
  4231 ABD5			loc_ABD5:
  4232 ABD5 60			    rts
  4233 ABD6			loc_ABD6:
  4234 ABD6 AE 15 29		    ldx $2915
  4235 ABD9 AC 17 29		    ldy $2917
  4236 ABDC			loc_ABDC:
  4237 ABDC E0 2C		    cpx #$2C
  4238 ABDE 90 F5		    bcc loc_ABD5
  4239 ABE0 E0 D4		    cpx #$D4
  4240 ABE2 B0 F1		    bcs loc_ABD5
  4241 ABE4 C0 6C		    cpy #$6C
  4242 ABE6 90 ED		    bcc loc_ABD5
  4243 ABE8 AD 19 29		    lda $2919
  4244 ABEB 8D 1F 29		    sta $291F
  4245 ABEE			loc_ABEE:
  4246 ABEE 20 5C A7		    jsr sub_A75C
  4247 ABF1 88			    dey
  4248 ABF2 C0 6C		    cpy #$6C
  4249 ABF4 90 05		    bcc loc_ABFB
  4250 ABF6 CE 1F 29		    dec $291F
  4251 ABF9 D0 F3		    bne loc_ABEE
  4252 ABFB			loc_ABFB:
  4253 ABFB 18			    clc
  4254 ABFC AD 18 29		    lda $2918
  4255 ABFF 6D 1E 29		    adc $291E
  4256 AC02 8D 18 29		    sta $2918
  4257 AC05 90 04		    bcc loc_AC0B
  4258 AC07 EE 19 29		    inc $2919
  4259 AC0A 18			    clc
  4260 AC0B			loc_AC0B:
  4261 AC0B AD 16 29		    lda $2916
  4262 AC0E 6D 1C 29		    adc $291C
  4263 AC11 8D 16 29		    sta $2916
  4264 AC14 AD 17 29		    lda $2917
  4265 AC17 6D 1D 29		    adc $291D
  4266 AC1A 8D 17 29		    sta $2917
  4267 AC1D A8			    tay
  4268 AC1E AD 1B 29		    lda $291B
  4269 AC21 30 04		    bmi loc_AC27
  4270 AC23 E8			    inx
  4271 AC24 4C DC AB		    jmp loc_ABDC
  4272 AC27			loc_AC27:
  4273 AC27 CA			    dex
  4274 AC28 4C DC AB		    jmp loc_ABDC
  4275 AC2B			sub_AC2B:
  4276 AC2B 29 03		    and #$03
  4277 AC2D AA			    tax
  4278 AC2E BD 73 A8		    lda $A873,x
  4279 AC31 8D FB 28		    sta $28FB
  4280 AC34 BD 77 A8		    lda $A877,x
  4281 AC37 8D FC 28		    sta $28FC
  4282 AC3A 8A			    txa
  4283 AC3B D0 05		    bne loc_AC42
  4284 AC3D A9 FF		    lda #$FF
  4285 AC3F 8D 03 29		    sta $2903
  4286 AC42			loc_AC42:
  4287 AC42 4E FA 28		    lsr $28FA
  4288 AC45 6E F9 28		    ror $28F9
  4289 AC48 4E FA 28		    lsr $28FA
  4290 AC4B 6E F9 28		    ror $28F9
  4291 AC4E 60			    rts
  4292 AC4F			sub_AC4F:
  4293 AC4F AD FA 28		    lda $28FA
  4294 AC52 D0 08		    bne loc_AC5C
  4295 AC54 A9 00		    lda #$00
  4296 AC56 8D F9 28		    sta $28F9
  4297 AC59 EE FA 28		    inc $28FA
  4298 AC5C			loc_AC5C:
  4299 AC5C A9 10		    lda #$10
  4300 AC5E 85 C5		    sta $C5
  4301 AC60 A9 00		    lda #$00
  4302 AC62 85 C4		    sta $C4
  4303 AC64 38			    sec
  4304 AC65			loc_AC65:
  4305 AC65 A5 C4		    lda $C4
  4306 AC67 ED F9 28		    sbc $28F9
  4307 AC6A 85 C4		    sta $C4
  4308 AC6C A5 C5		    lda $C5
  4309 AC6E ED FA 28		    sbc $28FA
  4310 AC71 85 C5		    sta $C5
  4311 AC73 CE F7 28		    dec $28F7
  4312 AC76 B0 ED		    bcs loc_AC65
  4313 AC78 AD F7 28		    lda $28F7
  4314 AC7B 8D 01 29		    sta $2901
  4315 AC7E A9 00		    lda #$00
  4316 AC80 8D FF 28		    sta $28FF
  4317 AC83 8D 00 29		    sta $2900
  4318 AC86			loc_AC86:
  4319 AC86 A9 00		    lda #$00
  4320 AC88 8D FD 28		    sta $28FD
  4321 AC8B 8D FE 28		    sta $28FE
  4322 AC8E 85 C5		    sta $C5
  4323 AC90 AD 00 29		    lda $2900
  4324 AC93 0A			    asl
  4325 AC94 26 C5		    rol $C5
  4326 AC96 0A			    asl
  4327 AC97 26 C5		    rol $C5
  4328 AC99 18			    clc
  4329 AC9A 6D FB 28		    adc $28FB
  4330 AC9D 85 C4		    sta $C4
  4331 AC9F A5 C5		    lda $C5
  4332 ACA1 6D FC 28		    adc $28FC
  4333 ACA4 85 C5		    sta $C5
  4334 ACA6 AD 01 29		    lda $2901
  4335 ACA9 8D F7 28		    sta $28F7
  4336 ACAC			loc_ACAC:
  4337 ACAC AD FE 28		    lda $28FE
  4338 ACAF AE 02 29		    ldx $2902
  4339 ACB2 F0 06		    beq loc_ACBA
  4340 ACB4 38			    sec
  4341 ACB5 A9 1F		    lda #$1F
  4342 ACB7 ED FE 28		    sbc $28FE
  4343 ACBA			loc_ACBA:
  4344 ACBA AA			    tax
  4345 ACBB 4A			    lsr
  4346 ACBC 4A			    lsr
  4347 ACBD 4A			    lsr
  4348 ACBE A8			    tay
  4349 ACBF 8A			    txa
  4350 ACC0 29 07		    and #$07
  4351 ACC2 AA			    tax
  4352 ACC3 B1 C4		    lda ($C4),y
  4353 ACC5 3D 0E AD		    and $AD0E,x
  4354 ACC8 F0 09		    beq loc_ACD3
  4355 ACCA AE F7 28		    ldx $28F7
  4356 ACCD AC F8 28		    ldy $28F8
  4357 ACD0 20 54 A7		    jsr sub_A754
  4358 ACD3			loc_ACD3:
  4359 ACD3 EE F7 28		    inc $28F7
  4360 ACD6 18			    clc
  4361 ACD7 AD FD 28		    lda $28FD
  4362 ACDA 6D F9 28		    adc $28F9
  4363 ACDD 8D FD 28		    sta $28FD
  4364 ACE0 AD FE 28		    lda $28FE
  4365 ACE3 6D FA 28		    adc $28FA
  4366 ACE6 8D FE 28		    sta $28FE
  4367 ACE9 C9 20		    cmp #$20
  4368 ACEB 90 BF		    bcc loc_ACAC
  4369 ACED CE F8 28		    dec $28F8
  4370 ACF0 18			    clc
  4371 ACF1 AD FF 28		    lda $28FF
  4372 ACF4 6D F9 28		    adc $28F9
  4373 ACF7 8D FF 28		    sta $28FF
  4374 ACFA AD 00 29		    lda $2900
  4375 ACFD 6D FA 28		    adc $28FA
  4376 AD00 8D 00 29		    sta $2900
  4377 AD03 C9 0C		    cmp #$0C
  4378 AD05 B0 03		    bcs loc_AD0A
  4379 AD07 4C 86 AC		    jmp loc_AC86
  4380 AD0A			loc_AD0A:
  4381 AD0A AE 04 29		    ldx $2904
  4382 AD0D 60			    rts
  4383 AD0E 80 40 20 10 08 04 +     .byte $80,$40,$20,$10,$08,$04,$02,$01                  ; $AD0E
  4384 AD16			sub_AD16:
  4385 AD16 AD 4E 28		    lda $284E
  4386 AD19 D0 50		    bne loc_AD6B
  4387 AD1B AD 26 06		    lda $0626
  4388 AD1E F0 4B		    beq loc_AD6B
  4389 AD20 AD 2A 28		    lda $282A
  4390 AD23 10 1C		    bpl loc_AD41
  4391 AD25 AD 37 29		    lda $2937
  4392 AD28 C9 0C		    cmp #$0C
  4393 AD2A 90 04		    bcc loc_AD30
  4394 AD2C C9 F5		    cmp #$F5
  4395 AD2E 90 36		    bcc loc_AD66
  4396 AD30			loc_AD30:
  4397 AD30 AD 38 29		    lda $2938
  4398 AD33 C9 0C		    cmp #$0C
  4399 AD35 90 04		    bcc loc_AD3B
  4400 AD37 C9 F5		    cmp #$F5
  4401 AD39 90 2B		    bcc loc_AD66
  4402 AD3B			loc_AD3B:
  4403 AD3B AE 35 29		    ldx $2935
  4404 AD3E 4C 59 AD		    jmp loc_AD59
  4405 AD41			loc_AD41:
  4406 AD41 AD 2C 28		    lda $282C
  4407 AD44 C9 48		    cmp #$48
  4408 AD46 90 1E		    bcc loc_AD66
  4409 AD48 C9 98		    cmp #$98
  4410 AD4A B0 1A		    bcs loc_AD66
  4411 AD4C AD 2F 28		    lda $282F
  4412 AD4F C9 24		    cmp #$24
  4413 AD51 90 13		    bcc loc_AD66
  4414 AD53 C9 60		    cmp #$60
  4415 AD55 B0 0F		    bcs loc_AD66
  4416 AD57 A2 01		    ldx #$01
  4417 AD59			loc_AD59:
  4418 AD59 EE 3B 28		    inc $283B
  4419 AD5C AD 3B 28		    lda $283B
  4420 AD5F C9 02		    cmp #$02
  4421 AD61 90 08		    bcc loc_AD6B
  4422 AD63 8E 3C 28		    stx $283C
  4423 AD66			loc_AD66:
  4424 AD66 A9 00		    lda #$00
  4425 AD68 8D 3B 28		    sta $283B
  4426 AD6B			loc_AD6B:
  4427 AD6B 60			    rts
  4428 AD6C			load_camera:
  4429 AD6C AD 9B 28		    lda $289B
  4430 AD6F 85 87		    sta $87
  4431 AD71 AD 9C 28		    lda $289C
  4432 AD74 4A			    lsr
  4433 AD75 66 87		    ror $87
  4434 AD77 4A			    lsr
  4435 AD78 66 87		    ror $87
  4436 AD7A 4A			    lsr
  4437 AD7B 66 87		    ror $87
  4438 AD7D 4A			    lsr
  4439 AD7E 66 87		    ror $87
  4440 AD80 85 88		    sta $88
  4441 AD82 AD 9D 28		    lda $289D
  4442 AD85 85 89		    sta $89
  4443 AD87 AD 9E 28		    lda $289E
  4444 AD8A 4A			    lsr
  4445 AD8B 66 89		    ror $89
  4446 AD8D 4A			    lsr
  4447 AD8E 66 89		    ror $89
  4448 AD90 4A			    lsr
  4449 AD91 66 89		    ror $89
  4450 AD93 4A			    lsr
  4451 AD94 66 89		    ror $89
  4452 AD96 85 8A		    sta $8A
  4453 AD98 AD 9F 28		    lda $289F
  4454 AD9B 85 8B		    sta $8B
  4455 AD9D AD A0 28		    lda $28A0
  4456 ADA0 C9 40		    cmp #$40
  4457 ADA2 90 07		    bcc loc_ADAB
  4458 ADA4 A9 FF		    lda #$FF
  4459 ADA6 85 8C		    sta $8C
  4460 ADA8 4C B3 AD		    jmp loc_ADB3
  4461 ADAB			loc_ADAB:
  4462 ADAB 06 8B		    asl $8B
  4463 ADAD 2A			    rol
  4464 ADAE 26 8B		    rol $8B
  4465 ADB0 2A			    rol
  4466 ADB1 85 8C		    sta $8C
  4467 ADB3			loc_ADB3:
  4468 ADB3 AD 9A 28		    lda $289A
  4469 ADB6 2A			    rol
  4470 ADB7 2A			    rol
  4471 ADB8 85 92		    sta $92
  4472 ADBA 20 3C 9B		    jsr sub_9B3C
  4473 ADBD AD 0A 28		    lda $280A
  4474 ADC0 85 A0		    sta $A0
  4475 ADC2 AD 0B 28		    lda $280B
  4476 ADC5 85 A1		    sta $A1
  4477 ADC7 AD 0C 28		    lda $280C
  4478 ADCA 85 A2		    sta $A2
  4479 ADCC AD 0D 28		    lda $280D
  4480 ADCF 85 A3		    sta $A3
  4481 ADD1 AD 8E 28		    lda $288E
  4482 ADD4 85 A6		    sta $A6
  4483 ADD6 AD 8D 28		    lda $288D
  4484 ADD9 2A			    rol
  4485 ADDA 26 A6		    rol $A6
  4486 ADDC 2A			    rol
  4487 ADDD 26 A6		    rol $A6
  4488 ADDF A9 06		    lda #$06
  4489 ADE1 38			    sec
  4490 ADE2 E5 A6		    sbc $A6
  4491 ADE4 85 A6		    sta $A6
  4492 ADE6 AD 8A 28		    lda $288A
  4493 ADE9 48			    pha
  4494 ADEA C9 80		    cmp #$80
  4495 ADEC 6A			    ror
  4496 ADED 85 A4		    sta $A4
  4497 ADEF AD 89 28		    lda $2889
  4498 ADF2 6A			    ror
  4499 ADF3 85 A5		    sta $A5
  4500 ADF5 18			    clc
  4501 ADF6 68			    pla
  4502 ADF7 69 04		    adc #$04
  4503 ADF9 10 05		    bpl loc_AE00
  4504 ADFB A9 00		    lda #$00
  4505 ADFD 4C 06 AE		    jmp loc_AE06
  4506 AE00			loc_AE00:
  4507 AE00 C9 09		    cmp #$09
  4508 AE02 90 02		    bcc loc_AE06
  4509 AE04 A9 08		    lda #$08
  4510 AE06			loc_AE06:
  4511 AE06 8D 25 28		    sta $2825
  4512 AE09 60			    rts
  4513 AE0A			sub_AE0A:
  4514 AE0A A5 A6		    lda $A6
  4515 AE0C 8D 18 27		    sta $2718
  4516 AE0F A2 00		    ldx #$00
  4517 AE11 86 B6		    stx $B6
  4518 AE13			loc_AE13:
  4519 AE13 A5 B6		    lda $B6
  4520 AE15 18			    clc
  4521 AE16 65 A5		    adc $A5
  4522 AE18 85 B6		    sta $B6
  4523 AE1A BD 18 27		    lda $2718,x
  4524 AE1D 65 A4		    adc $A4
  4525 AE1F 9D 19 27		    sta $2719,x
  4526 AE22 E8			    inx
  4527 AE23 E0 0F		    cpx #$0F
  4528 AE25 D0 EC		    bne loc_AE13
  4529 AE27 A9 00		    lda #$00
  4530 AE29 85 B6		    sta $B6
  4531 AE2B			loc_AE2B:
  4532 AE2B A5 B6		    lda $B6
  4533 AE2D 38			    sec
  4534 AE2E E5 A5		    sbc $A5
  4535 AE30 85 B6		    sta $B6
  4536 AE32 BD 09 27		    lda $2709,x
  4537 AE35 E5 A4		    sbc $A4
  4538 AE37 9D 08 27		    sta $2708,x
  4539 AE3A CA			    dex
  4540 AE3B 10 EE		    bpl loc_AE2B
  4541 AE3D 60			    rts
  4542 AE3E			sub_AE3E:
  4543 AE3E 86 94		    stx $94
  4544 AE40 A0 2A		    ldy #$2A
  4545 AE42 A9 00		    lda #$00
  4546 AE44			loc_AE44:
  4547 AE44 9D 10 10		    sta $1010,x
  4548 AE47 9D 70 10		    sta $1070,x
  4549 AE4A 9D D0 10		    sta $10D0,x
  4550 AE4D 9D 30 11		    sta $1130,x
  4551 AE50 9D 90 11		    sta $1190,x
  4552 AE53 9D F0 11		    sta $11F0,x
  4553 AE56 9D 50 12		    sta $1250,x
  4554 AE59 9D B0 12		    sta $12B0,x
  4555 AE5C 9D 10 13		    sta $1310,x
  4556 AE5F 9D 70 13		    sta $1370,x
  4557 AE62 9D D0 13		    sta $13D0,x
  4558 AE65 9D 30 14		    sta $1430,x
  4559 AE68 9D 90 14		    sta $1490,x
  4560 AE6B 9D F0 14		    sta $14F0,x
  4561 AE6E 9D 50 15		    sta $1550,x
  4562 AE71 9D B0 15		    sta $15B0,x
  4563 AE74 9D 10 16		    sta $1610,x
  4564 AE77 9D 70 16		    sta $1670,x
  4565 AE7A 9D D0 16		    sta $16D0,x
  4566 AE7D 9D 30 17		    sta $1730,x
  4567 AE80 9D 90 17		    sta $1790,x
  4568 AE83 9D F0 17		    sta $17F0,x
  4569 AE86 9D 50 18		    sta $1850,x
  4570 AE89 9D B0 18		    sta $18B0,x
  4571 AE8C 9D 10 19		    sta $1910,x
  4572 AE8F 9D 70 19		    sta $1970,x
  4573 AE92 9D D0 19		    sta $19D0,x
  4574 AE95 9D 30 1A		    sta $1A30,x
  4575 AE98 9D 90 1A		    sta $1A90,x
  4576 AE9B 9D F0 1A		    sta $1AF0,x
  4577 AE9E 9D 50 1B		    sta $1B50,x
  4578 AEA1 9D B0 1B		    sta $1BB0,x
  4579 AEA4 9D 10 1C		    sta $1C10,x
  4580 AEA7 9D 70 1C		    sta $1C70,x
  4581 AEAA 9D D0 1C		    sta $1CD0,x
  4582 AEAD 9D 30 1D		    sta $1D30,x
  4583 AEB0 9D 90 1D		    sta $1D90,x
  4584 AEB3 9D F0 1D		    sta $1DF0,x
  4585 AEB6 9D 50 1E		    sta $1E50,x
  4586 AEB9 9D B0 1E		    sta $1EB0,x
  4587 AEBC 9D 10 1F		    sta $1F10,x
  4588 AEBF 9D 70 1F		    sta $1F70,x
  4589 AEC2 9D D0 1F		    sta $1FD0,x
  4590 AEC5 9D 30 20		    sta $2030,x
  4591 AEC8 E8			    inx
  4592 AEC9 88			    dey
  4593 AECA F0 03		    beq loc_AECF
  4594 AECC 4C 44 AE		    jmp loc_AE44
  4595 AECF			loc_AECF:
  4596 AECF A6 94		    ldx $94
  4597 AED1 9D 90 20		    sta $2090,x
  4598 AED4 9D 91 20		    sta $2091,x
  4599 AED7 9D 92 20		    sta $2092,x
  4600 AEDA 9D 93 20		    sta $2093,x
  4601 AEDD 9D 94 20		    sta $2094,x
  4602 AEE0 9D BA 20		    sta $20BA,x
  4603 AEE3 9D B9 20		    sta $20B9,x
  4604 AEE6 9D B8 20		    sta $20B8,x
  4605 AEE9 9D B7 20		    sta $20B7,x
  4606 AEEC 9D B6 20		    sta $20B6,x
  4607 AEEF 9D B5 20		    sta $20B5,x
  4608 AEF2 9D F0 20		    sta $20F0,x
  4609 AEF5 9D F1 20		    sta $20F1,x
  4610 AEF8 9D F2 20		    sta $20F2,x
  4611 AEFB 9D F3 20		    sta $20F3,x
  4612 AEFE 9D 1A 21		    sta $211A,x
  4613 AF01 9D 19 21		    sta $2119,x
  4614 AF04 9D 18 21		    sta $2118,x
  4615 AF07 9D 17 21		    sta $2117,x
  4616 AF0A 9D 16 21		    sta $2116,x
  4617 AF0D 9D 50 21		    sta $2150,x
  4618 AF10 9D 51 21		    sta $2151,x
  4619 AF13 9D 52 21		    sta $2152,x
  4620 AF16 9D 7A 21		    sta $217A,x
  4621 AF19 9D 79 21		    sta $2179,x
  4622 AF1C 9D 78 21		    sta $2178,x
  4623 AF1F 9D 77 21		    sta $2177,x
  4624 AF22 9D B0 21		    sta $21B0,x
  4625 AF25 9D DA 21		    sta $21DA,x
  4626 AF28 9D B1 21		    sta $21B1,x
  4627 AF2B 9D D9 21		    sta $21D9,x
  4628 AF2E 9D D8 21		    sta $21D8,x
  4629 AF31 60			    rts
  4630 AF32			fill_column_fast:
  4631 AF32 8A			    txa
  4632 AF33 A8			    tay
  4633 AF34 A9 2A		    lda #$2A
  4634 AF36 85 9F		    sta $9F
  4635 AF38			loc_AF38:
  4636 AF38 A9 00		    lda #$00
  4637 AF3A D9 10 10		    cmp $1010,y
  4638 AF3D F0 07		    beq loc_AF46
  4639 AF3F A9 55		    lda #$55
  4640 AF41 A2 00		    ldx #$00
  4641 AF43 4C 0E B2		    jmp loc_B20E
  4642 AF46			loc_AF46:
  4643 AF46 D9 70 10		    cmp $1070,y
  4644 AF49 F0 07		    beq loc_AF52
  4645 AF4B A9 55		    lda #$55
  4646 AF4D A2 01		    ldx #$01
  4647 AF4F 4C 0B B2		    jmp loc_B20B
  4648 AF52			loc_AF52:
  4649 AF52 D9 D0 10		    cmp $10D0,y
  4650 AF55 F0 07		    beq loc_AF5E
  4651 AF57 A9 55		    lda #$55
  4652 AF59 A2 02		    ldx #$02
  4653 AF5B 4C 08 B2		    jmp loc_B208
  4654 AF5E			loc_AF5E:
  4655 AF5E D9 30 11		    cmp $1130,y
  4656 AF61 F0 07		    beq loc_AF6A
  4657 AF63 A9 55		    lda #$55
  4658 AF65 A2 03		    ldx #$03
  4659 AF67 4C 05 B2		    jmp loc_B205
  4660 AF6A			loc_AF6A:
  4661 AF6A D9 90 11		    cmp $1190,y
  4662 AF6D F0 07		    beq loc_AF76
  4663 AF6F A9 55		    lda #$55
  4664 AF71 A2 04		    ldx #$04
  4665 AF73 4C 02 B2		    jmp loc_B202
  4666 AF76			loc_AF76:
  4667 AF76 D9 F0 11		    cmp $11F0,y
  4668 AF79 F0 07		    beq loc_AF82
  4669 AF7B A9 55		    lda #$55
  4670 AF7D A2 05		    ldx #$05
  4671 AF7F 4C FF B1		    jmp loc_B1FF
  4672 AF82			loc_AF82:
  4673 AF82 D9 50 12		    cmp $1250,y
  4674 AF85 F0 07		    beq loc_AF8E
  4675 AF87 A9 55		    lda #$55
  4676 AF89 A2 06		    ldx #$06
  4677 AF8B 4C FC B1		    jmp loc_B1FC
  4678 AF8E			loc_AF8E:
  4679 AF8E D9 B0 12		    cmp $12B0,y
  4680 AF91 F0 07		    beq loc_AF9A
  4681 AF93 A9 55		    lda #$55
  4682 AF95 A2 07		    ldx #$07
  4683 AF97 4C F9 B1		    jmp loc_B1F9
  4684 AF9A			loc_AF9A:
  4685 AF9A D9 10 13		    cmp $1310,y
  4686 AF9D F0 07		    beq loc_AFA6
  4687 AF9F A9 55		    lda #$55
  4688 AFA1 A2 08		    ldx #$08
  4689 AFA3 4C F6 B1		    jmp loc_B1F6
  4690 AFA6			loc_AFA6:
  4691 AFA6 D9 70 13		    cmp $1370,y
  4692 AFA9 F0 07		    beq loc_AFB2
  4693 AFAB A9 55		    lda #$55
  4694 AFAD A2 09		    ldx #$09
  4695 AFAF 4C F3 B1		    jmp loc_B1F3
  4696 AFB2			loc_AFB2:
  4697 AFB2 D9 D0 13		    cmp $13D0,y
  4698 AFB5 F0 07		    beq loc_AFBE
  4699 AFB7 A9 55		    lda #$55
  4700 AFB9 A2 0A		    ldx #$0A
  4701 AFBB 4C F0 B1		    jmp loc_B1F0
  4702 AFBE			loc_AFBE:
  4703 AFBE D9 30 14		    cmp $1430,y
  4704 AFC1 F0 07		    beq loc_AFCA
  4705 AFC3 A9 55		    lda #$55
  4706 AFC5 A2 0B		    ldx #$0B
  4707 AFC7 4C ED B1		    jmp loc_B1ED
  4708 AFCA			loc_AFCA:
  4709 AFCA D9 90 14		    cmp $1490,y
  4710 AFCD F0 07		    beq loc_AFD6
  4711 AFCF A9 55		    lda #$55
  4712 AFD1 A2 0C		    ldx #$0C
  4713 AFD3 4C EA B1		    jmp loc_B1EA
  4714 AFD6			loc_AFD6:
  4715 AFD6 D9 F0 14		    cmp $14F0,y
  4716 AFD9 F0 07		    beq loc_AFE2
  4717 AFDB A9 55		    lda #$55
  4718 AFDD A2 0D		    ldx #$0D
  4719 AFDF 4C E7 B1		    jmp loc_B1E7
  4720 AFE2			loc_AFE2:
  4721 AFE2 D9 50 15		    cmp $1550,y
  4722 AFE5 F0 07		    beq loc_AFEE
  4723 AFE7 A9 55		    lda #$55
  4724 AFE9 A2 0E		    ldx #$0E
  4725 AFEB 4C E4 B1		    jmp loc_B1E4
  4726 AFEE			loc_AFEE:
  4727 AFEE D9 B0 15		    cmp $15B0,y
  4728 AFF1 F0 07		    beq loc_AFFA
  4729 AFF3 A9 55		    lda #$55
  4730 AFF5 A2 0F		    ldx #$0F
  4731 AFF7 4C E1 B1		    jmp loc_B1E1
  4732 AFFA			loc_AFFA:
  4733 AFFA D9 10 16		    cmp $1610,y
  4734 AFFD F0 07		    beq loc_B006
  4735 AFFF A9 55		    lda #$55
  4736 B001 A2 10		    ldx #$10
  4737 B003 4C DE B1		    jmp loc_B1DE
  4738 B006			loc_B006:
  4739 B006 D9 70 16		    cmp $1670,y
  4740 B009 F0 07		    beq loc_B012
  4741 B00B A9 55		    lda #$55
  4742 B00D A2 11		    ldx #$11
  4743 B00F 4C DB B1		    jmp loc_B1DB
  4744 B012			loc_B012:
  4745 B012 D9 D0 16		    cmp $16D0,y
  4746 B015 F0 07		    beq loc_B01E
  4747 B017 A9 55		    lda #$55
  4748 B019 A2 12		    ldx #$12
  4749 B01B 4C D8 B1		    jmp loc_B1D8
  4750 B01E			loc_B01E:
  4751 B01E D9 30 17		    cmp $1730,y
  4752 B021 F0 07		    beq loc_B02A
  4753 B023 A9 55		    lda #$55
  4754 B025 A2 13		    ldx #$13
  4755 B027 4C D5 B1		    jmp loc_B1D5
  4756 B02A			loc_B02A:
  4757 B02A D9 90 17		    cmp $1790,y
  4758 B02D F0 07		    beq loc_B036
  4759 B02F A9 55		    lda #$55
  4760 B031 A2 14		    ldx #$14
  4761 B033 4C D2 B1		    jmp loc_B1D2
  4762 B036			loc_B036:
  4763 B036 D9 F0 17		    cmp $17F0,y
  4764 B039 F0 07		    beq loc_B042
  4765 B03B A9 55		    lda #$55
  4766 B03D A2 15		    ldx #$15
  4767 B03F 4C CF B1		    jmp loc_B1CF
  4768 B042			loc_B042:
  4769 B042 D9 50 18		    cmp $1850,y
  4770 B045 F0 07		    beq loc_B04E
  4771 B047 A9 55		    lda #$55
  4772 B049 A2 16		    ldx #$16
  4773 B04B 4C CC B1		    jmp loc_B1CC
  4774 B04E			loc_B04E:
  4775 B04E D9 B0 18		    cmp $18B0,y
  4776 B051 F0 07		    beq loc_B05A
  4777 B053 A9 55		    lda #$55
  4778 B055 A2 17		    ldx #$17
  4779 B057 4C C9 B1		    jmp loc_B1C9
  4780 B05A			loc_B05A:
  4781 B05A D9 10 19		    cmp $1910,y
  4782 B05D F0 07		    beq loc_B066
  4783 B05F A9 55		    lda #$55
  4784 B061 A2 18		    ldx #$18
  4785 B063 4C C6 B1		    jmp loc_B1C6
  4786 B066			loc_B066:
  4787 B066 D9 70 19		    cmp $1970,y
  4788 B069 F0 07		    beq loc_B072
  4789 B06B A9 55		    lda #$55
  4790 B06D A2 19		    ldx #$19
  4791 B06F 4C C3 B1		    jmp loc_B1C3
  4792 B072			loc_B072:
  4793 B072 D9 D0 19		    cmp $19D0,y
  4794 B075 F0 07		    beq loc_B07E
  4795 B077 A9 55		    lda #$55
  4796 B079 A2 1A		    ldx #$1A
  4797 B07B 4C C0 B1		    jmp loc_B1C0
  4798 B07E			loc_B07E:
  4799 B07E D9 30 1A		    cmp $1A30,y
  4800 B081 F0 07		    beq loc_B08A
  4801 B083 A9 55		    lda #$55
  4802 B085 A2 1B		    ldx #$1B
  4803 B087 4C BD B1		    jmp loc_B1BD
  4804 B08A			loc_B08A:
  4805 B08A D9 90 1A		    cmp $1A90,y
  4806 B08D F0 07		    beq loc_B096
  4807 B08F A9 55		    lda #$55
  4808 B091 A2 1C		    ldx #$1C
  4809 B093 4C BA B1		    jmp loc_B1BA
  4810 B096			loc_B096:
  4811 B096 D9 F0 1A		    cmp $1AF0,y
  4812 B099 F0 07		    beq loc_B0A2
  4813 B09B A9 55		    lda #$55
  4814 B09D A2 1D		    ldx #$1D
  4815 B09F 4C B7 B1		    jmp loc_B1B7
  4816 B0A2			loc_B0A2:
  4817 B0A2 D9 50 1B		    cmp $1B50,y
  4818 B0A5 F0 07		    beq loc_B0AE
  4819 B0A7 A9 55		    lda #$55
  4820 B0A9 A2 1E		    ldx #$1E
  4821 B0AB 4C B4 B1		    jmp loc_B1B4
  4822 B0AE			loc_B0AE:
  4823 B0AE D9 B0 1B		    cmp $1BB0,y
  4824 B0B1 F0 07		    beq loc_B0BA
  4825 B0B3 A9 55		    lda #$55
  4826 B0B5 A2 1F		    ldx #$1F
  4827 B0B7 4C B1 B1		    jmp loc_B1B1
  4828 B0BA			loc_B0BA:
  4829 B0BA D9 10 1C		    cmp $1C10,y
  4830 B0BD F0 07		    beq loc_B0C6
  4831 B0BF A9 55		    lda #$55
  4832 B0C1 A2 20		    ldx #$20
  4833 B0C3 4C AE B1		    jmp loc_B1AE
  4834 B0C6			loc_B0C6:
  4835 B0C6 D9 70 1C		    cmp $1C70,y
  4836 B0C9 F0 07		    beq loc_B0D2
  4837 B0CB A9 55		    lda #$55
  4838 B0CD A2 21		    ldx #$21
  4839 B0CF 4C AB B1		    jmp loc_B1AB
  4840 B0D2			loc_B0D2:
  4841 B0D2 D9 D0 1C		    cmp $1CD0,y
  4842 B0D5 F0 07		    beq loc_B0DE
  4843 B0D7 A9 55		    lda #$55
  4844 B0D9 A2 22		    ldx #$22
  4845 B0DB 4C A8 B1		    jmp loc_B1A8
  4846 B0DE			loc_B0DE:
  4847 B0DE D9 30 1D		    cmp $1D30,y
  4848 B0E1 F0 07		    beq loc_B0EA
  4849 B0E3 A9 55		    lda #$55
  4850 B0E5 A2 23		    ldx #$23
  4851 B0E7 4C A5 B1		    jmp loc_B1A5
  4852 B0EA			loc_B0EA:
  4853 B0EA D9 90 1D		    cmp $1D90,y
  4854 B0ED F0 07		    beq loc_B0F6
  4855 B0EF A9 55		    lda #$55
  4856 B0F1 A2 24		    ldx #$24
  4857 B0F3 4C A2 B1		    jmp loc_B1A2
  4858 B0F6			loc_B0F6:
  4859 B0F6 D9 F0 1D		    cmp $1DF0,y
  4860 B0F9 F0 07		    beq loc_B102
  4861 B0FB A9 55		    lda #$55
  4862 B0FD A2 25		    ldx #$25
  4863 B0FF 4C 9F B1		    jmp loc_B19F
  4864 B102			loc_B102:
  4865 B102 D9 50 1E		    cmp $1E50,y
  4866 B105 F0 07		    beq loc_B10E
  4867 B107 A9 55		    lda #$55
  4868 B109 A2 26		    ldx #$26
  4869 B10B 4C 9C B1		    jmp loc_B19C
  4870 B10E			loc_B10E:
  4871 B10E D9 B0 1E		    cmp $1EB0,y
  4872 B111 F0 07		    beq loc_B11A
  4873 B113 A9 55		    lda #$55
  4874 B115 A2 27		    ldx #$27
  4875 B117 4C 99 B1		    jmp loc_B199
  4876 B11A			loc_B11A:
  4877 B11A D9 10 1F		    cmp $1F10,y
  4878 B11D F0 07		    beq loc_B126
  4879 B11F A9 55		    lda #$55
  4880 B121 A2 28		    ldx #$28
  4881 B123 4C 96 B1		    jmp loc_B196
  4882 B126			loc_B126:
  4883 B126 D9 70 1F		    cmp $1F70,y
  4884 B129 F0 07		    beq loc_B132
  4885 B12B A9 55		    lda #$55
  4886 B12D A2 29		    ldx #$29
  4887 B12F 4C 93 B1		    jmp loc_B193
  4888 B132			loc_B132:
  4889 B132 D9 D0 1F		    cmp $1FD0,y
  4890 B135 F0 07		    beq loc_B13E
  4891 B137 A9 55		    lda #$55
  4892 B139 A2 2A		    ldx #$2A
  4893 B13B 4C 90 B1		    jmp loc_B190
  4894 B13E			loc_B13E:
  4895 B13E D9 30 20		    cmp $2030,y
  4896 B141 F0 07		    beq loc_B14A
  4897 B143 A9 55		    lda #$55
  4898 B145 A2 2B		    ldx #$2B
  4899 B147 4C 8D B1		    jmp loc_B18D
  4900 B14A			loc_B14A:
  4901 B14A D9 90 20		    cmp $2090,y
  4902 B14D F0 07		    beq loc_B156
  4903 B14F A9 55		    lda #$55
  4904 B151 A2 2C		    ldx #$2C
  4905 B153 4C 8A B1		    jmp loc_B18A
  4906 B156			loc_B156:
  4907 B156 D9 F0 20		    cmp $20F0,y
  4908 B159 F0 07		    beq loc_B162
  4909 B15B A9 55		    lda #$55
  4910 B15D A2 2D		    ldx #$2D
  4911 B15F 4C 87 B1		    jmp loc_B187
  4912 B162			loc_B162:
  4913 B162 D9 50 21		    cmp $2150,y
  4914 B165 F0 07		    beq loc_B16E
  4915 B167 A9 55		    lda #$55
  4916 B169 A2 2E		    ldx #$2E
  4917 B16B 4C 84 B1		    jmp loc_B184
  4918 B16E			loc_B16E:
  4919 B16E D9 B0 21		    cmp $21B0,y
  4920 B171 F0 07		    beq loc_B17A
  4921 B173 A9 55		    lda #$55
  4922 B175 A2 2F		    ldx #$2F
  4923 B177 4C 81 B1		    jmp loc_B181
  4924 B17A			loc_B17A:
  4925 B17A A9 55		    lda #$55
  4926 B17C A2 30		    ldx #$30
  4927 B17E 99 B0 21		    sta $21B0,y
  4928 B181			loc_B181:
  4929 B181 99 50 21		    sta $2150,y
  4930 B184			loc_B184:
  4931 B184 99 F0 20		    sta $20F0,y
  4932 B187			loc_B187:
  4933 B187 99 90 20		    sta $2090,y
  4934 B18A			loc_B18A:
  4935 B18A 99 30 20		    sta $2030,y
  4936 B18D			loc_B18D:
  4937 B18D 99 D0 1F		    sta $1FD0,y
  4938 B190			loc_B190:
  4939 B190 99 70 1F		    sta $1F70,y
  4940 B193			loc_B193:
  4941 B193 99 10 1F		    sta $1F10,y
  4942 B196			loc_B196:
  4943 B196 99 B0 1E		    sta $1EB0,y
  4944 B199			loc_B199:
  4945 B199 99 50 1E		    sta $1E50,y
  4946 B19C			loc_B19C:
  4947 B19C 99 F0 1D		    sta $1DF0,y
  4948 B19F			loc_B19F:
  4949 B19F 99 90 1D		    sta $1D90,y
  4950 B1A2			loc_B1A2:
  4951 B1A2 99 30 1D		    sta $1D30,y
  4952 B1A5			loc_B1A5:
  4953 B1A5 99 D0 1C		    sta $1CD0,y
  4954 B1A8			loc_B1A8:
  4955 B1A8 99 70 1C		    sta $1C70,y
  4956 B1AB			loc_B1AB:
  4957 B1AB 99 10 1C		    sta $1C10,y
  4958 B1AE			loc_B1AE:
  4959 B1AE 99 B0 1B		    sta $1BB0,y
  4960 B1B1			loc_B1B1:
  4961 B1B1 99 50 1B		    sta $1B50,y
  4962 B1B4			loc_B1B4:
  4963 B1B4 99 F0 1A		    sta $1AF0,y
  4964 B1B7			loc_B1B7:
  4965 B1B7 99 90 1A		    sta $1A90,y
  4966 B1BA			loc_B1BA:
  4967 B1BA 99 30 1A		    sta $1A30,y
  4968 B1BD			loc_B1BD:
  4969 B1BD 99 D0 19		    sta $19D0,y
  4970 B1C0			loc_B1C0:
  4971 B1C0 99 70 19		    sta $1970,y
  4972 B1C3			loc_B1C3:
  4973 B1C3 99 10 19		    sta $1910,y
  4974 B1C6			loc_B1C6:
  4975 B1C6 99 B0 18		    sta $18B0,y
  4976 B1C9			loc_B1C9:
  4977 B1C9 99 50 18		    sta $1850,y
  4978 B1CC			loc_B1CC:
  4979 B1CC 99 F0 17		    sta $17F0,y
  4980 B1CF			loc_B1CF:
  4981 B1CF 99 90 17		    sta $1790,y
  4982 B1D2			loc_B1D2:
  4983 B1D2 99 30 17		    sta $1730,y
  4984 B1D5			loc_B1D5:
  4985 B1D5 99 D0 16		    sta $16D0,y
  4986 B1D8			loc_B1D8:
  4987 B1D8 99 70 16		    sta $1670,y
  4988 B1DB			loc_B1DB:
  4989 B1DB 99 10 16		    sta $1610,y
  4990 B1DE			loc_B1DE:
  4991 B1DE 99 B0 15		    sta $15B0,y
  4992 B1E1			loc_B1E1:
  4993 B1E1 99 50 15		    sta $1550,y
  4994 B1E4			loc_B1E4:
  4995 B1E4 99 F0 14		    sta $14F0,y
  4996 B1E7			loc_B1E7:
  4997 B1E7 99 90 14		    sta $1490,y
  4998 B1EA			loc_B1EA:
  4999 B1EA 99 30 14		    sta $1430,y
  5000 B1ED			loc_B1ED:
  5001 B1ED 99 D0 13		    sta $13D0,y
  5002 B1F0			loc_B1F0:
  5003 B1F0 99 70 13		    sta $1370,y
  5004 B1F3			loc_B1F3:
  5005 B1F3 99 10 13		    sta $1310,y
  5006 B1F6			loc_B1F6:
  5007 B1F6 99 B0 12		    sta $12B0,y
  5008 B1F9			loc_B1F9:
  5009 B1F9 99 50 12		    sta $1250,y
  5010 B1FC			loc_B1FC:
  5011 B1FC 99 F0 11		    sta $11F0,y
  5012 B1FF			loc_B1FF:
  5013 B1FF 99 90 11		    sta $1190,y
  5014 B202			loc_B202:
  5015 B202 99 30 11		    sta $1130,y
  5016 B205			loc_B205:
  5017 B205 99 D0 10		    sta $10D0,y
  5018 B208			loc_B208:
  5019 B208 99 70 10		    sta $1070,y
  5020 B20B			loc_B20B:
  5021 B20B EA			    nop
  5022 B20C EA			    nop
  5023 B20D EA			    nop
  5024 B20E			loc_B20E:
  5025 B20E 86 97		    stx $97
  5026 B210 A9 00		    lda #$00
  5027 B212 85 95		    sta $95
  5028 B214 A9 55		    lda #$55
  5029 B216 85 96		    sta $96
  5030 B218			loc_B218:
  5031 B218 A6 97		    ldx $97
  5032 B21A BD 51 07		    lda $0751,x
  5033 B21D 85 80		    sta $80
  5034 B21F BD A7 07		    lda $07A7,x
  5035 B222 85 81		    sta $81
  5036 B224 B1 80		    lda ($80),y
  5037 B226 AA			    tax
  5038 B227 25 95		    and $95
  5039 B229 05 96		    ora $96
  5040 B22B 1D 00 BF		    ora $BF00,x
  5041 B22E 91 80		    sta ($80),y
  5042 B230 BD 00 BE		    lda $BE00,x
  5043 B233 25 96		    and $96
  5044 B235 F0 0D		    beq loc_B244
  5045 B237 85 96		    sta $96
  5046 B239 AA			    tax
  5047 B23A BD 00 BE		    lda $BE00,x
  5048 B23D 85 95		    sta $95
  5049 B23F E6 97		    inc $97
  5050 B241 4C 18 B2		    jmp loc_B218
  5051 B244			loc_B244:
  5052 B244 C8			    iny
  5053 B245 C6 9F		    dec $9F
  5054 B247 F0 03		    beq loc_B24C
  5055 B249 4C 38 AF		    jmp loc_AF38
  5056 B24C			loc_B24C:
  5057 B24C 60			    rts
  5058 B24D			rasterize_edge:
  5059 B24D AD 90 25		    lda $2590
  5060 B250 49 80		    eor #$80
  5061 B252 85 B6		    sta $B6
  5062 B254 A5 83		    lda $83
  5063 B256 49 80		    eor #$80
  5064 B258 C5 B6		    cmp $B6
  5065 B25A D0 05		    bne loc_B261
  5066 B25C A5 82		    lda $82
  5067 B25E CD 72 25		    cmp $2572
  5068 B261			loc_B261:
  5069 B261 B0 39		    bcs loc_B29C
  5070 B263 A9 14		    lda #$14
  5071 B265 85 9F		    sta $9F
  5072 B267			loc_B267:
  5073 B267 A5 83		    lda $83
  5074 B269 10 49		    bpl loc_B2B4
  5075 B26B C6 9F		    dec $9F
  5076 B26D 30 2D		    bmi loc_B29C
  5077 B26F 20 A7 B3		    jsr edge_midpoint
  5078 B272 A5 8E		    lda $8E
  5079 B274 30 27		    bmi loc_B29D
  5080 B276 D0 06		    bne loc_B27E
  5081 B278 A5 8D		    lda $8D
  5082 B27A C9 28		    cmp #$28
  5083 B27C 90 1F		    bcc loc_B29D
  5084 B27E			loc_B27E:
  5085 B27E A5 8D		    lda $8D
  5086 B280 9D 73 25		    sta $2573,x
  5087 B283 A5 8E		    lda $8E
  5088 B285 9D 91 25		    sta $2591,x
  5089 B288 A5 8F		    lda $8F
  5090 B28A 9D AF 25		    sta $25AF,x
  5091 B28D A5 90		    lda $90
  5092 B28F 9D CD 25		    sta $25CD,x
  5093 B292 A5 91		    lda $91
  5094 B294 9D EB 25		    sta $25EB,x
  5095 B297 E8			    inx
  5096 B298 E0 0F		    cpx #$0F
  5097 B29A 90 CB		    bcc loc_B267
  5098 B29C			loc_B29C:
  5099 B29C 60			    rts
  5100 B29D			loc_B29D:
  5101 B29D A5 8D		    lda $8D
  5102 B29F 85 82		    sta $82
  5103 B2A1 A5 8E		    lda $8E
  5104 B2A3 85 83		    sta $83
  5105 B2A5 A5 8F		    lda $8F
  5106 B2A7 85 84		    sta $84
  5107 B2A9 A5 90		    lda $90
  5108 B2AB 85 85		    sta $85
  5109 B2AD A5 91		    lda $91
  5110 B2AF 85 86		    sta $86
  5111 B2B1 4C 67 B2		    jmp loc_B267
  5112 B2B4			loc_B2B4:
  5113 B2B4 A5 83		    lda $83
  5114 B2B6 D0 E4		    bne loc_B29C
  5115 B2B8 A5 82		    lda $82
  5116 B2BA C9 D8		    cmp #$D8
  5117 B2BC B0 DE		    bcs loc_B29C
  5118 B2BE			loc_B2BE:
  5119 B2BE BD 90 25		    lda $2590,x
  5120 B2C1 F0 29		    beq loc_B2EC
  5121 B2C3			loc_B2C3:
  5122 B2C3 C6 9F		    dec $9F
  5123 B2C5 30 24		    bmi loc_B2EB
  5124 B2C7 20 A7 B3		    jsr edge_midpoint
  5125 B2CA A5 8D		    lda $8D
  5126 B2CC 9D 73 25		    sta $2573,x
  5127 B2CF A5 8E		    lda $8E
  5128 B2D1 9D 91 25		    sta $2591,x
  5129 B2D4 A5 8F		    lda $8F
  5130 B2D6 9D AF 25		    sta $25AF,x
  5131 B2D9 A5 90		    lda $90
  5132 B2DB 9D CD 25		    sta $25CD,x
  5133 B2DE A5 91		    lda $91
  5134 B2E0 9D EB 25		    sta $25EB,x
  5135 B2E3 E8			    inx
  5136 B2E4 E0 0F		    cpx #$0F
  5137 B2E6 B0 03		    bcs loc_B2EB
  5138 B2E8 4C BE B2		    jmp loc_B2BE
  5139 B2EB			loc_B2EB:
  5140 B2EB 60			    rts
  5141 B2EC			loc_B2EC:
  5142 B2EC A5 85		    lda $85
  5143 B2EE 30 08		    bmi loc_B2F8
  5144 B2F0 D0 16		    bne loc_B308
  5145 B2F2 A5 84		    lda $84
  5146 B2F4 C9 6C		    cmp #$6C
  5147 B2F6 B0 10		    bcs loc_B308
  5148 B2F8			loc_B2F8:
  5149 B2F8 BD CC 25		    lda $25CC,x
  5150 B2FB 30 1C		    bmi loc_B319
  5151 B2FD D0 1D		    bne loc_B31C
  5152 B2FF BD AE 25		    lda $25AE,x
  5153 B302 C9 6C		    cmp #$6C
  5154 B304 90 13		    bcc loc_B319
  5155 B306 B0 14		    bcs loc_B31C
  5156 B308			loc_B308:
  5157 B308 BD CC 25		    lda $25CC,x
  5158 B30B 30 2B		    bmi loc_B338
  5159 B30D D0 47		    bne loc_B356
  5160 B30F BD AE 25		    lda $25AE,x
  5161 B312 C9 6C		    cmp #$6C
  5162 B314 90 22		    bcc loc_B338
  5163 B316 4C 56 B3		    jmp loc_B356
  5164 B319			loc_B319:
  5165 B319 4C 85 B3		    jmp loc_B385
  5166 B31C			loc_B31C:
  5167 B31C 38			    sec
  5168 B31D BD 72 25		    lda $2572,x
  5169 B320 E5 82		    sbc $82
  5170 B322 C9 14		    cmp #$14
  5171 B324 90 30		    bcc loc_B356
  5172 B326 4A			    lsr
  5173 B327 4A			    lsr
  5174 B328 85 B6		    sta $B6
  5175 B32A A5 84		    lda $84
  5176 B32C 38			    sec
  5177 B32D E5 B6		    sbc $B6
  5178 B32F A5 85		    lda $85
  5179 B331 E9 00		    sbc #$00
  5180 B333 10 21		    bpl loc_B356
  5181 B335 4C C3 B2		    jmp loc_B2C3
  5182 B338			loc_B338:
  5183 B338 38			    sec
  5184 B339 BD 72 25		    lda $2572,x
  5185 B33C E5 82		    sbc $82
  5186 B33E C9 14		    cmp #$14
  5187 B340 90 14		    bcc loc_B356
  5188 B342 4A			    lsr
  5189 B343 4A			    lsr
  5190 B344 85 B6		    sta $B6
  5191 B346 BD AE 25		    lda $25AE,x
  5192 B349 38			    sec
  5193 B34A E5 B6		    sbc $B6
  5194 B34C BD CC 25		    lda $25CC,x
  5195 B34F E9 00		    sbc #$00
  5196 B351 10 03		    bpl loc_B356
  5197 B353 4C C3 B2		    jmp loc_B2C3
  5198 B356			loc_B356:
  5199 B356 A5 85		    lda $85
  5200 B358 F0 0A		    beq loc_B364
  5201 B35A 30 04		    bmi loc_B360
  5202 B35C A9 FF		    lda #$FF
  5203 B35E D0 02		    bne loc_B362
  5204 B360			loc_B360:
  5205 B360 A9 00		    lda #$00
  5206 B362			loc_B362:
  5207 B362 85 84		    sta $84
  5208 B364			loc_B364:
  5209 B364 BD CC 25		    lda $25CC,x
  5210 B367 F0 0A		    beq loc_B373
  5211 B369 30 04		    bmi loc_B36F
  5212 B36B A9 FF		    lda #$FF
  5213 B36D D0 07		    bne loc_B376
  5214 B36F			loc_B36F:
  5215 B36F A9 00		    lda #$00
  5216 B371 F0 03		    beq loc_B376
  5217 B373			loc_B373:
  5218 B373 BD AE 25		    lda $25AE,x
  5219 B376			loc_B376:
  5220 B376 85 E3		    sta $E3
  5221 B378 BD 72 25		    lda $2572,x
  5222 B37B 85 95		    sta $95
  5223 B37D BD EA 25		    lda $25EA,x
  5224 B380 85 ED		    sta EEXP
  5225 B382 20 18 B4		    jsr fill_terrain_col
  5226 B385			loc_B385:
  5227 B385 E0 00		    cpx #$00
  5228 B387 F0 1D		    beq loc_B3A6
  5229 B389 BD 72 25		    lda $2572,x
  5230 B38C 85 82		    sta $82
  5231 B38E BD 90 25		    lda $2590,x
  5232 B391 85 83		    sta $83
  5233 B393 BD AE 25		    lda $25AE,x
  5234 B396 85 84		    sta $84
  5235 B398 BD CC 25		    lda $25CC,x
  5236 B39B 85 85		    sta $85
  5237 B39D BD EA 25		    lda $25EA,x
  5238 B3A0 85 86		    sta $86
  5239 B3A2 CA			    dex
  5240 B3A3 4C B4 B2		    jmp loc_B2B4
  5241 B3A6			loc_B3A6:
  5242 B3A6 60			    rts
  5243 B3A7			edge_midpoint:
  5244 B3A7 38			    sec
  5245 B3A8 A5 82		    lda $82
  5246 B3AA 7D 72 25		    adc $2572,x
  5247 B3AD 85 8D		    sta $8D
  5248 B3AF A5 83		    lda $83
  5249 B3B1 7D 90 25		    adc $2590,x
  5250 B3B4 C9 80		    cmp #$80
  5251 B3B6 6A			    ror
  5252 B3B7 85 8E		    sta $8E
  5253 B3B9 66 8D		    ror $8D
  5254 B3BB 38			    sec
  5255 B3BC A5 84		    lda $84
  5256 B3BE 7D AE 25		    adc $25AE,x
  5257 B3C1 85 8F		    sta $8F
  5258 B3C3 A5 85		    lda $85
  5259 B3C5 7D CC 25		    adc $25CC,x
  5260 B3C8 C9 80		    cmp #$80
  5261 B3CA 6A			    ror
  5262 B3CB 85 90		    sta $90
  5263 B3CD 66 8F		    ror $8F
  5264 B3CF A5 86		    lda $86
  5265 B3D1 38			    sec
  5266 B3D2 7D EA 25		    adc $25EA,x
  5267 B3D5 85 91		    sta $91
  5268 B3D7 30 01		    bmi loc_B3DA
  5269 B3D9 60			    rts
  5270 B3DA			loc_B3DA:
  5271 B3DA B0 1E		    bcs loc_B3FA
  5272 B3DC A5 8D		    lda $8D
  5273 B3DE 38			    sec
  5274 B3DF E5 82		    sbc $82
  5275 B3E1 85 B6		    sta $B6
  5276 B3E3 A5 8E		    lda $8E
  5277 B3E5 E5 83		    sbc $83
  5278 B3E7 4A			    lsr
  5279 B3E8 85 B7		    sta $B7
  5280 B3EA 66 B6		    ror $B6
  5281 B3EC A5 8F		    lda $8F
  5282 B3EE 38			    sec
  5283 B3EF E5 B6		    sbc $B6
  5284 B3F1 85 8F		    sta $8F
  5285 B3F3 A5 90		    lda $90
  5286 B3F5 E5 B7		    sbc $B7
  5287 B3F7 85 90		    sta $90
  5288 B3F9 60			    rts
  5289 B3FA			loc_B3FA:
  5290 B3FA A5 8D		    lda $8D
  5291 B3FC 38			    sec
  5292 B3FD E5 82		    sbc $82
  5293 B3FF 85 B6		    sta $B6
  5294 B401 A5 8E		    lda $8E
  5295 B403 E5 83		    sbc $83
  5296 B405 4A			    lsr
  5297 B406 85 B7		    sta $B7
  5298 B408 66 B6		    ror $B6
  5299 B40A A5 8F		    lda $8F
  5300 B40C 18			    clc
  5301 B40D 65 B6		    adc $B6
  5302 B40F 85 8F		    sta $8F
  5303 B411 A5 90		    lda $90
  5304 B413 65 B7		    adc $B7
  5305 B415 85 90		    sta $90
  5306 B417 60			    rts
  5307 B418			fill_terrain_col:
  5308 B418 8E E9 27		    stx $27E9
  5309 B41B A5 95		    lda $95
  5310 B41D C9 2D		    cmp #$2D
  5311 B41F 90 3B		    bcc loc_B45C
  5312 B421 C5 82		    cmp $82
  5313 B423 90 37		    bcc loc_B45C
  5314 B425 D0 36		    bne loc_B45D
  5315 B427 A6 95		    ldx $95
  5316 B429 A5 E3		    lda $E3
  5317 B42B DD 08 26		    cmp $2608,x
  5318 B42E 90 29		    bcc loc_B459
  5319 B430 F0 27		    beq loc_B459
  5320 B432 9D 08 26		    sta $2608,x
  5321 B435 C9 97		    cmp #$97
  5322 B437 90 07		    bcc loc_B440
  5323 B439 A9 FF		    lda #$FF
  5324 B43B 9D 08 26		    sta $2608,x
  5325 B43E A9 97		    lda #$97
  5326 B440			loc_B440:
  5327 B440 84 B6		    sty $B6
  5328 B442 A8			    tay
  5329 B443 B9 EC 28		    lda $28EC,y
  5330 B446 85 80		    sta $80
  5331 B448 B9 1C 29		    lda $291C,y
  5332 B44B 85 81		    sta $81
  5333 B44D BC 00 BD		    ldy $BD00,x
  5334 B450 B1 80		    lda ($80),y
  5335 B452 1D 00 BC		    ora $BC00,x
  5336 B455 91 80		    sta ($80),y
  5337 B457 A4 B6		    ldy $B6
  5338 B459			loc_B459:
  5339 B459 AE E9 27		    ldx $27E9
  5340 B45C			loc_B45C:
  5341 B45C 60			    rts
  5342 B45D			loc_B45D:
  5343 B45D A0 00		    ldy #$00
  5344 B45F			loc_B45F:
  5345 B45F A5 82		    lda $82
  5346 B461 C9 2C		    cmp #$2C
  5347 B463 90 04		    bcc loc_B469
  5348 B465 AA			    tax
  5349 B466 4C 1C B5		    jmp loc_B51C
  5350 B469			loc_B469:
  5351 B469 18			    clc
  5352 B46A 79 95 00		    adc $0095,y
  5353 B46D 6A			    ror
  5354 B46E C9 2C		    cmp #$2C
  5355 B470 90 02		    bcc loc_B474
  5356 B472 D0 4E		    bne loc_B4C2
  5357 B474			loc_B474:
  5358 B474 85 82		    sta $82
  5359 B476 A5 86		    lda $86
  5360 B478 38			    sec
  5361 B479 79 ED 00		    adc EEXP,y
  5362 B47C 85 86		    sta $86
  5363 B47E 30 0C		    bmi loc_B48C
  5364 B480 18			    clc
  5365 B481 A5 84		    lda $84
  5366 B483 79 E3 00		    adc $00E3,y
  5367 B486 6A			    ror
  5368 B487 85 84		    sta $84
  5369 B489 4C 5F B4		    jmp loc_B45F
  5370 B48C			loc_B48C:
  5371 B48C B0 18		    bcs loc_B4A6
  5372 B48E B9 95 00		    lda $0095,y
  5373 B491 38			    sec
  5374 B492 E5 82		    sbc $82
  5375 B494 4A			    lsr
  5376 B495 85 B6		    sta $B6
  5377 B497 18			    clc
  5378 B498 A5 84		    lda $84
  5379 B49A 79 E3 00		    adc $00E3,y
  5380 B49D 6A			    ror
  5381 B49E 38			    sec
  5382 B49F E5 B6		    sbc $B6
  5383 B4A1 85 84		    sta $84
  5384 B4A3 4C 5F B4		    jmp loc_B45F
  5385 B4A6			loc_B4A6:
  5386 B4A6 B9 95 00		    lda $0095,y
  5387 B4A9 38			    sec
  5388 B4AA E5 82		    sbc $82
  5389 B4AC 4A			    lsr
  5390 B4AD 85 B6		    sta $B6
  5391 B4AF 18			    clc
  5392 B4B0 A5 84		    lda $84
  5393 B4B2 79 E3 00		    adc $00E3,y
  5394 B4B5 6A			    ror
  5395 B4B6 18			    clc
  5396 B4B7 65 B6		    adc $B6
  5397 B4B9 90 02		    bcc loc_B4BD
  5398 B4BB A9 FF		    lda #$FF
  5399 B4BD			loc_B4BD:
  5400 B4BD 85 84		    sta $84
  5401 B4BF 4C 5F B4		    jmp loc_B45F
  5402 B4C2			loc_B4C2:
  5403 B4C2 99 96 00		    sta $0096,y
  5404 B4C5 A5 86		    lda $86
  5405 B4C7 38			    sec
  5406 B4C8 79 ED 00		    adc EEXP,y
  5407 B4CB 99 EE 00		    sta NSIGN,y
  5408 B4CE 30 0E		    bmi loc_B4DE
  5409 B4D0 18			    clc
  5410 B4D1 A5 84		    lda $84
  5411 B4D3 79 E3 00		    adc $00E3,y
  5412 B4D6 6A			    ror
  5413 B4D7 99 E4 00		    sta $00E4,y
  5414 B4DA C8			    iny
  5415 B4DB 4C 5F B4		    jmp loc_B45F
  5416 B4DE			loc_B4DE:
  5417 B4DE B0 1A		    bcs loc_B4FA
  5418 B4E0 B9 96 00		    lda $0096,y
  5419 B4E3 38			    sec
  5420 B4E4 E5 82		    sbc $82
  5421 B4E6 4A			    lsr
  5422 B4E7 85 B6		    sta $B6
  5423 B4E9 18			    clc
  5424 B4EA A5 84		    lda $84
  5425 B4EC 79 E3 00		    adc $00E3,y
  5426 B4EF 6A			    ror
  5427 B4F0 38			    sec
  5428 B4F1 E5 B6		    sbc $B6
  5429 B4F3 99 E4 00		    sta $00E4,y
  5430 B4F6 C8			    iny
  5431 B4F7 4C 5F B4		    jmp loc_B45F
  5432 B4FA			loc_B4FA:
  5433 B4FA B9 96 00		    lda $0096,y
  5434 B4FD 38			    sec
  5435 B4FE E5 82		    sbc $82
  5436 B500 4A			    lsr
  5437 B501 85 B6		    sta $B6
  5438 B503 18			    clc
  5439 B504 A5 84		    lda $84
  5440 B506 79 E3 00		    adc $00E3,y
  5441 B509 6A			    ror
  5442 B50A 18			    clc
  5443 B50B 65 B6		    adc $B6
  5444 B50D 90 02		    bcc loc_B511
  5445 B50F A9 FF		    lda #$FF
  5446 B511			loc_B511:
  5447 B511 99 E4 00		    sta $00E4,y
  5448 B514 C8			    iny
  5449 B515 4C 5F B4		    jmp loc_B45F
  5450 B518			loc_B518:
  5451 B518 AE E9 27		    ldx $27E9
  5452 B51B 60			    rts
  5453 B51C			loc_B51C:
  5454 B51C E0 D4		    cpx #$D4
  5455 B51E B0 F8		    bcs loc_B518
  5456 B520 8A			    txa
  5457 B521 86 82		    stx $82
  5458 B523 38			    sec
  5459 B524 F9 95 00		    sbc $0095,y
  5460 B527 C9 FE		    cmp #$FE
  5461 B529 D0 78		    bne loc_B5A3
  5462 B52B B9 E3 00		    lda $00E3,y
  5463 B52E 65 84		    adc $84
  5464 B530 6A			    ror
  5465 B531 DD 08 26		    cmp $2608,x
  5466 B534 90 29		    bcc loc_B55F
  5467 B536 F0 27		    beq loc_B55F
  5468 B538 9D 08 26		    sta $2608,x
  5469 B53B C9 97		    cmp #$97
  5470 B53D 90 07		    bcc loc_B546
  5471 B53F A9 FF		    lda #$FF
  5472 B541 9D 08 26		    sta $2608,x
  5473 B544 A9 97		    lda #$97
  5474 B546			loc_B546:
  5475 B546 84 B6		    sty $B6
  5476 B548 A8			    tay
  5477 B549 B9 EC 28		    lda $28EC,y
  5478 B54C 85 80		    sta $80
  5479 B54E B9 1C 29		    lda $291C,y
  5480 B551 85 81		    sta $81
  5481 B553 BC 00 BD		    ldy $BD00,x
  5482 B556 B1 80		    lda ($80),y
  5483 B558 1D 00 BC		    ora $BC00,x
  5484 B55B 91 80		    sta ($80),y
  5485 B55D A4 B6		    ldy $B6
  5486 B55F			loc_B55F:
  5487 B55F E8			    inx
  5488 B560 B9 E3 00		    lda $00E3,y
  5489 B563 85 84		    sta $84
  5490 B565 DD 08 26		    cmp $2608,x
  5491 B568 90 29		    bcc loc_B593
  5492 B56A F0 27		    beq loc_B593
  5493 B56C 9D 08 26		    sta $2608,x
  5494 B56F C9 97		    cmp #$97
  5495 B571 90 07		    bcc loc_B57A
  5496 B573 A9 FF		    lda #$FF
  5497 B575 9D 08 26		    sta $2608,x
  5498 B578 A9 97		    lda #$97
  5499 B57A			loc_B57A:
  5500 B57A 84 B6		    sty $B6
  5501 B57C A8			    tay
  5502 B57D B9 EC 28		    lda $28EC,y
  5503 B580 85 80		    sta $80
  5504 B582 B9 1C 29		    lda $291C,y
  5505 B585 85 81		    sta $81
  5506 B587 BC 00 BD		    ldy $BD00,x
  5507 B58A B1 80		    lda ($80),y
  5508 B58C 1D 00 BC		    ora $BC00,x
  5509 B58F 91 80		    sta ($80),y
  5510 B591 A4 B6		    ldy $B6
  5511 B593			loc_B593:
  5512 B593 88			    dey
  5513 B594 30 09		    bmi loc_B59F
  5514 B596 E8			    inx
  5515 B597 B9 EE 00		    lda NSIGN,y
  5516 B59A 85 86		    sta $86
  5517 B59C 4C 1C B5		    jmp loc_B51C
  5518 B59F			loc_B59F:
  5519 B59F AE E9 27		    ldx $27E9
  5520 B5A2 60			    rts
  5521 B5A3			loc_B5A3:
  5522 B5A3 90 3F		    bcc loc_B5E4
  5523 B5A5 B9 E3 00		    lda $00E3,y
  5524 B5A8 85 84		    sta $84
  5525 B5AA DD 08 26		    cmp $2608,x
  5526 B5AD 90 29		    bcc loc_B5D8
  5527 B5AF F0 27		    beq loc_B5D8
  5528 B5B1 9D 08 26		    sta $2608,x
  5529 B5B4 C9 97		    cmp #$97
  5530 B5B6 90 07		    bcc loc_B5BF
  5531 B5B8 A9 FF		    lda #$FF
  5532 B5BA 9D 08 26		    sta $2608,x
  5533 B5BD A9 97		    lda #$97
  5534 B5BF			loc_B5BF:
  5535 B5BF 84 B6		    sty $B6
  5536 B5C1 A8			    tay
  5537 B5C2 B9 EC 28		    lda $28EC,y
  5538 B5C5 85 80		    sta $80
  5539 B5C7 B9 1C 29		    lda $291C,y
  5540 B5CA 85 81		    sta $81
  5541 B5CC BC 00 BD		    ldy $BD00,x
  5542 B5CF B1 80		    lda ($80),y
  5543 B5D1 1D 00 BC		    ora $BC00,x
  5544 B5D4 91 80		    sta ($80),y
  5545 B5D6 A4 B6		    ldy $B6
  5546 B5D8			loc_B5D8:
  5547 B5D8 88			    dey
  5548 B5D9 30 C4		    bmi loc_B59F
  5549 B5DB E8			    inx
  5550 B5DC B9 EE 00		    lda NSIGN,y
  5551 B5DF 85 86		    sta $86
  5552 B5E1 4C 1C B5		    jmp loc_B51C
  5553 B5E4			loc_B5E4:
  5554 B5E4 8A			    txa
  5555 B5E5 79 95 00		    adc $0095,y
  5556 B5E8 6A			    ror
  5557 B5E9 99 96 00		    sta $0096,y
  5558 B5EC A5 86		    lda $86
  5559 B5EE 38			    sec
  5560 B5EF 79 ED 00		    adc EEXP,y
  5561 B5F2 99 EE 00		    sta NSIGN,y
  5562 B5F5 30 0E		    bmi loc_B605
  5563 B5F7 18			    clc
  5564 B5F8 A5 84		    lda $84
  5565 B5FA 79 E3 00		    adc $00E3,y
  5566 B5FD 6A			    ror
  5567 B5FE 99 E4 00		    sta $00E4,y
  5568 B601 C8			    iny
  5569 B602 4C 1C B5		    jmp loc_B51C
  5570 B605			loc_B605:
  5571 B605 B0 18		    bcs loc_B61F
  5572 B607 B9 96 00		    lda $0096,y
  5573 B60A E5 82		    sbc $82
  5574 B60C 4A			    lsr
  5575 B60D 85 B6		    sta $B6
  5576 B60F 18			    clc
  5577 B610 A5 84		    lda $84
  5578 B612 79 E3 00		    adc $00E3,y
  5579 B615 6A			    ror
  5580 B616 E5 B6		    sbc $B6
  5581 B618 99 E4 00		    sta $00E4,y
  5582 B61B C8			    iny
  5583 B61C 4C 1C B5		    jmp loc_B51C
  5584 B61F			loc_B61F:
  5585 B61F B9 96 00		    lda $0096,y
  5586 B622 E5 82		    sbc $82
  5587 B624 4A			    lsr
  5588 B625 85 B6		    sta $B6
  5589 B627 18			    clc
  5590 B628 A5 84		    lda $84
  5591 B62A 79 E3 00		    adc $00E3,y
  5592 B62D 6A			    ror
  5593 B62E 65 B6		    adc $B6
  5594 B630 90 02		    bcc loc_B634
  5595 B632 A9 FF		    lda #$FF
  5596 B634			loc_B634:
  5597 B634 99 E4 00		    sta $00E4,y
  5598 B637 C8			    iny
  5599 B638 4C 1C B5		    jmp loc_B51C
  5600 B63B 80 20 08 02 C0 30 +     .byte $80,$20,$08,$02,$C0,$30,$0C,$03,$2F,$2F,$2F,$2F,$2E,$2D,$2C,$2B ; $B63B
  5601 B64B 2B 2B 2B 2B 2B 2B +     .byte $2B,$2B,$2B,$2B,$2B,$2B,$2B,$2B,$2B,$2B,$2B,$2B,$2B,$2B,$2B,$2B ; $B64B
  5602 B65B 2B 2B 2B 2B 2B 2B +     .byte $2B,$2B,$2B,$2B,$2B,$2B,$2B,$2B,$2B,$2B,$2B,$2B,$2B,$2B,$2B,$2B ; $B65B
  5603 B66B 2B 2B 2C 2D 2E 2F +     .byte $2B,$2B,$2C,$2D,$2E,$2F,$2F,$2F,$2F,$2F,$2F,$2F,$2E,$2D,$2C,$2B ; $B66B
  5604 B67B 2B 2B 2B 2B 2B 2B +     .byte $2B,$2B,$2B,$2B,$2B,$2B,$2B,$2B,$2B,$2B,$2B,$2B,$2B,$2B,$2B,$2B ; $B67B
  5605 B68B 2B 2B 2B 2B 2B 2B +     .byte $2B,$2B,$2B,$2B,$2B,$2B,$2B,$2B,$2B,$2B,$2B,$2B,$2B,$2B,$2B,$2B ; $B68B
  5606 B69B 2B 2B 2C 2D 2E 2F +     .byte $2B,$2B,$2C,$2D,$2E,$2F,$2F,$2F,$10,$50,$20,$20,$80,$80,$C0,$40 ; $B69B
  5607 B6AB 40 40 40 10 10 10 +     .byte $40,$40,$40,$10,$10,$10,$10,$50,$20,$20,$20,$20,$20,$20,$80,$80 ; $B6AB
  5608 B6BB 80 80 80 80 C0 40 +     .byte $80,$80,$80,$80,$C0,$40,$40,$40,$40,$40,$40,$40,$40,$10,$10,$10 ; $B6BB
  5609 B6CB 10 10 10 10 10 50 +     .byte $10,$10,$10,$10,$10,$50,$60,$80,$80,$10,$10,$A0,$20,$20,$20,$20 ; $B6CB
  5610 B6DB 40 40 40 40 60 80 +     .byte $40,$40,$40,$40,$60,$80,$80,$80,$80,$80,$80,$10,$10,$10,$10,$10 ; $B6DB
  5611 B6EB 10 A0 20 20 20 20 +     .byte $10,$A0,$20,$20,$20,$20,$20,$20,$20,$20,$40,$40,$40,$40,$40,$40 ; $B6EB
  5612 B6FB 40 40 00 A0 40 40 +     .byte $40,$40,$00,$A0,$40,$40,$20,$20,$60,$10,$10,$10,$10,$80,$80,$80 ; $B6FB
  5613 B70B 80 A0 40 40 40 40 +     .byte $80,$A0,$40,$40,$40,$40,$40,$40,$20,$20,$20,$20,$20,$20,$60,$10 ; $B70B
  5614 B71B 10 10 10 10 10 10 +     .byte $10,$10,$10,$10,$10,$10,$10,$80,$80,$80,$80,$80,$80,$80,$80,$40 ; $B71B
  5615 B72B C0 10 10 40 40 50 +     .byte $C0,$10,$10,$40,$40,$50,$80,$80,$80,$80,$20,$20,$20,$20,$C0,$10 ; $B72B
  5616 B73B 10 10 10 10 10 40 +     .byte $10,$10,$10,$10,$10,$40,$40,$40,$40,$40,$40,$50,$80,$80,$80,$80 ; $B73B
  5617 B74B 80 80 80 80 20 20 +     .byte $80,$80,$80,$80,$20,$20,$20,$20,$20,$20,$20,$20  ; $B74B
  5618 B757			edge_adjacency:
  5619 B757 02 00 00 04 02 01 +     .byte $02,$00,$00,$04,$02,$01,$03,$02,$04,$03,$05,$04,$05,$07,$04,$08 ; $B757
  5620 B767 09 03 03 0B 0C 02 +     .byte $09,$03,$03,$0B,$0C,$02,$0D,$01,$06,$07,$07,$08,$08,$09,$09,$0A ; $B767
  5621 B777 0A 0B 0B 0C 0C 0D +     .byte $0A,$0B,$0B,$0C,$0C,$0D,$0D,$0E,$10,$0E,$11,$0D,$12,$0C,$0B,$13 ; $B777
  5622 B787 0A 14 16 0A 17 09 +     .byte $0A,$14,$16,$0A,$17,$09,$08,$18,$07,$19,$06,$1A,$1B,$1A,$1A,$19 ; $B787
  5623 B797 19 18 18 17 17 16 +     .byte $19,$18,$18,$17,$17,$16,$16,$15,$15,$14,$14,$13,$13,$12,$12,$11 ; $B797
  5624 B7A7 11 10 10 0F 2B 0F +     .byte $11,$10,$10,$0F,$2B,$0F,$2A,$10,$29,$11,$28,$12,$13,$27,$14,$26 ; $B7A7
  5625 B7B7 15 25 23 15 22 16 +     .byte $15,$25,$23,$15,$22,$16,$21,$17,$18,$20,$19,$1F,$1A,$1E,$1B,$1D ; $B7B7
  5626 B7C7 1C 1D 1D 1E 1E 1F +     .byte $1C,$1D,$1D,$1E,$1E,$1F,$1F,$20,$20,$21,$21,$22,$22,$23,$23,$24 ; $B7C7
  5627 B7D7 24 25 25 26 26 27 +     .byte $24,$25,$25,$26,$26,$27,$27,$28,$28,$29,$29,$2A,$2A,$2B,$2B,$2C ; $B7D7
    28
    29 				; === Segment 5: $0000-$0000 Padding byte ===
    30 B7E7 00 00 00 00		    org [a($0000),a($0000)],$0000
    31 0000			    icl 'seg_05_0000.asm'
Source: seg_05_0000.asm
     1 				; =============================================================
     2 				; Segment 5: $0000-$0000 — Padding byte
     3 				; =============================================================
     4 				; XEX load range: $0000-$0000 (1 bytes)
     5
     6 0000			    org $0000
     7
     8 0000 9B			    .byte $9B                                              ; $0000
    32
    33 				; RUN address
    34 0001 E0 02 E1 02		    org [a($02E0),a($02E1)],$02E0
    35 02E0 00 3C		    .word game_start
